ARM GAS  C:\Users\Daniel\AppData\Local\Temp\ccnluvCc.s 			page 1


   1              		.cpu cortex-m0
   2              		.arch armv6s-m
   3              		.fpu softvfp
   4              		.eabi_attribute 20, 1
   5              		.eabi_attribute 21, 1
   6              		.eabi_attribute 23, 3
   7              		.eabi_attribute 24, 1
   8              		.eabi_attribute 25, 1
   9              		.eabi_attribute 26, 1
  10              		.eabi_attribute 30, 1
  11              		.eabi_attribute 34, 0
  12              		.eabi_attribute 18, 4
  13              		.file	"stm32f0xx_ll_usb.c"
  14              		.text
  15              	.Ltext0:
  16              		.cfi_sections	.debug_frame
  17              		.file 1 "Drivers/STM32F0xx_HAL_Driver/Src/stm32f0xx_ll_usb.c"
  18              		.section	.text.USB_CoreInit,"ax",%progbits
  19              		.align	1
  20              		.global	USB_CoreInit
  21              		.syntax unified
  22              		.code	16
  23              		.thumb_func
  25              	USB_CoreInit:
  26              	.LVL0:
  27              	.LFB40:
   1:Drivers/STM32F0xx_HAL_Driver/Src/stm32f0xx_ll_usb.c **** /**
   2:Drivers/STM32F0xx_HAL_Driver/Src/stm32f0xx_ll_usb.c ****   ******************************************************************************
   3:Drivers/STM32F0xx_HAL_Driver/Src/stm32f0xx_ll_usb.c ****   * @file    stm32f0xx_ll_usb.c
   4:Drivers/STM32F0xx_HAL_Driver/Src/stm32f0xx_ll_usb.c ****   * @author  MCD Application Team
   5:Drivers/STM32F0xx_HAL_Driver/Src/stm32f0xx_ll_usb.c ****   * @brief   USB Low Layer HAL module driver.
   6:Drivers/STM32F0xx_HAL_Driver/Src/stm32f0xx_ll_usb.c ****   *
   7:Drivers/STM32F0xx_HAL_Driver/Src/stm32f0xx_ll_usb.c ****   *          This file provides firmware functions to manage the following
   8:Drivers/STM32F0xx_HAL_Driver/Src/stm32f0xx_ll_usb.c ****   *          functionalities of the USB Peripheral Controller:
   9:Drivers/STM32F0xx_HAL_Driver/Src/stm32f0xx_ll_usb.c ****   *           + Initialization/de-initialization functions
  10:Drivers/STM32F0xx_HAL_Driver/Src/stm32f0xx_ll_usb.c ****   *           + I/O operation functions
  11:Drivers/STM32F0xx_HAL_Driver/Src/stm32f0xx_ll_usb.c ****   *           + Peripheral Control functions
  12:Drivers/STM32F0xx_HAL_Driver/Src/stm32f0xx_ll_usb.c ****   *           + Peripheral State functions
  13:Drivers/STM32F0xx_HAL_Driver/Src/stm32f0xx_ll_usb.c ****   *
  14:Drivers/STM32F0xx_HAL_Driver/Src/stm32f0xx_ll_usb.c ****   ******************************************************************************
  15:Drivers/STM32F0xx_HAL_Driver/Src/stm32f0xx_ll_usb.c ****   * @attention
  16:Drivers/STM32F0xx_HAL_Driver/Src/stm32f0xx_ll_usb.c ****   *
  17:Drivers/STM32F0xx_HAL_Driver/Src/stm32f0xx_ll_usb.c ****   * Copyright (c) 2016 STMicroelectronics.
  18:Drivers/STM32F0xx_HAL_Driver/Src/stm32f0xx_ll_usb.c ****   * All rights reserved.
  19:Drivers/STM32F0xx_HAL_Driver/Src/stm32f0xx_ll_usb.c ****   *
  20:Drivers/STM32F0xx_HAL_Driver/Src/stm32f0xx_ll_usb.c ****   * This software is licensed under terms that can be found in the LICENSE file
  21:Drivers/STM32F0xx_HAL_Driver/Src/stm32f0xx_ll_usb.c ****   * in the root directory of this software component.
  22:Drivers/STM32F0xx_HAL_Driver/Src/stm32f0xx_ll_usb.c ****   * If no LICENSE file comes with this software, it is provided AS-IS.
  23:Drivers/STM32F0xx_HAL_Driver/Src/stm32f0xx_ll_usb.c ****   *
  24:Drivers/STM32F0xx_HAL_Driver/Src/stm32f0xx_ll_usb.c ****   ******************************************************************************
  25:Drivers/STM32F0xx_HAL_Driver/Src/stm32f0xx_ll_usb.c ****   @verbatim
  26:Drivers/STM32F0xx_HAL_Driver/Src/stm32f0xx_ll_usb.c ****   ==============================================================================
  27:Drivers/STM32F0xx_HAL_Driver/Src/stm32f0xx_ll_usb.c ****                     ##### How to use this driver #####
  28:Drivers/STM32F0xx_HAL_Driver/Src/stm32f0xx_ll_usb.c ****   ==============================================================================
  29:Drivers/STM32F0xx_HAL_Driver/Src/stm32f0xx_ll_usb.c ****     [..]
  30:Drivers/STM32F0xx_HAL_Driver/Src/stm32f0xx_ll_usb.c ****       (#) Fill parameters of Init structure in USB_CfgTypeDef structure.
  31:Drivers/STM32F0xx_HAL_Driver/Src/stm32f0xx_ll_usb.c **** 
ARM GAS  C:\Users\Daniel\AppData\Local\Temp\ccnluvCc.s 			page 2


  32:Drivers/STM32F0xx_HAL_Driver/Src/stm32f0xx_ll_usb.c ****       (#) Call USB_CoreInit() API to initialize the USB Core peripheral.
  33:Drivers/STM32F0xx_HAL_Driver/Src/stm32f0xx_ll_usb.c **** 
  34:Drivers/STM32F0xx_HAL_Driver/Src/stm32f0xx_ll_usb.c ****       (#) The upper HAL HCD/PCD driver will call the right routines for its internal processes.
  35:Drivers/STM32F0xx_HAL_Driver/Src/stm32f0xx_ll_usb.c **** 
  36:Drivers/STM32F0xx_HAL_Driver/Src/stm32f0xx_ll_usb.c ****   @endverbatim
  37:Drivers/STM32F0xx_HAL_Driver/Src/stm32f0xx_ll_usb.c **** 
  38:Drivers/STM32F0xx_HAL_Driver/Src/stm32f0xx_ll_usb.c ****   ******************************************************************************
  39:Drivers/STM32F0xx_HAL_Driver/Src/stm32f0xx_ll_usb.c ****   */
  40:Drivers/STM32F0xx_HAL_Driver/Src/stm32f0xx_ll_usb.c **** 
  41:Drivers/STM32F0xx_HAL_Driver/Src/stm32f0xx_ll_usb.c **** /* Includes ------------------------------------------------------------------*/
  42:Drivers/STM32F0xx_HAL_Driver/Src/stm32f0xx_ll_usb.c **** #include "stm32f0xx_hal.h"
  43:Drivers/STM32F0xx_HAL_Driver/Src/stm32f0xx_ll_usb.c **** 
  44:Drivers/STM32F0xx_HAL_Driver/Src/stm32f0xx_ll_usb.c **** /** @addtogroup STM32F0xx_LL_USB_DRIVER
  45:Drivers/STM32F0xx_HAL_Driver/Src/stm32f0xx_ll_usb.c ****   * @{
  46:Drivers/STM32F0xx_HAL_Driver/Src/stm32f0xx_ll_usb.c ****   */
  47:Drivers/STM32F0xx_HAL_Driver/Src/stm32f0xx_ll_usb.c **** 
  48:Drivers/STM32F0xx_HAL_Driver/Src/stm32f0xx_ll_usb.c **** #if defined (HAL_PCD_MODULE_ENABLED) || defined (HAL_HCD_MODULE_ENABLED)
  49:Drivers/STM32F0xx_HAL_Driver/Src/stm32f0xx_ll_usb.c **** #if defined (USB)
  50:Drivers/STM32F0xx_HAL_Driver/Src/stm32f0xx_ll_usb.c **** /* Private typedef -----------------------------------------------------------*/
  51:Drivers/STM32F0xx_HAL_Driver/Src/stm32f0xx_ll_usb.c **** /* Private define ------------------------------------------------------------*/
  52:Drivers/STM32F0xx_HAL_Driver/Src/stm32f0xx_ll_usb.c **** /* Private macro -------------------------------------------------------------*/
  53:Drivers/STM32F0xx_HAL_Driver/Src/stm32f0xx_ll_usb.c **** /* Private variables ---------------------------------------------------------*/
  54:Drivers/STM32F0xx_HAL_Driver/Src/stm32f0xx_ll_usb.c **** /* Private function prototypes -----------------------------------------------*/
  55:Drivers/STM32F0xx_HAL_Driver/Src/stm32f0xx_ll_usb.c **** /* Private functions ---------------------------------------------------------*/
  56:Drivers/STM32F0xx_HAL_Driver/Src/stm32f0xx_ll_usb.c **** 
  57:Drivers/STM32F0xx_HAL_Driver/Src/stm32f0xx_ll_usb.c **** /**
  58:Drivers/STM32F0xx_HAL_Driver/Src/stm32f0xx_ll_usb.c ****   * @brief  Initializes the USB Core
  59:Drivers/STM32F0xx_HAL_Driver/Src/stm32f0xx_ll_usb.c ****   * @param  USBx USB Instance
  60:Drivers/STM32F0xx_HAL_Driver/Src/stm32f0xx_ll_usb.c ****   * @param  cfg pointer to a USB_CfgTypeDef structure that contains
  61:Drivers/STM32F0xx_HAL_Driver/Src/stm32f0xx_ll_usb.c ****   *         the configuration information for the specified USBx peripheral.
  62:Drivers/STM32F0xx_HAL_Driver/Src/stm32f0xx_ll_usb.c ****   * @retval HAL status
  63:Drivers/STM32F0xx_HAL_Driver/Src/stm32f0xx_ll_usb.c ****   */
  64:Drivers/STM32F0xx_HAL_Driver/Src/stm32f0xx_ll_usb.c **** HAL_StatusTypeDef USB_CoreInit(USB_TypeDef *USBx, USB_CfgTypeDef cfg)
  65:Drivers/STM32F0xx_HAL_Driver/Src/stm32f0xx_ll_usb.c **** {
  28              		.loc 1 65 1 view -0
  29              		.cfi_startproc
  30              		@ args = 36, pretend = 16, frame = 0
  31              		@ frame_needed = 0, uses_anonymous_args = 0
  32              		@ link register save eliminated.
  33              		.loc 1 65 1 is_stmt 0 view .LVU1
  34 0000 84B0     		sub	sp, sp, #16
  35              		.cfi_def_cfa_offset 16
  36 0002 0191     		str	r1, [sp, #4]
  37 0004 0292     		str	r2, [sp, #8]
  38 0006 0393     		str	r3, [sp, #12]
  66:Drivers/STM32F0xx_HAL_Driver/Src/stm32f0xx_ll_usb.c ****   /* Prevent unused argument(s) compilation warning */
  67:Drivers/STM32F0xx_HAL_Driver/Src/stm32f0xx_ll_usb.c ****   UNUSED(USBx);
  39              		.loc 1 67 3 is_stmt 1 view .LVU2
  68:Drivers/STM32F0xx_HAL_Driver/Src/stm32f0xx_ll_usb.c ****   UNUSED(cfg);
  40              		.loc 1 68 3 view .LVU3
  69:Drivers/STM32F0xx_HAL_Driver/Src/stm32f0xx_ll_usb.c **** 
  70:Drivers/STM32F0xx_HAL_Driver/Src/stm32f0xx_ll_usb.c ****   /* NOTE : - This function is not required by USB Device FS peripheral, it is used
  71:Drivers/STM32F0xx_HAL_Driver/Src/stm32f0xx_ll_usb.c ****               only by USB OTG FS peripheral.
  72:Drivers/STM32F0xx_HAL_Driver/Src/stm32f0xx_ll_usb.c ****             - This function is added to ensure compatibility across platforms.
  73:Drivers/STM32F0xx_HAL_Driver/Src/stm32f0xx_ll_usb.c ****    */
  74:Drivers/STM32F0xx_HAL_Driver/Src/stm32f0xx_ll_usb.c **** 
  75:Drivers/STM32F0xx_HAL_Driver/Src/stm32f0xx_ll_usb.c ****   return HAL_OK;
ARM GAS  C:\Users\Daniel\AppData\Local\Temp\ccnluvCc.s 			page 3


  41              		.loc 1 75 3 view .LVU4
  76:Drivers/STM32F0xx_HAL_Driver/Src/stm32f0xx_ll_usb.c **** }
  42              		.loc 1 76 1 is_stmt 0 view .LVU5
  43 0008 0020     		movs	r0, #0
  44              	.LVL1:
  45              		.loc 1 76 1 view .LVU6
  46              		@ sp needed
  47 000a 04B0     		add	sp, sp, #16
  48 000c 7047     		bx	lr
  49              		.cfi_endproc
  50              	.LFE40:
  52              		.section	.text.USB_EnableGlobalInt,"ax",%progbits
  53              		.align	1
  54              		.global	USB_EnableGlobalInt
  55              		.syntax unified
  56              		.code	16
  57              		.thumb_func
  59              	USB_EnableGlobalInt:
  60              	.LVL2:
  61              	.LFB41:
  77:Drivers/STM32F0xx_HAL_Driver/Src/stm32f0xx_ll_usb.c **** 
  78:Drivers/STM32F0xx_HAL_Driver/Src/stm32f0xx_ll_usb.c **** /**
  79:Drivers/STM32F0xx_HAL_Driver/Src/stm32f0xx_ll_usb.c ****   * @brief  USB_EnableGlobalInt
  80:Drivers/STM32F0xx_HAL_Driver/Src/stm32f0xx_ll_usb.c ****   *         Enables the controller's Global Int in the AHB Config reg
  81:Drivers/STM32F0xx_HAL_Driver/Src/stm32f0xx_ll_usb.c ****   * @param  USBx Selected device
  82:Drivers/STM32F0xx_HAL_Driver/Src/stm32f0xx_ll_usb.c ****   * @retval HAL status
  83:Drivers/STM32F0xx_HAL_Driver/Src/stm32f0xx_ll_usb.c ****   */
  84:Drivers/STM32F0xx_HAL_Driver/Src/stm32f0xx_ll_usb.c **** HAL_StatusTypeDef USB_EnableGlobalInt(USB_TypeDef *USBx)
  85:Drivers/STM32F0xx_HAL_Driver/Src/stm32f0xx_ll_usb.c **** {
  62              		.loc 1 85 1 is_stmt 1 view -0
  63              		.cfi_startproc
  64              		@ args = 0, pretend = 0, frame = 0
  65              		@ frame_needed = 0, uses_anonymous_args = 0
  66              		@ link register save eliminated.
  86:Drivers/STM32F0xx_HAL_Driver/Src/stm32f0xx_ll_usb.c ****   uint32_t winterruptmask;
  67              		.loc 1 86 3 view .LVU8
  87:Drivers/STM32F0xx_HAL_Driver/Src/stm32f0xx_ll_usb.c **** 
  88:Drivers/STM32F0xx_HAL_Driver/Src/stm32f0xx_ll_usb.c ****   /* Clear pending interrupts */
  89:Drivers/STM32F0xx_HAL_Driver/Src/stm32f0xx_ll_usb.c ****   USBx->ISTR = 0U;
  68              		.loc 1 89 3 view .LVU9
  69              		.loc 1 89 14 is_stmt 0 view .LVU10
  70 0000 4423     		movs	r3, #68
  71 0002 0022     		movs	r2, #0
  72 0004 C252     		strh	r2, [r0, r3]
  90:Drivers/STM32F0xx_HAL_Driver/Src/stm32f0xx_ll_usb.c **** 
  91:Drivers/STM32F0xx_HAL_Driver/Src/stm32f0xx_ll_usb.c ****   /* Set winterruptmask variable */
  92:Drivers/STM32F0xx_HAL_Driver/Src/stm32f0xx_ll_usb.c ****   winterruptmask = USB_CNTR_CTRM  | USB_CNTR_WKUPM |
  73              		.loc 1 92 3 is_stmt 1 view .LVU11
  74              	.LVL3:
  93:Drivers/STM32F0xx_HAL_Driver/Src/stm32f0xx_ll_usb.c ****                    USB_CNTR_SUSPM | USB_CNTR_ERRM |
  94:Drivers/STM32F0xx_HAL_Driver/Src/stm32f0xx_ll_usb.c ****                    USB_CNTR_SOFM | USB_CNTR_ESOFM |
  95:Drivers/STM32F0xx_HAL_Driver/Src/stm32f0xx_ll_usb.c ****                    USB_CNTR_RESETM | USB_CNTR_L1REQM;
  96:Drivers/STM32F0xx_HAL_Driver/Src/stm32f0xx_ll_usb.c **** 
  97:Drivers/STM32F0xx_HAL_Driver/Src/stm32f0xx_ll_usb.c ****   /* Set interrupt mask */
  98:Drivers/STM32F0xx_HAL_Driver/Src/stm32f0xx_ll_usb.c ****   USBx->CNTR = (uint16_t)winterruptmask;
  75              		.loc 1 98 3 view .LVU12
  76              		.loc 1 98 14 is_stmt 0 view .LVU13
ARM GAS  C:\Users\Daniel\AppData\Local\Temp\ccnluvCc.s 			page 4


  77 0006 043B     		subs	r3, r3, #4
  78 0008 014A     		ldr	r2, .L3
  79 000a C252     		strh	r2, [r0, r3]
  99:Drivers/STM32F0xx_HAL_Driver/Src/stm32f0xx_ll_usb.c **** 
 100:Drivers/STM32F0xx_HAL_Driver/Src/stm32f0xx_ll_usb.c ****   return HAL_OK;
  80              		.loc 1 100 3 is_stmt 1 view .LVU14
 101:Drivers/STM32F0xx_HAL_Driver/Src/stm32f0xx_ll_usb.c **** }
  81              		.loc 1 101 1 is_stmt 0 view .LVU15
  82 000c 0020     		movs	r0, #0
  83              	.LVL4:
  84              		.loc 1 101 1 view .LVU16
  85              		@ sp needed
  86 000e 7047     		bx	lr
  87              	.L4:
  88              		.align	2
  89              	.L3:
  90 0010 80BFFFFF 		.word	-16512
  91              		.cfi_endproc
  92              	.LFE41:
  94              		.section	.text.USB_DisableGlobalInt,"ax",%progbits
  95              		.align	1
  96              		.global	USB_DisableGlobalInt
  97              		.syntax unified
  98              		.code	16
  99              		.thumb_func
 101              	USB_DisableGlobalInt:
 102              	.LVL5:
 103              	.LFB42:
 102:Drivers/STM32F0xx_HAL_Driver/Src/stm32f0xx_ll_usb.c **** 
 103:Drivers/STM32F0xx_HAL_Driver/Src/stm32f0xx_ll_usb.c **** /**
 104:Drivers/STM32F0xx_HAL_Driver/Src/stm32f0xx_ll_usb.c ****   * @brief  USB_DisableGlobalInt
 105:Drivers/STM32F0xx_HAL_Driver/Src/stm32f0xx_ll_usb.c ****   *         Disable the controller's Global Int in the AHB Config reg
 106:Drivers/STM32F0xx_HAL_Driver/Src/stm32f0xx_ll_usb.c ****   * @param  USBx Selected device
 107:Drivers/STM32F0xx_HAL_Driver/Src/stm32f0xx_ll_usb.c ****   * @retval HAL status
 108:Drivers/STM32F0xx_HAL_Driver/Src/stm32f0xx_ll_usb.c ****   */
 109:Drivers/STM32F0xx_HAL_Driver/Src/stm32f0xx_ll_usb.c **** HAL_StatusTypeDef USB_DisableGlobalInt(USB_TypeDef *USBx)
 110:Drivers/STM32F0xx_HAL_Driver/Src/stm32f0xx_ll_usb.c **** {
 104              		.loc 1 110 1 is_stmt 1 view -0
 105              		.cfi_startproc
 106              		@ args = 0, pretend = 0, frame = 0
 107              		@ frame_needed = 0, uses_anonymous_args = 0
 108              		@ link register save eliminated.
 111:Drivers/STM32F0xx_HAL_Driver/Src/stm32f0xx_ll_usb.c ****   uint32_t winterruptmask;
 109              		.loc 1 111 3 view .LVU18
 112:Drivers/STM32F0xx_HAL_Driver/Src/stm32f0xx_ll_usb.c **** 
 113:Drivers/STM32F0xx_HAL_Driver/Src/stm32f0xx_ll_usb.c ****   /* Set winterruptmask variable */
 114:Drivers/STM32F0xx_HAL_Driver/Src/stm32f0xx_ll_usb.c ****   winterruptmask = USB_CNTR_CTRM  | USB_CNTR_WKUPM |
 110              		.loc 1 114 3 view .LVU19
 115:Drivers/STM32F0xx_HAL_Driver/Src/stm32f0xx_ll_usb.c ****                    USB_CNTR_SUSPM | USB_CNTR_ERRM |
 116:Drivers/STM32F0xx_HAL_Driver/Src/stm32f0xx_ll_usb.c ****                    USB_CNTR_SOFM | USB_CNTR_ESOFM |
 117:Drivers/STM32F0xx_HAL_Driver/Src/stm32f0xx_ll_usb.c ****                    USB_CNTR_RESETM | USB_CNTR_L1REQM;
 118:Drivers/STM32F0xx_HAL_Driver/Src/stm32f0xx_ll_usb.c **** 
 119:Drivers/STM32F0xx_HAL_Driver/Src/stm32f0xx_ll_usb.c ****   /* Clear interrupt mask */
 120:Drivers/STM32F0xx_HAL_Driver/Src/stm32f0xx_ll_usb.c ****   USBx->CNTR &= (uint16_t)(~winterruptmask);
 111              		.loc 1 120 3 view .LVU20
 112              		.loc 1 120 7 is_stmt 0 view .LVU21
 113 0000 4022     		movs	r2, #64
ARM GAS  C:\Users\Daniel\AppData\Local\Temp\ccnluvCc.s 			page 5


 114 0002 835A     		ldrh	r3, [r0, r2]
 115              		.loc 1 120 14 view .LVU22
 116 0004 0249     		ldr	r1, .L6
 117 0006 0B40     		ands	r3, r1
 118 0008 8352     		strh	r3, [r0, r2]
 121:Drivers/STM32F0xx_HAL_Driver/Src/stm32f0xx_ll_usb.c **** 
 122:Drivers/STM32F0xx_HAL_Driver/Src/stm32f0xx_ll_usb.c ****   return HAL_OK;
 119              		.loc 1 122 3 is_stmt 1 view .LVU23
 123:Drivers/STM32F0xx_HAL_Driver/Src/stm32f0xx_ll_usb.c **** }
 120              		.loc 1 123 1 is_stmt 0 view .LVU24
 121 000a 0020     		movs	r0, #0
 122              	.LVL6:
 123              		.loc 1 123 1 view .LVU25
 124              		@ sp needed
 125 000c 7047     		bx	lr
 126              	.L7:
 127 000e C046     		.align	2
 128              	.L6:
 129 0010 7F400000 		.word	16511
 130              		.cfi_endproc
 131              	.LFE42:
 133              		.section	.text.USB_SetCurrentMode,"ax",%progbits
 134              		.align	1
 135              		.global	USB_SetCurrentMode
 136              		.syntax unified
 137              		.code	16
 138              		.thumb_func
 140              	USB_SetCurrentMode:
 141              	.LVL7:
 142              	.LFB43:
 124:Drivers/STM32F0xx_HAL_Driver/Src/stm32f0xx_ll_usb.c **** 
 125:Drivers/STM32F0xx_HAL_Driver/Src/stm32f0xx_ll_usb.c **** /**
 126:Drivers/STM32F0xx_HAL_Driver/Src/stm32f0xx_ll_usb.c ****   * @brief  USB_SetCurrentMode Set functional mode
 127:Drivers/STM32F0xx_HAL_Driver/Src/stm32f0xx_ll_usb.c ****   * @param  USBx Selected device
 128:Drivers/STM32F0xx_HAL_Driver/Src/stm32f0xx_ll_usb.c ****   * @param  mode current core mode
 129:Drivers/STM32F0xx_HAL_Driver/Src/stm32f0xx_ll_usb.c ****   *          This parameter can be one of the these values:
 130:Drivers/STM32F0xx_HAL_Driver/Src/stm32f0xx_ll_usb.c ****   *            @arg USB_DEVICE_MODE Peripheral mode
 131:Drivers/STM32F0xx_HAL_Driver/Src/stm32f0xx_ll_usb.c ****   * @retval HAL status
 132:Drivers/STM32F0xx_HAL_Driver/Src/stm32f0xx_ll_usb.c ****   */
 133:Drivers/STM32F0xx_HAL_Driver/Src/stm32f0xx_ll_usb.c **** HAL_StatusTypeDef USB_SetCurrentMode(USB_TypeDef *USBx, USB_ModeTypeDef mode)
 134:Drivers/STM32F0xx_HAL_Driver/Src/stm32f0xx_ll_usb.c **** {
 143              		.loc 1 134 1 is_stmt 1 view -0
 144              		.cfi_startproc
 145              		@ args = 0, pretend = 0, frame = 0
 146              		@ frame_needed = 0, uses_anonymous_args = 0
 147              		@ link register save eliminated.
 135:Drivers/STM32F0xx_HAL_Driver/Src/stm32f0xx_ll_usb.c ****   /* Prevent unused argument(s) compilation warning */
 136:Drivers/STM32F0xx_HAL_Driver/Src/stm32f0xx_ll_usb.c ****   UNUSED(USBx);
 148              		.loc 1 136 3 view .LVU27
 137:Drivers/STM32F0xx_HAL_Driver/Src/stm32f0xx_ll_usb.c ****   UNUSED(mode);
 149              		.loc 1 137 3 view .LVU28
 138:Drivers/STM32F0xx_HAL_Driver/Src/stm32f0xx_ll_usb.c **** 
 139:Drivers/STM32F0xx_HAL_Driver/Src/stm32f0xx_ll_usb.c ****   /* NOTE : - This function is not required by USB Device FS peripheral, it is used
 140:Drivers/STM32F0xx_HAL_Driver/Src/stm32f0xx_ll_usb.c ****               only by USB OTG FS peripheral.
 141:Drivers/STM32F0xx_HAL_Driver/Src/stm32f0xx_ll_usb.c ****             - This function is added to ensure compatibility across platforms.
 142:Drivers/STM32F0xx_HAL_Driver/Src/stm32f0xx_ll_usb.c ****    */
 143:Drivers/STM32F0xx_HAL_Driver/Src/stm32f0xx_ll_usb.c ****   return HAL_OK;
ARM GAS  C:\Users\Daniel\AppData\Local\Temp\ccnluvCc.s 			page 6


 150              		.loc 1 143 3 view .LVU29
 144:Drivers/STM32F0xx_HAL_Driver/Src/stm32f0xx_ll_usb.c **** }
 151              		.loc 1 144 1 is_stmt 0 view .LVU30
 152 0000 0020     		movs	r0, #0
 153              	.LVL8:
 154              		.loc 1 144 1 view .LVU31
 155              		@ sp needed
 156 0002 7047     		bx	lr
 157              		.cfi_endproc
 158              	.LFE43:
 160              		.section	.text.USB_DevInit,"ax",%progbits
 161              		.align	1
 162              		.global	USB_DevInit
 163              		.syntax unified
 164              		.code	16
 165              		.thumb_func
 167              	USB_DevInit:
 168              	.LVL9:
 169              	.LFB44:
 145:Drivers/STM32F0xx_HAL_Driver/Src/stm32f0xx_ll_usb.c **** 
 146:Drivers/STM32F0xx_HAL_Driver/Src/stm32f0xx_ll_usb.c **** /**
 147:Drivers/STM32F0xx_HAL_Driver/Src/stm32f0xx_ll_usb.c ****   * @brief  USB_DevInit Initializes the USB controller registers
 148:Drivers/STM32F0xx_HAL_Driver/Src/stm32f0xx_ll_usb.c ****   *         for device mode
 149:Drivers/STM32F0xx_HAL_Driver/Src/stm32f0xx_ll_usb.c ****   * @param  USBx Selected device
 150:Drivers/STM32F0xx_HAL_Driver/Src/stm32f0xx_ll_usb.c ****   * @param  cfg  pointer to a USB_CfgTypeDef structure that contains
 151:Drivers/STM32F0xx_HAL_Driver/Src/stm32f0xx_ll_usb.c ****   *         the configuration information for the specified USBx peripheral.
 152:Drivers/STM32F0xx_HAL_Driver/Src/stm32f0xx_ll_usb.c ****   * @retval HAL status
 153:Drivers/STM32F0xx_HAL_Driver/Src/stm32f0xx_ll_usb.c ****   */
 154:Drivers/STM32F0xx_HAL_Driver/Src/stm32f0xx_ll_usb.c **** HAL_StatusTypeDef USB_DevInit(USB_TypeDef *USBx, USB_CfgTypeDef cfg)
 155:Drivers/STM32F0xx_HAL_Driver/Src/stm32f0xx_ll_usb.c **** {
 170              		.loc 1 155 1 is_stmt 1 view -0
 171              		.cfi_startproc
 172              		@ args = 36, pretend = 16, frame = 0
 173              		@ frame_needed = 0, uses_anonymous_args = 0
 174              		@ link register save eliminated.
 175              		.loc 1 155 1 is_stmt 0 view .LVU33
 176 0000 84B0     		sub	sp, sp, #16
 177              		.cfi_def_cfa_offset 16
 178 0002 0191     		str	r1, [sp, #4]
 179 0004 0292     		str	r2, [sp, #8]
 180 0006 0393     		str	r3, [sp, #12]
 156:Drivers/STM32F0xx_HAL_Driver/Src/stm32f0xx_ll_usb.c ****   /* Prevent unused argument(s) compilation warning */
 157:Drivers/STM32F0xx_HAL_Driver/Src/stm32f0xx_ll_usb.c ****   UNUSED(cfg);
 181              		.loc 1 157 3 is_stmt 1 view .LVU34
 158:Drivers/STM32F0xx_HAL_Driver/Src/stm32f0xx_ll_usb.c **** 
 159:Drivers/STM32F0xx_HAL_Driver/Src/stm32f0xx_ll_usb.c ****   /* Init Device */
 160:Drivers/STM32F0xx_HAL_Driver/Src/stm32f0xx_ll_usb.c ****   /* CNTR_FRES = 1 */
 161:Drivers/STM32F0xx_HAL_Driver/Src/stm32f0xx_ll_usb.c ****   USBx->CNTR = (uint16_t)USB_CNTR_FRES;
 182              		.loc 1 161 3 view .LVU35
 183              		.loc 1 161 14 is_stmt 0 view .LVU36
 184 0008 4022     		movs	r2, #64
 185 000a 0123     		movs	r3, #1
 186 000c 8352     		strh	r3, [r0, r2]
 162:Drivers/STM32F0xx_HAL_Driver/Src/stm32f0xx_ll_usb.c **** 
 163:Drivers/STM32F0xx_HAL_Driver/Src/stm32f0xx_ll_usb.c ****   /* CNTR_FRES = 0 */
 164:Drivers/STM32F0xx_HAL_Driver/Src/stm32f0xx_ll_usb.c ****   USBx->CNTR = 0U;
 187              		.loc 1 164 3 is_stmt 1 view .LVU37
ARM GAS  C:\Users\Daniel\AppData\Local\Temp\ccnluvCc.s 			page 7


 188              		.loc 1 164 14 is_stmt 0 view .LVU38
 189 000e 0023     		movs	r3, #0
 190 0010 8352     		strh	r3, [r0, r2]
 165:Drivers/STM32F0xx_HAL_Driver/Src/stm32f0xx_ll_usb.c **** 
 166:Drivers/STM32F0xx_HAL_Driver/Src/stm32f0xx_ll_usb.c ****   /* Clear pending interrupts */
 167:Drivers/STM32F0xx_HAL_Driver/Src/stm32f0xx_ll_usb.c ****   USBx->ISTR = 0U;
 191              		.loc 1 167 3 is_stmt 1 view .LVU39
 192              		.loc 1 167 14 is_stmt 0 view .LVU40
 193 0012 0432     		adds	r2, r2, #4
 194 0014 8352     		strh	r3, [r0, r2]
 168:Drivers/STM32F0xx_HAL_Driver/Src/stm32f0xx_ll_usb.c **** 
 169:Drivers/STM32F0xx_HAL_Driver/Src/stm32f0xx_ll_usb.c ****   /*Set Btable Address*/
 170:Drivers/STM32F0xx_HAL_Driver/Src/stm32f0xx_ll_usb.c ****   USBx->BTABLE = BTABLE_ADDRESS;
 195              		.loc 1 170 3 is_stmt 1 view .LVU41
 196              		.loc 1 170 16 is_stmt 0 view .LVU42
 197 0016 0C32     		adds	r2, r2, #12
 198 0018 8352     		strh	r3, [r0, r2]
 171:Drivers/STM32F0xx_HAL_Driver/Src/stm32f0xx_ll_usb.c **** 
 172:Drivers/STM32F0xx_HAL_Driver/Src/stm32f0xx_ll_usb.c ****   return HAL_OK;
 199              		.loc 1 172 3 is_stmt 1 view .LVU43
 173:Drivers/STM32F0xx_HAL_Driver/Src/stm32f0xx_ll_usb.c **** }
 200              		.loc 1 173 1 is_stmt 0 view .LVU44
 201 001a 0020     		movs	r0, #0
 202              	.LVL10:
 203              		.loc 1 173 1 view .LVU45
 204              		@ sp needed
 205 001c 04B0     		add	sp, sp, #16
 206 001e 7047     		bx	lr
 207              		.cfi_endproc
 208              	.LFE44:
 210              		.section	.text.USB_ActivateEndpoint,"ax",%progbits
 211              		.align	1
 212              		.global	USB_ActivateEndpoint
 213              		.syntax unified
 214              		.code	16
 215              		.thumb_func
 217              	USB_ActivateEndpoint:
 218              	.LVL11:
 219              	.LFB45:
 174:Drivers/STM32F0xx_HAL_Driver/Src/stm32f0xx_ll_usb.c **** 
 175:Drivers/STM32F0xx_HAL_Driver/Src/stm32f0xx_ll_usb.c **** #if defined (HAL_PCD_MODULE_ENABLED)
 176:Drivers/STM32F0xx_HAL_Driver/Src/stm32f0xx_ll_usb.c **** /**
 177:Drivers/STM32F0xx_HAL_Driver/Src/stm32f0xx_ll_usb.c ****   * @brief  Activate and configure an endpoint
 178:Drivers/STM32F0xx_HAL_Driver/Src/stm32f0xx_ll_usb.c ****   * @param  USBx Selected device
 179:Drivers/STM32F0xx_HAL_Driver/Src/stm32f0xx_ll_usb.c ****   * @param  ep pointer to endpoint structure
 180:Drivers/STM32F0xx_HAL_Driver/Src/stm32f0xx_ll_usb.c ****   * @retval HAL status
 181:Drivers/STM32F0xx_HAL_Driver/Src/stm32f0xx_ll_usb.c ****   */
 182:Drivers/STM32F0xx_HAL_Driver/Src/stm32f0xx_ll_usb.c **** HAL_StatusTypeDef USB_ActivateEndpoint(USB_TypeDef *USBx, USB_EPTypeDef *ep)
 183:Drivers/STM32F0xx_HAL_Driver/Src/stm32f0xx_ll_usb.c **** {
 220              		.loc 1 183 1 is_stmt 1 view -0
 221              		.cfi_startproc
 222              		@ args = 0, pretend = 0, frame = 0
 223              		@ frame_needed = 0, uses_anonymous_args = 0
 224              		.loc 1 183 1 is_stmt 0 view .LVU47
 225 0000 F0B5     		push	{r4, r5, r6, r7, lr}
 226              		.cfi_def_cfa_offset 20
 227              		.cfi_offset 4, -20
ARM GAS  C:\Users\Daniel\AppData\Local\Temp\ccnluvCc.s 			page 8


 228              		.cfi_offset 5, -16
 229              		.cfi_offset 6, -12
 230              		.cfi_offset 7, -8
 231              		.cfi_offset 14, -4
 232 0002 0300     		movs	r3, r0
 184:Drivers/STM32F0xx_HAL_Driver/Src/stm32f0xx_ll_usb.c ****   HAL_StatusTypeDef ret = HAL_OK;
 233              		.loc 1 184 3 is_stmt 1 view .LVU48
 234              	.LVL12:
 185:Drivers/STM32F0xx_HAL_Driver/Src/stm32f0xx_ll_usb.c ****   uint16_t wEpRegVal;
 235              		.loc 1 185 3 view .LVU49
 186:Drivers/STM32F0xx_HAL_Driver/Src/stm32f0xx_ll_usb.c **** 
 187:Drivers/STM32F0xx_HAL_Driver/Src/stm32f0xx_ll_usb.c ****   wEpRegVal = PCD_GET_ENDPOINT(USBx, ep->num) & USB_EP_T_MASK;
 236              		.loc 1 187 3 view .LVU50
 237              		.loc 1 187 15 is_stmt 0 view .LVU51
 238 0004 0D78     		ldrb	r5, [r1]
 239 0006 AD00     		lsls	r5, r5, #2
 240 0008 4519     		adds	r5, r0, r5
 241              		.loc 1 187 47 view .LVU52
 242 000a 2A88     		ldrh	r2, [r5]
 243              		.loc 1 187 13 view .LVU53
 244 000c B948     		ldr	r0, .L49
 245              	.LVL13:
 246              		.loc 1 187 13 view .LVU54
 247 000e 0240     		ands	r2, r0
 248              	.LVL14:
 188:Drivers/STM32F0xx_HAL_Driver/Src/stm32f0xx_ll_usb.c **** 
 189:Drivers/STM32F0xx_HAL_Driver/Src/stm32f0xx_ll_usb.c ****   /* initialize Endpoint */
 190:Drivers/STM32F0xx_HAL_Driver/Src/stm32f0xx_ll_usb.c ****   switch (ep->type)
 249              		.loc 1 190 3 is_stmt 1 view .LVU55
 250              		.loc 1 190 13 is_stmt 0 view .LVU56
 251 0010 C878     		ldrb	r0, [r1, #3]
 252              		.loc 1 190 3 view .LVU57
 253 0012 0228     		cmp	r0, #2
 254 0014 57D0     		beq	.L37
 255 0016 0AD8     		bhi	.L12
 256 0018 0028     		cmp	r0, #0
 257 001a 50D0     		beq	.L13
 258 001c 0128     		cmp	r0, #1
 259 001e 04D1     		bne	.L46
 191:Drivers/STM32F0xx_HAL_Driver/Src/stm32f0xx_ll_usb.c ****   {
 192:Drivers/STM32F0xx_HAL_Driver/Src/stm32f0xx_ll_usb.c ****     case EP_TYPE_CTRL:
 193:Drivers/STM32F0xx_HAL_Driver/Src/stm32f0xx_ll_usb.c ****       wEpRegVal |= USB_EP_CONTROL;
 194:Drivers/STM32F0xx_HAL_Driver/Src/stm32f0xx_ll_usb.c ****       break;
 195:Drivers/STM32F0xx_HAL_Driver/Src/stm32f0xx_ll_usb.c **** 
 196:Drivers/STM32F0xx_HAL_Driver/Src/stm32f0xx_ll_usb.c ****     case EP_TYPE_BULK:
 197:Drivers/STM32F0xx_HAL_Driver/Src/stm32f0xx_ll_usb.c ****       wEpRegVal |= USB_EP_BULK;
 198:Drivers/STM32F0xx_HAL_Driver/Src/stm32f0xx_ll_usb.c ****       break;
 199:Drivers/STM32F0xx_HAL_Driver/Src/stm32f0xx_ll_usb.c **** 
 200:Drivers/STM32F0xx_HAL_Driver/Src/stm32f0xx_ll_usb.c ****     case EP_TYPE_INTR:
 201:Drivers/STM32F0xx_HAL_Driver/Src/stm32f0xx_ll_usb.c ****       wEpRegVal |= USB_EP_INTERRUPT;
 202:Drivers/STM32F0xx_HAL_Driver/Src/stm32f0xx_ll_usb.c ****       break;
 203:Drivers/STM32F0xx_HAL_Driver/Src/stm32f0xx_ll_usb.c **** 
 204:Drivers/STM32F0xx_HAL_Driver/Src/stm32f0xx_ll_usb.c ****     case EP_TYPE_ISOC:
 205:Drivers/STM32F0xx_HAL_Driver/Src/stm32f0xx_ll_usb.c ****       wEpRegVal |= USB_EP_ISOCHRONOUS;
 260              		.loc 1 205 7 is_stmt 1 view .LVU58
 261              		.loc 1 205 17 is_stmt 0 view .LVU59
 262 0020 8020     		movs	r0, #128
ARM GAS  C:\Users\Daniel\AppData\Local\Temp\ccnluvCc.s 			page 9


 263 0022 C000     		lsls	r0, r0, #3
 264 0024 0243     		orrs	r2, r0
 265              	.LVL15:
 206:Drivers/STM32F0xx_HAL_Driver/Src/stm32f0xx_ll_usb.c ****       break;
 266              		.loc 1 206 7 is_stmt 1 view .LVU60
 184:Drivers/STM32F0xx_HAL_Driver/Src/stm32f0xx_ll_usb.c ****   uint16_t wEpRegVal;
 267              		.loc 1 184 21 is_stmt 0 view .LVU61
 268 0026 0020     		movs	r0, #0
 269              		.loc 1 206 7 view .LVU62
 270 0028 09E0     		b	.L11
 271              	.L46:
 207:Drivers/STM32F0xx_HAL_Driver/Src/stm32f0xx_ll_usb.c **** 
 208:Drivers/STM32F0xx_HAL_Driver/Src/stm32f0xx_ll_usb.c ****     default:
 209:Drivers/STM32F0xx_HAL_Driver/Src/stm32f0xx_ll_usb.c ****       ret = HAL_ERROR;
 272              		.loc 1 209 11 view .LVU63
 273 002a 0120     		movs	r0, #1
 274 002c 07E0     		b	.L11
 275              	.L12:
 190:Drivers/STM32F0xx_HAL_Driver/Src/stm32f0xx_ll_usb.c ****   {
 276              		.loc 1 190 3 view .LVU64
 277 002e 0328     		cmp	r0, #3
 278 0030 04D1     		bne	.L47
 201:Drivers/STM32F0xx_HAL_Driver/Src/stm32f0xx_ll_usb.c ****       break;
 279              		.loc 1 201 7 is_stmt 1 view .LVU65
 201:Drivers/STM32F0xx_HAL_Driver/Src/stm32f0xx_ll_usb.c ****       break;
 280              		.loc 1 201 17 is_stmt 0 view .LVU66
 281 0032 C020     		movs	r0, #192
 282 0034 C000     		lsls	r0, r0, #3
 283 0036 0243     		orrs	r2, r0
 284              	.LVL16:
 202:Drivers/STM32F0xx_HAL_Driver/Src/stm32f0xx_ll_usb.c **** 
 285              		.loc 1 202 7 is_stmt 1 view .LVU67
 184:Drivers/STM32F0xx_HAL_Driver/Src/stm32f0xx_ll_usb.c ****   uint16_t wEpRegVal;
 286              		.loc 1 184 21 is_stmt 0 view .LVU68
 287 0038 0020     		movs	r0, #0
 202:Drivers/STM32F0xx_HAL_Driver/Src/stm32f0xx_ll_usb.c **** 
 288              		.loc 1 202 7 view .LVU69
 289 003a 00E0     		b	.L11
 290              	.L47:
 291              		.loc 1 209 11 view .LVU70
 292 003c 0120     		movs	r0, #1
 293              	.L11:
 294              	.LVL17:
 210:Drivers/STM32F0xx_HAL_Driver/Src/stm32f0xx_ll_usb.c ****       break;
 211:Drivers/STM32F0xx_HAL_Driver/Src/stm32f0xx_ll_usb.c ****   }
 212:Drivers/STM32F0xx_HAL_Driver/Src/stm32f0xx_ll_usb.c **** 
 213:Drivers/STM32F0xx_HAL_Driver/Src/stm32f0xx_ll_usb.c ****   PCD_SET_ENDPOINT(USBx, ep->num, (wEpRegVal | USB_EP_CTR_RX | USB_EP_CTR_TX));
 295              		.loc 1 213 3 is_stmt 1 view .LVU71
 296 003e AE4C     		ldr	r4, .L49+4
 297 0040 2243     		orrs	r2, r4
 298              	.LVL18:
 299              		.loc 1 213 3 is_stmt 0 view .LVU72
 300 0042 92B2     		uxth	r2, r2
 301 0044 2A80     		strh	r2, [r5]
 214:Drivers/STM32F0xx_HAL_Driver/Src/stm32f0xx_ll_usb.c **** 
 215:Drivers/STM32F0xx_HAL_Driver/Src/stm32f0xx_ll_usb.c ****   PCD_SET_EP_ADDRESS(USBx, ep->num, ep->num);
 302              		.loc 1 215 3 is_stmt 1 view .LVU73
ARM GAS  C:\Users\Daniel\AppData\Local\Temp\ccnluvCc.s 			page 10


 303              	.LBB2:
 304              		.loc 1 215 3 view .LVU74
 305              		.loc 1 215 3 view .LVU75
 306 0046 0D78     		ldrb	r5, [r1]
 307 0048 AA00     		lsls	r2, r5, #2
 308 004a 9A18     		adds	r2, r3, r2
 309 004c 1688     		ldrh	r6, [r2]
 310 004e AB4F     		ldr	r7, .L49+8
 311 0050 3E40     		ands	r6, r7
 312 0052 3543     		orrs	r5, r6
 313              	.LVL19:
 314              		.loc 1 215 3 view .LVU76
 315 0054 2C43     		orrs	r4, r5
 316 0056 A4B2     		uxth	r4, r4
 317 0058 1480     		strh	r4, [r2]
 318              	.LBE2:
 319              		.loc 1 215 3 view .LVU77
 216:Drivers/STM32F0xx_HAL_Driver/Src/stm32f0xx_ll_usb.c **** 
 217:Drivers/STM32F0xx_HAL_Driver/Src/stm32f0xx_ll_usb.c ****   if (ep->doublebuffer == 0U)
 320              		.loc 1 217 3 view .LVU78
 321              		.loc 1 217 9 is_stmt 0 view .LVU79
 322 005a 0A7B     		ldrb	r2, [r1, #12]
 323              		.loc 1 217 6 view .LVU80
 324 005c 002A     		cmp	r2, #0
 325 005e 00D0     		beq	.LCB248
 326 0060 A2E0     		b	.L16	@long jump
 327              	.LCB248:
 218:Drivers/STM32F0xx_HAL_Driver/Src/stm32f0xx_ll_usb.c ****   {
 219:Drivers/STM32F0xx_HAL_Driver/Src/stm32f0xx_ll_usb.c ****     if (ep->is_in != 0U)
 328              		.loc 1 219 5 is_stmt 1 view .LVU81
 329              		.loc 1 219 11 is_stmt 0 view .LVU82
 330 0062 4A78     		ldrb	r2, [r1, #1]
 331              		.loc 1 219 8 view .LVU83
 332 0064 002A     		cmp	r2, #0
 333 0066 3BD0     		beq	.L17
 220:Drivers/STM32F0xx_HAL_Driver/Src/stm32f0xx_ll_usb.c ****     {
 221:Drivers/STM32F0xx_HAL_Driver/Src/stm32f0xx_ll_usb.c ****       /*Set the endpoint Transmit buffer address */
 222:Drivers/STM32F0xx_HAL_Driver/Src/stm32f0xx_ll_usb.c ****       PCD_SET_EP_TX_ADDRESS(USBx, ep->num, ep->pmaadress);
 334              		.loc 1 222 7 is_stmt 1 view .LVU84
 335              	.LBB3:
 336              		.loc 1 222 7 view .LVU85
 337              		.loc 1 222 7 view .LVU86
 338              	.LVL20:
 339              		.loc 1 222 7 view .LVU87
 340 0068 5022     		movs	r2, #80
 341 006a 9C5A     		ldrh	r4, [r3, r2]
 342 006c 1C19     		adds	r4, r3, r4
 343              	.LVL21:
 344              		.loc 1 222 7 view .LVU88
 345 006e 0A78     		ldrb	r2, [r1]
 346 0070 D200     		lsls	r2, r2, #3
 347 0072 1219     		adds	r2, r2, r4
 348 0074 8024     		movs	r4, #128
 349              	.LVL22:
 350              		.loc 1 222 7 is_stmt 0 view .LVU89
 351 0076 E400     		lsls	r4, r4, #3
 352 0078 A446     		mov	ip, r4
ARM GAS  C:\Users\Daniel\AppData\Local\Temp\ccnluvCc.s 			page 11


 353 007a 6244     		add	r2, r2, ip
 354              	.LVL23:
 355              		.loc 1 222 7 is_stmt 1 view .LVU90
 356 007c CC88     		ldrh	r4, [r1, #6]
 357 007e 6408     		lsrs	r4, r4, #1
 358 0080 6400     		lsls	r4, r4, #1
 359 0082 1480     		strh	r4, [r2]
 360              	.LBE3:
 361              		.loc 1 222 7 view .LVU91
 223:Drivers/STM32F0xx_HAL_Driver/Src/stm32f0xx_ll_usb.c ****       PCD_CLEAR_TX_DTOG(USBx, ep->num);
 362              		.loc 1 223 7 view .LVU92
 363              	.LBB4:
 364              		.loc 1 223 7 view .LVU93
 365              		.loc 1 223 7 view .LVU94
 366 0084 0A78     		ldrb	r2, [r1]
 367              	.LVL24:
 368              		.loc 1 223 7 is_stmt 0 view .LVU95
 369 0086 9200     		lsls	r2, r2, #2
 370 0088 9A18     		adds	r2, r3, r2
 371 008a 1488     		ldrh	r4, [r2]
 372              	.LVL25:
 373              		.loc 1 223 7 is_stmt 1 view .LVU96
 374 008c 6406     		lsls	r4, r4, #25
 375 008e 05D5     		bpl	.L18
 376              	.LVL26:
 377              		.loc 1 223 7 discriminator 1 view .LVU97
 378              	.LBB5:
 379              		.loc 1 223 7 discriminator 1 view .LVU98
 380              		.loc 1 223 7 discriminator 1 view .LVU99
 381 0090 1588     		ldrh	r5, [r2]
 382              	.LVL27:
 383              		.loc 1 223 7 is_stmt 0 discriminator 1 view .LVU100
 384 0092 3D40     		ands	r5, r7
 385              	.LVL28:
 386              		.loc 1 223 7 is_stmt 1 discriminator 1 view .LVU101
 387 0094 9A4C     		ldr	r4, .L49+12
 388 0096 2C43     		orrs	r4, r5
 389 0098 A4B2     		uxth	r4, r4
 390 009a 1480     		strh	r4, [r2]
 391              	.LVL29:
 392              	.L18:
 393              		.loc 1 223 7 is_stmt 0 discriminator 1 view .LVU102
 394              	.LBE5:
 395              		.loc 1 223 7 is_stmt 1 discriminator 3 view .LVU103
 396              	.LBE4:
 397              		.loc 1 223 7 discriminator 3 view .LVU104
 224:Drivers/STM32F0xx_HAL_Driver/Src/stm32f0xx_ll_usb.c **** 
 225:Drivers/STM32F0xx_HAL_Driver/Src/stm32f0xx_ll_usb.c ****       if (ep->type != EP_TYPE_ISOC)
 398              		.loc 1 225 7 discriminator 3 view .LVU105
 399              		.loc 1 225 13 is_stmt 0 discriminator 3 view .LVU106
 400 009c CA78     		ldrb	r2, [r1, #3]
 401              		.loc 1 225 10 discriminator 3 view .LVU107
 402 009e 012A     		cmp	r2, #1
 403 00a0 13D0     		beq	.L19
 226:Drivers/STM32F0xx_HAL_Driver/Src/stm32f0xx_ll_usb.c ****       {
 227:Drivers/STM32F0xx_HAL_Driver/Src/stm32f0xx_ll_usb.c ****         /* Configure NAK status for the Endpoint */
 228:Drivers/STM32F0xx_HAL_Driver/Src/stm32f0xx_ll_usb.c ****         PCD_SET_EP_TX_STATUS(USBx, ep->num, USB_EP_TX_NAK);
ARM GAS  C:\Users\Daniel\AppData\Local\Temp\ccnluvCc.s 			page 12


 404              		.loc 1 228 9 is_stmt 1 view .LVU108
 405              	.LBB6:
 406              		.loc 1 228 9 view .LVU109
 407              		.loc 1 228 9 view .LVU110
 408 00a2 0A78     		ldrb	r2, [r1]
 409 00a4 9200     		lsls	r2, r2, #2
 410 00a6 9A18     		adds	r2, r3, r2
 411 00a8 1388     		ldrh	r3, [r2]
 412              	.LVL30:
 413              		.loc 1 228 9 is_stmt 0 view .LVU111
 414 00aa 9649     		ldr	r1, .L49+16
 415              	.LVL31:
 416              		.loc 1 228 9 view .LVU112
 417 00ac 0B40     		ands	r3, r1
 418              	.LVL32:
 419              		.loc 1 228 9 is_stmt 1 view .LVU113
 420              		.loc 1 228 9 view .LVU114
 421              		.loc 1 228 9 view .LVU115
 422 00ae 2021     		movs	r1, #32
 423 00b0 4B40     		eors	r3, r1
 424              	.LVL33:
 425              		.loc 1 228 9 is_stmt 0 view .LVU116
 426 00b2 9BB2     		uxth	r3, r3
 427              	.LVL34:
 428              		.loc 1 228 9 is_stmt 1 view .LVU117
 429 00b4 9049     		ldr	r1, .L49+4
 430 00b6 0B43     		orrs	r3, r1
 431              	.LVL35:
 432              		.loc 1 228 9 is_stmt 0 view .LVU118
 433 00b8 9BB2     		uxth	r3, r3
 434 00ba 1380     		strh	r3, [r2]
 435              	.LBE6:
 436              		.loc 1 228 9 is_stmt 1 view .LVU119
 437 00bc CEE0     		b	.L20
 438              	.LVL36:
 439              	.L13:
 193:Drivers/STM32F0xx_HAL_Driver/Src/stm32f0xx_ll_usb.c ****       break;
 440              		.loc 1 193 7 view .LVU120
 193:Drivers/STM32F0xx_HAL_Driver/Src/stm32f0xx_ll_usb.c ****       break;
 441              		.loc 1 193 17 is_stmt 0 view .LVU121
 442 00be 8024     		movs	r4, #128
 443 00c0 A400     		lsls	r4, r4, #2
 444 00c2 2243     		orrs	r2, r4
 445              	.LVL37:
 194:Drivers/STM32F0xx_HAL_Driver/Src/stm32f0xx_ll_usb.c **** 
 446              		.loc 1 194 7 is_stmt 1 view .LVU122
 447 00c4 BBE7     		b	.L11
 448              	.L37:
 190:Drivers/STM32F0xx_HAL_Driver/Src/stm32f0xx_ll_usb.c ****   {
 449              		.loc 1 190 3 is_stmt 0 view .LVU123
 450 00c6 0020     		movs	r0, #0
 451 00c8 B9E7     		b	.L11
 452              	.LVL38:
 453              	.L19:
 229:Drivers/STM32F0xx_HAL_Driver/Src/stm32f0xx_ll_usb.c ****       }
 230:Drivers/STM32F0xx_HAL_Driver/Src/stm32f0xx_ll_usb.c ****       else
 231:Drivers/STM32F0xx_HAL_Driver/Src/stm32f0xx_ll_usb.c ****       {
ARM GAS  C:\Users\Daniel\AppData\Local\Temp\ccnluvCc.s 			page 13


 232:Drivers/STM32F0xx_HAL_Driver/Src/stm32f0xx_ll_usb.c ****         /* Configure TX Endpoint to disabled state */
 233:Drivers/STM32F0xx_HAL_Driver/Src/stm32f0xx_ll_usb.c ****         PCD_SET_EP_TX_STATUS(USBx, ep->num, USB_EP_TX_DIS);
 454              		.loc 1 233 9 is_stmt 1 view .LVU124
 455              	.LBB7:
 456              		.loc 1 233 9 view .LVU125
 457              		.loc 1 233 9 view .LVU126
 458 00ca 0A78     		ldrb	r2, [r1]
 459 00cc 9200     		lsls	r2, r2, #2
 460 00ce 9B18     		adds	r3, r3, r2
 461              	.LVL39:
 462              		.loc 1 233 9 is_stmt 0 view .LVU127
 463 00d0 1988     		ldrh	r1, [r3]
 464              	.LVL40:
 465              		.loc 1 233 9 view .LVU128
 466 00d2 8C4A     		ldr	r2, .L49+16
 467 00d4 1140     		ands	r1, r2
 468              	.LVL41:
 469              		.loc 1 233 9 is_stmt 1 view .LVU129
 470              		.loc 1 233 9 view .LVU130
 471              		.loc 1 233 9 view .LVU131
 472 00d6 884A     		ldr	r2, .L49+4
 473 00d8 0A43     		orrs	r2, r1
 474 00da 92B2     		uxth	r2, r2
 475 00dc 1A80     		strh	r2, [r3]
 476 00de BDE0     		b	.L20
 477              	.LVL42:
 478              	.L17:
 479              		.loc 1 233 9 is_stmt 0 view .LVU132
 480              	.LBE7:
 234:Drivers/STM32F0xx_HAL_Driver/Src/stm32f0xx_ll_usb.c ****       }
 235:Drivers/STM32F0xx_HAL_Driver/Src/stm32f0xx_ll_usb.c ****     }
 236:Drivers/STM32F0xx_HAL_Driver/Src/stm32f0xx_ll_usb.c ****     else
 237:Drivers/STM32F0xx_HAL_Driver/Src/stm32f0xx_ll_usb.c ****     {
 238:Drivers/STM32F0xx_HAL_Driver/Src/stm32f0xx_ll_usb.c ****       /* Set the endpoint Receive buffer address */
 239:Drivers/STM32F0xx_HAL_Driver/Src/stm32f0xx_ll_usb.c ****       PCD_SET_EP_RX_ADDRESS(USBx, ep->num, ep->pmaadress);
 481              		.loc 1 239 7 is_stmt 1 view .LVU133
 482              	.LBB8:
 483              		.loc 1 239 7 view .LVU134
 484              		.loc 1 239 7 view .LVU135
 485              		.loc 1 239 7 view .LVU136
 486 00e0 5025     		movs	r5, #80
 487              	.LVL43:
 488              		.loc 1 239 7 is_stmt 0 view .LVU137
 489 00e2 5C5B     		ldrh	r4, [r3, r5]
 490 00e4 1C19     		adds	r4, r3, r4
 491              	.LVL44:
 492              		.loc 1 239 7 is_stmt 1 view .LVU138
 493 00e6 0A78     		ldrb	r2, [r1]
 494 00e8 D200     		lsls	r2, r2, #3
 495 00ea 1219     		adds	r2, r2, r4
 496 00ec 864C     		ldr	r4, .L49+20
 497              	.LVL45:
 498              		.loc 1 239 7 is_stmt 0 view .LVU139
 499 00ee A446     		mov	ip, r4
 500 00f0 6244     		add	r2, r2, ip
 501              	.LVL46:
 502              		.loc 1 239 7 is_stmt 1 view .LVU140
ARM GAS  C:\Users\Daniel\AppData\Local\Temp\ccnluvCc.s 			page 14


 503 00f2 CC88     		ldrh	r4, [r1, #6]
 504 00f4 6408     		lsrs	r4, r4, #1
 505 00f6 6400     		lsls	r4, r4, #1
 506 00f8 1480     		strh	r4, [r2]
 507              	.LBE8:
 508              		.loc 1 239 7 view .LVU141
 240:Drivers/STM32F0xx_HAL_Driver/Src/stm32f0xx_ll_usb.c **** 
 241:Drivers/STM32F0xx_HAL_Driver/Src/stm32f0xx_ll_usb.c ****       /* Set the endpoint Receive buffer counter */
 242:Drivers/STM32F0xx_HAL_Driver/Src/stm32f0xx_ll_usb.c ****       PCD_SET_EP_RX_CNT(USBx, ep->num, ep->maxpacket);
 509              		.loc 1 242 7 view .LVU142
 510              	.LBB9:
 511              		.loc 1 242 7 view .LVU143
 512              	.LVL47:
 513              		.loc 1 242 7 view .LVU144
 514              		.loc 1 242 7 view .LVU145
 515 00fa 5C5B     		ldrh	r4, [r3, r5]
 516 00fc 1C19     		adds	r4, r3, r4
 517              	.LVL48:
 518              		.loc 1 242 7 view .LVU146
 519 00fe 0A78     		ldrb	r2, [r1]
 520              	.LVL49:
 521              		.loc 1 242 7 is_stmt 0 view .LVU147
 522 0100 D200     		lsls	r2, r2, #3
 523 0102 1219     		adds	r2, r2, r4
 524 0104 814C     		ldr	r4, .L49+24
 525              	.LVL50:
 526              		.loc 1 242 7 view .LVU148
 527 0106 A446     		mov	ip, r4
 528 0108 6244     		add	r2, r2, ip
 529              	.LVL51:
 530              		.loc 1 242 7 is_stmt 1 view .LVU149
 531              	.LBB10:
 532              		.loc 1 242 7 view .LVU150
 533              		.loc 1 242 7 view .LVU151
 534 010a 1488     		ldrh	r4, [r2]
 535 010c A405     		lsls	r4, r4, #22
 536 010e A40D     		lsrs	r4, r4, #22
 537 0110 1480     		strh	r4, [r2]
 538              		.loc 1 242 7 view .LVU152
 539 0112 0C69     		ldr	r4, [r1, #16]
 540 0114 3E2C     		cmp	r4, #62
 541 0116 28D9     		bls	.L21
 542              		.loc 1 242 7 discriminator 1 view .LVU153
 543              		.loc 1 242 7 discriminator 1 view .LVU154
 544 0118 6509     		lsrs	r5, r4, #5
 545              	.LVL52:
 546              		.loc 1 242 7 discriminator 1 view .LVU155
 547 011a E406     		lsls	r4, r4, #27
 548 011c 00D1     		bne	.L22
 549              		.loc 1 242 7 discriminator 3 view .LVU156
 550 011e 013D     		subs	r5, r5, #1
 551              	.LVL53:
 552              	.L22:
 553              		.loc 1 242 7 discriminator 5 view .LVU157
 554 0120 1488     		ldrh	r4, [r2]
 555 0122 AD02     		lsls	r5, r5, #10
 556              	.LVL54:
ARM GAS  C:\Users\Daniel\AppData\Local\Temp\ccnluvCc.s 			page 15


 557              		.loc 1 242 7 is_stmt 0 discriminator 5 view .LVU158
 558 0124 ADB2     		uxth	r5, r5
 559 0126 2543     		orrs	r5, r4
 560 0128 794C     		ldr	r4, .L49+28
 561 012a 2C43     		orrs	r4, r5
 562 012c A4B2     		uxth	r4, r4
 563 012e 1480     		strh	r4, [r2]
 564              		.loc 1 242 7 is_stmt 1 discriminator 5 view .LVU159
 565              	.LVL55:
 566              	.L23:
 567              		.loc 1 242 7 discriminator 13 view .LVU160
 568              	.LBE10:
 569              		.loc 1 242 7 discriminator 13 view .LVU161
 570              	.LBE9:
 571              		.loc 1 242 7 discriminator 13 view .LVU162
 243:Drivers/STM32F0xx_HAL_Driver/Src/stm32f0xx_ll_usb.c ****       PCD_CLEAR_RX_DTOG(USBx, ep->num);
 572              		.loc 1 243 7 discriminator 13 view .LVU163
 573              	.LBB12:
 574              		.loc 1 243 7 discriminator 13 view .LVU164
 575              		.loc 1 243 7 discriminator 13 view .LVU165
 576 0130 0A78     		ldrb	r2, [r1]
 577              	.LVL56:
 578              		.loc 1 243 7 is_stmt 0 discriminator 13 view .LVU166
 579 0132 9200     		lsls	r2, r2, #2
 580 0134 9A18     		adds	r2, r3, r2
 581 0136 1488     		ldrh	r4, [r2]
 582              	.LVL57:
 583              		.loc 1 243 7 is_stmt 1 discriminator 13 view .LVU167
 584 0138 6404     		lsls	r4, r4, #17
 585 013a 06D5     		bpl	.L26
 586              	.LVL58:
 587              		.loc 1 243 7 discriminator 1 view .LVU168
 588              	.LBB13:
 589              		.loc 1 243 7 discriminator 1 view .LVU169
 590              		.loc 1 243 7 discriminator 1 view .LVU170
 591 013c 1588     		ldrh	r5, [r2]
 592 013e 6F4C     		ldr	r4, .L49+8
 593 0140 2540     		ands	r5, r4
 594              	.LVL59:
 595              		.loc 1 243 7 discriminator 1 view .LVU171
 596 0142 744C     		ldr	r4, .L49+32
 597 0144 2C43     		orrs	r4, r5
 598 0146 A4B2     		uxth	r4, r4
 599 0148 1480     		strh	r4, [r2]
 600              	.LVL60:
 601              	.L26:
 602              		.loc 1 243 7 is_stmt 0 discriminator 1 view .LVU172
 603              	.LBE13:
 604              		.loc 1 243 7 is_stmt 1 discriminator 3 view .LVU173
 605              	.LBE12:
 606              		.loc 1 243 7 discriminator 3 view .LVU174
 244:Drivers/STM32F0xx_HAL_Driver/Src/stm32f0xx_ll_usb.c **** 
 245:Drivers/STM32F0xx_HAL_Driver/Src/stm32f0xx_ll_usb.c ****       if (ep->num == 0U)
 607              		.loc 1 245 7 discriminator 3 view .LVU175
 608              		.loc 1 245 13 is_stmt 0 discriminator 3 view .LVU176
 609 014a 0A78     		ldrb	r2, [r1]
 610              		.loc 1 245 10 discriminator 3 view .LVU177
ARM GAS  C:\Users\Daniel\AppData\Local\Temp\ccnluvCc.s 			page 16


 611 014c 002A     		cmp	r2, #0
 612 014e 1ED1     		bne	.L27
 246:Drivers/STM32F0xx_HAL_Driver/Src/stm32f0xx_ll_usb.c ****       {
 247:Drivers/STM32F0xx_HAL_Driver/Src/stm32f0xx_ll_usb.c ****         /* Configure VALID status for EP0 */
 248:Drivers/STM32F0xx_HAL_Driver/Src/stm32f0xx_ll_usb.c ****         PCD_SET_EP_RX_STATUS(USBx, ep->num, USB_EP_RX_VALID);
 613              		.loc 1 248 9 is_stmt 1 view .LVU178
 614              	.LBB14:
 615              		.loc 1 248 9 view .LVU179
 616              		.loc 1 248 9 view .LVU180
 617 0150 9200     		lsls	r2, r2, #2
 618 0152 9A18     		adds	r2, r3, r2
 619 0154 1388     		ldrh	r3, [r2]
 620              	.LVL61:
 621              		.loc 1 248 9 is_stmt 0 view .LVU181
 622 0156 7049     		ldr	r1, .L49+36
 623              	.LVL62:
 624              		.loc 1 248 9 view .LVU182
 625 0158 0B40     		ands	r3, r1
 626              	.LVL63:
 627              		.loc 1 248 9 is_stmt 1 view .LVU183
 628              		.loc 1 248 9 view .LVU184
 629              		.loc 1 248 9 view .LVU185
 630              		.loc 1 248 9 view .LVU186
 631 015a C021     		movs	r1, #192
 632 015c 8901     		lsls	r1, r1, #6
 633 015e 5940     		eors	r1, r3
 634              	.LVL64:
 635              		.loc 1 248 9 view .LVU187
 636 0160 654B     		ldr	r3, .L49+4
 637 0162 0B43     		orrs	r3, r1
 638 0164 9BB2     		uxth	r3, r3
 639 0166 1380     		strh	r3, [r2]
 640              	.LBE14:
 641              		.loc 1 248 9 view .LVU188
 642 0168 78E0     		b	.L20
 643              	.LVL65:
 644              	.L21:
 645              	.LBB15:
 646              	.LBB11:
 242:Drivers/STM32F0xx_HAL_Driver/Src/stm32f0xx_ll_usb.c ****       PCD_CLEAR_RX_DTOG(USBx, ep->num);
 647              		.loc 1 242 7 discriminator 2 view .LVU189
 648 016a 002C     		cmp	r4, #0
 649 016c 05D1     		bne	.L24
 242:Drivers/STM32F0xx_HAL_Driver/Src/stm32f0xx_ll_usb.c ****       PCD_CLEAR_RX_DTOG(USBx, ep->num);
 650              		.loc 1 242 7 discriminator 7 view .LVU190
 651 016e 1488     		ldrh	r4, [r2]
 652 0170 674D     		ldr	r5, .L49+28
 653 0172 2C43     		orrs	r4, r5
 654 0174 A4B2     		uxth	r4, r4
 655 0176 1480     		strh	r4, [r2]
 656 0178 DAE7     		b	.L23
 657              	.L24:
 242:Drivers/STM32F0xx_HAL_Driver/Src/stm32f0xx_ll_usb.c ****       PCD_CLEAR_RX_DTOG(USBx, ep->num);
 658              		.loc 1 242 7 discriminator 8 view .LVU191
 242:Drivers/STM32F0xx_HAL_Driver/Src/stm32f0xx_ll_usb.c ****       PCD_CLEAR_RX_DTOG(USBx, ep->num);
 659              		.loc 1 242 7 discriminator 8 view .LVU192
 660 017a 6508     		lsrs	r5, r4, #1
ARM GAS  C:\Users\Daniel\AppData\Local\Temp\ccnluvCc.s 			page 17


 661              	.LVL66:
 242:Drivers/STM32F0xx_HAL_Driver/Src/stm32f0xx_ll_usb.c ****       PCD_CLEAR_RX_DTOG(USBx, ep->num);
 662              		.loc 1 242 7 discriminator 8 view .LVU193
 663 017c E407     		lsls	r4, r4, #31
 664 017e 00D5     		bpl	.L25
 242:Drivers/STM32F0xx_HAL_Driver/Src/stm32f0xx_ll_usb.c ****       PCD_CLEAR_RX_DTOG(USBx, ep->num);
 665              		.loc 1 242 7 discriminator 10 view .LVU194
 666 0180 0135     		adds	r5, r5, #1
 667              	.LVL67:
 668              	.L25:
 242:Drivers/STM32F0xx_HAL_Driver/Src/stm32f0xx_ll_usb.c ****       PCD_CLEAR_RX_DTOG(USBx, ep->num);
 669              		.loc 1 242 7 discriminator 12 view .LVU195
 670 0182 1488     		ldrh	r4, [r2]
 671 0184 AD02     		lsls	r5, r5, #10
 672              	.LVL68:
 242:Drivers/STM32F0xx_HAL_Driver/Src/stm32f0xx_ll_usb.c ****       PCD_CLEAR_RX_DTOG(USBx, ep->num);
 673              		.loc 1 242 7 is_stmt 0 discriminator 12 view .LVU196
 674 0186 ADB2     		uxth	r5, r5
 675 0188 2C43     		orrs	r4, r5
 676 018a 1480     		strh	r4, [r2]
 677 018c D0E7     		b	.L23
 678              	.LVL69:
 679              	.L27:
 242:Drivers/STM32F0xx_HAL_Driver/Src/stm32f0xx_ll_usb.c ****       PCD_CLEAR_RX_DTOG(USBx, ep->num);
 680              		.loc 1 242 7 discriminator 12 view .LVU197
 681              	.LBE11:
 682              	.LBE15:
 249:Drivers/STM32F0xx_HAL_Driver/Src/stm32f0xx_ll_usb.c ****       }
 250:Drivers/STM32F0xx_HAL_Driver/Src/stm32f0xx_ll_usb.c ****       else
 251:Drivers/STM32F0xx_HAL_Driver/Src/stm32f0xx_ll_usb.c ****       {
 252:Drivers/STM32F0xx_HAL_Driver/Src/stm32f0xx_ll_usb.c ****         /* Configure NAK status for OUT Endpoint */
 253:Drivers/STM32F0xx_HAL_Driver/Src/stm32f0xx_ll_usb.c ****         PCD_SET_EP_RX_STATUS(USBx, ep->num, USB_EP_RX_NAK);
 683              		.loc 1 253 9 is_stmt 1 view .LVU198
 684              	.LBB16:
 685              		.loc 1 253 9 view .LVU199
 686              		.loc 1 253 9 view .LVU200
 687 018e 9200     		lsls	r2, r2, #2
 688 0190 9A18     		adds	r2, r3, r2
 689 0192 1388     		ldrh	r3, [r2]
 690              	.LVL70:
 691              		.loc 1 253 9 is_stmt 0 view .LVU201
 692 0194 6049     		ldr	r1, .L49+36
 693              	.LVL71:
 694              		.loc 1 253 9 view .LVU202
 695 0196 0B40     		ands	r3, r1
 696              	.LVL72:
 697              		.loc 1 253 9 is_stmt 1 view .LVU203
 698              		.loc 1 253 9 view .LVU204
 699              		.loc 1 253 9 view .LVU205
 700 0198 8021     		movs	r1, #128
 701 019a 8901     		lsls	r1, r1, #6
 702 019c 5940     		eors	r1, r3
 703              	.LVL73:
 704              		.loc 1 253 9 view .LVU206
 705 019e 564B     		ldr	r3, .L49+4
 706 01a0 0B43     		orrs	r3, r1
 707 01a2 9BB2     		uxth	r3, r3
ARM GAS  C:\Users\Daniel\AppData\Local\Temp\ccnluvCc.s 			page 18


 708 01a4 1380     		strh	r3, [r2]
 709 01a6 59E0     		b	.L20
 710              	.LVL74:
 711              	.L16:
 712              		.loc 1 253 9 is_stmt 0 view .LVU207
 713              	.LBE16:
 254:Drivers/STM32F0xx_HAL_Driver/Src/stm32f0xx_ll_usb.c ****       }
 255:Drivers/STM32F0xx_HAL_Driver/Src/stm32f0xx_ll_usb.c ****     }
 256:Drivers/STM32F0xx_HAL_Driver/Src/stm32f0xx_ll_usb.c ****   }
 257:Drivers/STM32F0xx_HAL_Driver/Src/stm32f0xx_ll_usb.c **** #if (USE_USB_DOUBLE_BUFFER == 1U)
 258:Drivers/STM32F0xx_HAL_Driver/Src/stm32f0xx_ll_usb.c ****   /* Double Buffer */
 259:Drivers/STM32F0xx_HAL_Driver/Src/stm32f0xx_ll_usb.c ****   else
 260:Drivers/STM32F0xx_HAL_Driver/Src/stm32f0xx_ll_usb.c ****   {
 261:Drivers/STM32F0xx_HAL_Driver/Src/stm32f0xx_ll_usb.c ****     if (ep->type == EP_TYPE_BULK)
 714              		.loc 1 261 5 is_stmt 1 view .LVU208
 715              		.loc 1 261 11 is_stmt 0 view .LVU209
 716 01a8 CA78     		ldrb	r2, [r1, #3]
 717              		.loc 1 261 8 view .LVU210
 718 01aa 022A     		cmp	r2, #2
 719 01ac 57D0     		beq	.L48
 262:Drivers/STM32F0xx_HAL_Driver/Src/stm32f0xx_ll_usb.c ****     {
 263:Drivers/STM32F0xx_HAL_Driver/Src/stm32f0xx_ll_usb.c ****       /* Set bulk endpoint as double buffered */
 264:Drivers/STM32F0xx_HAL_Driver/Src/stm32f0xx_ll_usb.c ****       PCD_SET_BULK_EP_DBUF(USBx, ep->num);
 265:Drivers/STM32F0xx_HAL_Driver/Src/stm32f0xx_ll_usb.c ****     }
 266:Drivers/STM32F0xx_HAL_Driver/Src/stm32f0xx_ll_usb.c ****     else
 267:Drivers/STM32F0xx_HAL_Driver/Src/stm32f0xx_ll_usb.c ****     {
 268:Drivers/STM32F0xx_HAL_Driver/Src/stm32f0xx_ll_usb.c ****       /* Set the ISOC endpoint in double buffer mode */
 269:Drivers/STM32F0xx_HAL_Driver/Src/stm32f0xx_ll_usb.c ****       PCD_CLEAR_EP_KIND(USBx, ep->num);
 720              		.loc 1 269 7 is_stmt 1 view .LVU211
 721              	.LBB17:
 722              		.loc 1 269 7 view .LVU212
 723              		.loc 1 269 7 view .LVU213
 724 01ae 0A78     		ldrb	r2, [r1]
 725 01b0 9200     		lsls	r2, r2, #2
 726 01b2 9A18     		adds	r2, r3, r2
 727 01b4 1588     		ldrh	r5, [r2]
 728              	.LVL75:
 729              		.loc 1 269 7 is_stmt 0 view .LVU214
 730 01b6 594C     		ldr	r4, .L49+40
 731 01b8 2540     		ands	r5, r4
 732              	.LVL76:
 733              		.loc 1 269 7 is_stmt 1 view .LVU215
 734 01ba 4F4C     		ldr	r4, .L49+4
 735 01bc 2C43     		orrs	r4, r5
 736 01be A4B2     		uxth	r4, r4
 737 01c0 1480     		strh	r4, [r2]
 738              	.LVL77:
 739              	.L29:
 740              		.loc 1 269 7 is_stmt 0 view .LVU216
 741              	.LBE17:
 742              		.loc 1 269 7 is_stmt 1 discriminator 1 view .LVU217
 270:Drivers/STM32F0xx_HAL_Driver/Src/stm32f0xx_ll_usb.c ****     }
 271:Drivers/STM32F0xx_HAL_Driver/Src/stm32f0xx_ll_usb.c **** 
 272:Drivers/STM32F0xx_HAL_Driver/Src/stm32f0xx_ll_usb.c ****     /* Set buffer address for double buffered mode */
 273:Drivers/STM32F0xx_HAL_Driver/Src/stm32f0xx_ll_usb.c ****     PCD_SET_EP_DBUF_ADDR(USBx, ep->num, ep->pmaaddr0, ep->pmaaddr1);
 743              		.loc 1 273 5 discriminator 1 view .LVU218
 744              		.loc 1 273 5 discriminator 1 view .LVU219
ARM GAS  C:\Users\Daniel\AppData\Local\Temp\ccnluvCc.s 			page 19


 745              		.loc 1 273 5 discriminator 1 view .LVU220
 746              	.LBB18:
 747              		.loc 1 273 5 discriminator 1 view .LVU221
 748              		.loc 1 273 5 discriminator 1 view .LVU222
 749              		.loc 1 273 5 discriminator 1 view .LVU223
 750 01c2 5025     		movs	r5, #80
 751 01c4 5C5B     		ldrh	r4, [r3, r5]
 752 01c6 1C19     		adds	r4, r3, r4
 753              	.LVL78:
 754              		.loc 1 273 5 discriminator 1 view .LVU224
 755 01c8 0A78     		ldrb	r2, [r1]
 756 01ca D200     		lsls	r2, r2, #3
 757 01cc 1219     		adds	r2, r2, r4
 758 01ce 8024     		movs	r4, #128
 759              	.LVL79:
 760              		.loc 1 273 5 is_stmt 0 discriminator 1 view .LVU225
 761 01d0 E400     		lsls	r4, r4, #3
 762 01d2 A446     		mov	ip, r4
 763 01d4 6244     		add	r2, r2, ip
 764              	.LVL80:
 765              		.loc 1 273 5 is_stmt 1 discriminator 1 view .LVU226
 766 01d6 0C89     		ldrh	r4, [r1, #8]
 767 01d8 6408     		lsrs	r4, r4, #1
 768 01da 6400     		lsls	r4, r4, #1
 769 01dc 1480     		strh	r4, [r2]
 770              	.LBE18:
 771              		.loc 1 273 5 discriminator 1 view .LVU227
 772              		.loc 1 273 5 discriminator 1 view .LVU228
 773              		.loc 1 273 5 discriminator 1 view .LVU229
 774              		.loc 1 273 5 discriminator 1 view .LVU230
 775              	.LBB19:
 776              		.loc 1 273 5 discriminator 1 view .LVU231
 777              		.loc 1 273 5 discriminator 1 view .LVU232
 778              	.LVL81:
 779              		.loc 1 273 5 discriminator 1 view .LVU233
 780 01de 5C5B     		ldrh	r4, [r3, r5]
 781 01e0 1C19     		adds	r4, r3, r4
 782              	.LVL82:
 783              		.loc 1 273 5 discriminator 1 view .LVU234
 784 01e2 0A78     		ldrb	r2, [r1]
 785              	.LVL83:
 786              		.loc 1 273 5 is_stmt 0 discriminator 1 view .LVU235
 787 01e4 D200     		lsls	r2, r2, #3
 788 01e6 1219     		adds	r2, r2, r4
 789 01e8 474C     		ldr	r4, .L49+20
 790              	.LVL84:
 791              		.loc 1 273 5 discriminator 1 view .LVU236
 792 01ea A446     		mov	ip, r4
 793 01ec 6244     		add	r2, r2, ip
 794              	.LVL85:
 795              		.loc 1 273 5 is_stmt 1 discriminator 1 view .LVU237
 796 01ee 4C89     		ldrh	r4, [r1, #10]
 797 01f0 6408     		lsrs	r4, r4, #1
 798 01f2 6400     		lsls	r4, r4, #1
 799 01f4 1480     		strh	r4, [r2]
 800              	.LBE19:
 801              		.loc 1 273 5 discriminator 1 view .LVU238
ARM GAS  C:\Users\Daniel\AppData\Local\Temp\ccnluvCc.s 			page 20


 802              		.loc 1 273 5 discriminator 1 view .LVU239
 803              		.loc 1 273 5 discriminator 1 view .LVU240
 274:Drivers/STM32F0xx_HAL_Driver/Src/stm32f0xx_ll_usb.c **** 
 275:Drivers/STM32F0xx_HAL_Driver/Src/stm32f0xx_ll_usb.c ****     if (ep->is_in == 0U)
 804              		.loc 1 275 5 discriminator 1 view .LVU241
 805              		.loc 1 275 11 is_stmt 0 discriminator 1 view .LVU242
 806 01f6 4A78     		ldrb	r2, [r1, #1]
 807              	.LVL86:
 808              		.loc 1 275 8 discriminator 1 view .LVU243
 809 01f8 002A     		cmp	r2, #0
 810 01fa 3BD1     		bne	.L30
 276:Drivers/STM32F0xx_HAL_Driver/Src/stm32f0xx_ll_usb.c ****     {
 277:Drivers/STM32F0xx_HAL_Driver/Src/stm32f0xx_ll_usb.c ****       /* Clear the data toggle bits for the endpoint IN/OUT */
 278:Drivers/STM32F0xx_HAL_Driver/Src/stm32f0xx_ll_usb.c ****       PCD_CLEAR_RX_DTOG(USBx, ep->num);
 811              		.loc 1 278 7 is_stmt 1 view .LVU244
 812              	.LBB20:
 813              		.loc 1 278 7 view .LVU245
 814              		.loc 1 278 7 view .LVU246
 815 01fc 0A78     		ldrb	r2, [r1]
 816 01fe 9200     		lsls	r2, r2, #2
 817 0200 9A18     		adds	r2, r3, r2
 818 0202 1488     		ldrh	r4, [r2]
 819              	.LVL87:
 820              		.loc 1 278 7 view .LVU247
 821 0204 6404     		lsls	r4, r4, #17
 822 0206 06D5     		bpl	.L31
 823              	.LVL88:
 824              		.loc 1 278 7 discriminator 1 view .LVU248
 825              	.LBB21:
 826              		.loc 1 278 7 discriminator 1 view .LVU249
 827              		.loc 1 278 7 discriminator 1 view .LVU250
 828 0208 1588     		ldrh	r5, [r2]
 829 020a 3C4C     		ldr	r4, .L49+8
 830 020c 2540     		ands	r5, r4
 831              	.LVL89:
 832              		.loc 1 278 7 discriminator 1 view .LVU251
 833 020e 414C     		ldr	r4, .L49+32
 834 0210 2C43     		orrs	r4, r5
 835 0212 A4B2     		uxth	r4, r4
 836 0214 1480     		strh	r4, [r2]
 837              	.LVL90:
 838              	.L31:
 839              		.loc 1 278 7 is_stmt 0 discriminator 1 view .LVU252
 840              	.LBE21:
 841              		.loc 1 278 7 is_stmt 1 discriminator 3 view .LVU253
 842              	.LBE20:
 843              		.loc 1 278 7 discriminator 3 view .LVU254
 279:Drivers/STM32F0xx_HAL_Driver/Src/stm32f0xx_ll_usb.c ****       PCD_CLEAR_TX_DTOG(USBx, ep->num);
 844              		.loc 1 279 7 discriminator 3 view .LVU255
 845              	.LBB22:
 846              		.loc 1 279 7 discriminator 3 view .LVU256
 847              		.loc 1 279 7 discriminator 3 view .LVU257
 848 0216 0A78     		ldrb	r2, [r1]
 849 0218 9200     		lsls	r2, r2, #2
 850 021a 9A18     		adds	r2, r3, r2
 851 021c 1488     		ldrh	r4, [r2]
 852              	.LVL91:
ARM GAS  C:\Users\Daniel\AppData\Local\Temp\ccnluvCc.s 			page 21


 853              		.loc 1 279 7 discriminator 3 view .LVU258
 854 021e 6406     		lsls	r4, r4, #25
 855 0220 06D5     		bpl	.L32
 856              	.LVL92:
 857              		.loc 1 279 7 discriminator 1 view .LVU259
 858              	.LBB23:
 859              		.loc 1 279 7 discriminator 1 view .LVU260
 860              		.loc 1 279 7 discriminator 1 view .LVU261
 861 0222 1588     		ldrh	r5, [r2]
 862 0224 354C     		ldr	r4, .L49+8
 863 0226 2540     		ands	r5, r4
 864              	.LVL93:
 865              		.loc 1 279 7 discriminator 1 view .LVU262
 866 0228 354C     		ldr	r4, .L49+12
 867 022a 2C43     		orrs	r4, r5
 868 022c A4B2     		uxth	r4, r4
 869 022e 1480     		strh	r4, [r2]
 870              	.LVL94:
 871              	.L32:
 872              		.loc 1 279 7 is_stmt 0 discriminator 1 view .LVU263
 873              	.LBE23:
 874              		.loc 1 279 7 is_stmt 1 discriminator 3 view .LVU264
 875              	.LBE22:
 876              		.loc 1 279 7 discriminator 3 view .LVU265
 280:Drivers/STM32F0xx_HAL_Driver/Src/stm32f0xx_ll_usb.c **** 
 281:Drivers/STM32F0xx_HAL_Driver/Src/stm32f0xx_ll_usb.c ****       PCD_SET_EP_RX_STATUS(USBx, ep->num, USB_EP_RX_VALID);
 877              		.loc 1 281 7 discriminator 3 view .LVU266
 878              	.LBB24:
 879              		.loc 1 281 7 discriminator 3 view .LVU267
 880              		.loc 1 281 7 discriminator 3 view .LVU268
 881 0230 0D78     		ldrb	r5, [r1]
 882 0232 AD00     		lsls	r5, r5, #2
 883 0234 5D19     		adds	r5, r3, r5
 884 0236 2C88     		ldrh	r4, [r5]
 885 0238 374A     		ldr	r2, .L49+36
 886 023a 1440     		ands	r4, r2
 887              	.LVL95:
 888              		.loc 1 281 7 discriminator 3 view .LVU269
 889              		.loc 1 281 7 discriminator 3 view .LVU270
 890              		.loc 1 281 7 discriminator 3 view .LVU271
 891              		.loc 1 281 7 discriminator 3 view .LVU272
 892 023c C022     		movs	r2, #192
 893 023e 9201     		lsls	r2, r2, #6
 894 0240 6240     		eors	r2, r4
 895              	.LVL96:
 896              		.loc 1 281 7 discriminator 3 view .LVU273
 897 0242 2D4C     		ldr	r4, .L49+4
 898 0244 2243     		orrs	r2, r4
 899              	.LVL97:
 900              		.loc 1 281 7 is_stmt 0 discriminator 3 view .LVU274
 901 0246 92B2     		uxth	r2, r2
 902 0248 2A80     		strh	r2, [r5]
 903              	.LBE24:
 904              		.loc 1 281 7 is_stmt 1 discriminator 3 view .LVU275
 282:Drivers/STM32F0xx_HAL_Driver/Src/stm32f0xx_ll_usb.c ****       PCD_SET_EP_TX_STATUS(USBx, ep->num, USB_EP_TX_DIS);
 905              		.loc 1 282 7 discriminator 3 view .LVU276
 906              	.LBB25:
ARM GAS  C:\Users\Daniel\AppData\Local\Temp\ccnluvCc.s 			page 22


 907              		.loc 1 282 7 discriminator 3 view .LVU277
 908              		.loc 1 282 7 discriminator 3 view .LVU278
 909 024a 0A78     		ldrb	r2, [r1]
 910 024c 9200     		lsls	r2, r2, #2
 911 024e 9B18     		adds	r3, r3, r2
 912              	.LVL98:
 913              		.loc 1 282 7 is_stmt 0 discriminator 3 view .LVU279
 914 0250 1A88     		ldrh	r2, [r3]
 915 0252 2C49     		ldr	r1, .L49+16
 916              	.LVL99:
 917              		.loc 1 282 7 discriminator 3 view .LVU280
 918 0254 0A40     		ands	r2, r1
 919              	.LVL100:
 920              		.loc 1 282 7 is_stmt 1 discriminator 3 view .LVU281
 921              		.loc 1 282 7 discriminator 3 view .LVU282
 922              		.loc 1 282 7 discriminator 3 view .LVU283
 923 0256 1443     		orrs	r4, r2
 924 0258 A4B2     		uxth	r4, r4
 925 025a 1C80     		strh	r4, [r3]
 926              	.LBE25:
 927              		.loc 1 282 7 discriminator 3 view .LVU284
 928              	.LVL101:
 929              	.L20:
 283:Drivers/STM32F0xx_HAL_Driver/Src/stm32f0xx_ll_usb.c ****     }
 284:Drivers/STM32F0xx_HAL_Driver/Src/stm32f0xx_ll_usb.c ****     else
 285:Drivers/STM32F0xx_HAL_Driver/Src/stm32f0xx_ll_usb.c ****     {
 286:Drivers/STM32F0xx_HAL_Driver/Src/stm32f0xx_ll_usb.c ****       /* Clear the data toggle bits for the endpoint IN/OUT */
 287:Drivers/STM32F0xx_HAL_Driver/Src/stm32f0xx_ll_usb.c ****       PCD_CLEAR_RX_DTOG(USBx, ep->num);
 288:Drivers/STM32F0xx_HAL_Driver/Src/stm32f0xx_ll_usb.c ****       PCD_CLEAR_TX_DTOG(USBx, ep->num);
 289:Drivers/STM32F0xx_HAL_Driver/Src/stm32f0xx_ll_usb.c **** 
 290:Drivers/STM32F0xx_HAL_Driver/Src/stm32f0xx_ll_usb.c ****       if (ep->type != EP_TYPE_ISOC)
 291:Drivers/STM32F0xx_HAL_Driver/Src/stm32f0xx_ll_usb.c ****       {
 292:Drivers/STM32F0xx_HAL_Driver/Src/stm32f0xx_ll_usb.c ****         /* Configure NAK status for the Endpoint */
 293:Drivers/STM32F0xx_HAL_Driver/Src/stm32f0xx_ll_usb.c ****         PCD_SET_EP_TX_STATUS(USBx, ep->num, USB_EP_TX_NAK);
 294:Drivers/STM32F0xx_HAL_Driver/Src/stm32f0xx_ll_usb.c ****       }
 295:Drivers/STM32F0xx_HAL_Driver/Src/stm32f0xx_ll_usb.c ****       else
 296:Drivers/STM32F0xx_HAL_Driver/Src/stm32f0xx_ll_usb.c ****       {
 297:Drivers/STM32F0xx_HAL_Driver/Src/stm32f0xx_ll_usb.c ****         /* Configure TX Endpoint to disabled state */
 298:Drivers/STM32F0xx_HAL_Driver/Src/stm32f0xx_ll_usb.c ****         PCD_SET_EP_TX_STATUS(USBx, ep->num, USB_EP_TX_DIS);
 299:Drivers/STM32F0xx_HAL_Driver/Src/stm32f0xx_ll_usb.c ****       }
 300:Drivers/STM32F0xx_HAL_Driver/Src/stm32f0xx_ll_usb.c **** 
 301:Drivers/STM32F0xx_HAL_Driver/Src/stm32f0xx_ll_usb.c ****       PCD_SET_EP_RX_STATUS(USBx, ep->num, USB_EP_RX_DIS);
 930              		.loc 1 301 7 discriminator 7 view .LVU285
 302:Drivers/STM32F0xx_HAL_Driver/Src/stm32f0xx_ll_usb.c ****     }
 303:Drivers/STM32F0xx_HAL_Driver/Src/stm32f0xx_ll_usb.c ****   }
 304:Drivers/STM32F0xx_HAL_Driver/Src/stm32f0xx_ll_usb.c **** #endif /* (USE_USB_DOUBLE_BUFFER == 1U) */
 305:Drivers/STM32F0xx_HAL_Driver/Src/stm32f0xx_ll_usb.c **** 
 306:Drivers/STM32F0xx_HAL_Driver/Src/stm32f0xx_ll_usb.c ****   return ret;
 931              		.loc 1 306 3 discriminator 7 view .LVU286
 307:Drivers/STM32F0xx_HAL_Driver/Src/stm32f0xx_ll_usb.c **** }
 932              		.loc 1 307 1 is_stmt 0 discriminator 7 view .LVU287
 933              		@ sp needed
 934 025c F0BD     		pop	{r4, r5, r6, r7, pc}
 935              	.LVL102:
 936              	.L48:
 264:Drivers/STM32F0xx_HAL_Driver/Src/stm32f0xx_ll_usb.c ****     }
 937              		.loc 1 264 7 is_stmt 1 view .LVU288
ARM GAS  C:\Users\Daniel\AppData\Local\Temp\ccnluvCc.s 			page 23


 938              	.LBB26:
 264:Drivers/STM32F0xx_HAL_Driver/Src/stm32f0xx_ll_usb.c ****     }
 939              		.loc 1 264 7 view .LVU289
 264:Drivers/STM32F0xx_HAL_Driver/Src/stm32f0xx_ll_usb.c ****     }
 940              		.loc 1 264 7 view .LVU290
 941 025e 0A78     		ldrb	r2, [r1]
 942 0260 9200     		lsls	r2, r2, #2
 943 0262 9A18     		adds	r2, r3, r2
 944 0264 1588     		ldrh	r5, [r2]
 945              	.LVL103:
 264:Drivers/STM32F0xx_HAL_Driver/Src/stm32f0xx_ll_usb.c ****     }
 946              		.loc 1 264 7 is_stmt 0 view .LVU291
 947 0266 254C     		ldr	r4, .L49+8
 948 0268 2540     		ands	r5, r4
 949              	.LVL104:
 264:Drivers/STM32F0xx_HAL_Driver/Src/stm32f0xx_ll_usb.c ****     }
 950              		.loc 1 264 7 is_stmt 1 view .LVU292
 951 026a 2D4C     		ldr	r4, .L49+44
 952 026c 2C43     		orrs	r4, r5
 953 026e A4B2     		uxth	r4, r4
 954 0270 1480     		strh	r4, [r2]
 955              	.LBE26:
 264:Drivers/STM32F0xx_HAL_Driver/Src/stm32f0xx_ll_usb.c ****     }
 956              		.loc 1 264 7 view .LVU293
 957 0272 A6E7     		b	.L29
 958              	.LVL105:
 959              	.L30:
 287:Drivers/STM32F0xx_HAL_Driver/Src/stm32f0xx_ll_usb.c ****       PCD_CLEAR_TX_DTOG(USBx, ep->num);
 960              		.loc 1 287 7 view .LVU294
 961              	.LBB27:
 287:Drivers/STM32F0xx_HAL_Driver/Src/stm32f0xx_ll_usb.c ****       PCD_CLEAR_TX_DTOG(USBx, ep->num);
 962              		.loc 1 287 7 view .LVU295
 287:Drivers/STM32F0xx_HAL_Driver/Src/stm32f0xx_ll_usb.c ****       PCD_CLEAR_TX_DTOG(USBx, ep->num);
 963              		.loc 1 287 7 view .LVU296
 964 0274 0A78     		ldrb	r2, [r1]
 965 0276 9200     		lsls	r2, r2, #2
 966 0278 9A18     		adds	r2, r3, r2
 967 027a 1488     		ldrh	r4, [r2]
 968              	.LVL106:
 287:Drivers/STM32F0xx_HAL_Driver/Src/stm32f0xx_ll_usb.c ****       PCD_CLEAR_TX_DTOG(USBx, ep->num);
 969              		.loc 1 287 7 view .LVU297
 970 027c 6404     		lsls	r4, r4, #17
 971 027e 06D5     		bpl	.L33
 972              	.LVL107:
 287:Drivers/STM32F0xx_HAL_Driver/Src/stm32f0xx_ll_usb.c ****       PCD_CLEAR_TX_DTOG(USBx, ep->num);
 973              		.loc 1 287 7 discriminator 1 view .LVU298
 974              	.LBB28:
 287:Drivers/STM32F0xx_HAL_Driver/Src/stm32f0xx_ll_usb.c ****       PCD_CLEAR_TX_DTOG(USBx, ep->num);
 975              		.loc 1 287 7 discriminator 1 view .LVU299
 287:Drivers/STM32F0xx_HAL_Driver/Src/stm32f0xx_ll_usb.c ****       PCD_CLEAR_TX_DTOG(USBx, ep->num);
 976              		.loc 1 287 7 discriminator 1 view .LVU300
 977 0280 1588     		ldrh	r5, [r2]
 978 0282 1E4C     		ldr	r4, .L49+8
 979 0284 2540     		ands	r5, r4
 980              	.LVL108:
 287:Drivers/STM32F0xx_HAL_Driver/Src/stm32f0xx_ll_usb.c ****       PCD_CLEAR_TX_DTOG(USBx, ep->num);
 981              		.loc 1 287 7 discriminator 1 view .LVU301
ARM GAS  C:\Users\Daniel\AppData\Local\Temp\ccnluvCc.s 			page 24


 982 0286 234C     		ldr	r4, .L49+32
 983 0288 2C43     		orrs	r4, r5
 984 028a A4B2     		uxth	r4, r4
 985 028c 1480     		strh	r4, [r2]
 986              	.LVL109:
 987              	.L33:
 287:Drivers/STM32F0xx_HAL_Driver/Src/stm32f0xx_ll_usb.c ****       PCD_CLEAR_TX_DTOG(USBx, ep->num);
 988              		.loc 1 287 7 is_stmt 0 discriminator 1 view .LVU302
 989              	.LBE28:
 287:Drivers/STM32F0xx_HAL_Driver/Src/stm32f0xx_ll_usb.c ****       PCD_CLEAR_TX_DTOG(USBx, ep->num);
 990              		.loc 1 287 7 is_stmt 1 discriminator 3 view .LVU303
 991              	.LBE27:
 287:Drivers/STM32F0xx_HAL_Driver/Src/stm32f0xx_ll_usb.c ****       PCD_CLEAR_TX_DTOG(USBx, ep->num);
 992              		.loc 1 287 7 discriminator 3 view .LVU304
 288:Drivers/STM32F0xx_HAL_Driver/Src/stm32f0xx_ll_usb.c **** 
 993              		.loc 1 288 7 discriminator 3 view .LVU305
 994              	.LBB29:
 288:Drivers/STM32F0xx_HAL_Driver/Src/stm32f0xx_ll_usb.c **** 
 995              		.loc 1 288 7 discriminator 3 view .LVU306
 288:Drivers/STM32F0xx_HAL_Driver/Src/stm32f0xx_ll_usb.c **** 
 996              		.loc 1 288 7 discriminator 3 view .LVU307
 997 028e 0A78     		ldrb	r2, [r1]
 998 0290 9200     		lsls	r2, r2, #2
 999 0292 9A18     		adds	r2, r3, r2
 1000 0294 1488     		ldrh	r4, [r2]
 1001              	.LVL110:
 288:Drivers/STM32F0xx_HAL_Driver/Src/stm32f0xx_ll_usb.c **** 
 1002              		.loc 1 288 7 discriminator 3 view .LVU308
 1003 0296 6406     		lsls	r4, r4, #25
 1004 0298 06D5     		bpl	.L34
 1005              	.LVL111:
 288:Drivers/STM32F0xx_HAL_Driver/Src/stm32f0xx_ll_usb.c **** 
 1006              		.loc 1 288 7 discriminator 1 view .LVU309
 1007              	.LBB30:
 288:Drivers/STM32F0xx_HAL_Driver/Src/stm32f0xx_ll_usb.c **** 
 1008              		.loc 1 288 7 discriminator 1 view .LVU310
 288:Drivers/STM32F0xx_HAL_Driver/Src/stm32f0xx_ll_usb.c **** 
 1009              		.loc 1 288 7 discriminator 1 view .LVU311
 1010 029a 1588     		ldrh	r5, [r2]
 1011 029c 174C     		ldr	r4, .L49+8
 1012 029e 2540     		ands	r5, r4
 1013              	.LVL112:
 288:Drivers/STM32F0xx_HAL_Driver/Src/stm32f0xx_ll_usb.c **** 
 1014              		.loc 1 288 7 discriminator 1 view .LVU312
 1015 02a0 174C     		ldr	r4, .L49+12
 1016 02a2 2C43     		orrs	r4, r5
 1017 02a4 A4B2     		uxth	r4, r4
 1018 02a6 1480     		strh	r4, [r2]
 1019              	.LVL113:
 1020              	.L34:
 288:Drivers/STM32F0xx_HAL_Driver/Src/stm32f0xx_ll_usb.c **** 
 1021              		.loc 1 288 7 is_stmt 0 discriminator 1 view .LVU313
 1022              	.LBE30:
 288:Drivers/STM32F0xx_HAL_Driver/Src/stm32f0xx_ll_usb.c **** 
 1023              		.loc 1 288 7 is_stmt 1 discriminator 3 view .LVU314
 1024              	.LBE29:
 288:Drivers/STM32F0xx_HAL_Driver/Src/stm32f0xx_ll_usb.c **** 
ARM GAS  C:\Users\Daniel\AppData\Local\Temp\ccnluvCc.s 			page 25


 1025              		.loc 1 288 7 discriminator 3 view .LVU315
 290:Drivers/STM32F0xx_HAL_Driver/Src/stm32f0xx_ll_usb.c ****       {
 1026              		.loc 1 290 7 discriminator 3 view .LVU316
 290:Drivers/STM32F0xx_HAL_Driver/Src/stm32f0xx_ll_usb.c ****       {
 1027              		.loc 1 290 13 is_stmt 0 discriminator 3 view .LVU317
 1028 02a8 CA78     		ldrb	r2, [r1, #3]
 290:Drivers/STM32F0xx_HAL_Driver/Src/stm32f0xx_ll_usb.c ****       {
 1029              		.loc 1 290 10 discriminator 3 view .LVU318
 1030 02aa 012A     		cmp	r2, #1
 1031 02ac 17D0     		beq	.L35
 293:Drivers/STM32F0xx_HAL_Driver/Src/stm32f0xx_ll_usb.c ****       }
 1032              		.loc 1 293 9 is_stmt 1 view .LVU319
 1033              	.LBB31:
 293:Drivers/STM32F0xx_HAL_Driver/Src/stm32f0xx_ll_usb.c ****       }
 1034              		.loc 1 293 9 view .LVU320
 293:Drivers/STM32F0xx_HAL_Driver/Src/stm32f0xx_ll_usb.c ****       }
 1035              		.loc 1 293 9 view .LVU321
 1036 02ae 0C78     		ldrb	r4, [r1]
 1037 02b0 A400     		lsls	r4, r4, #2
 1038 02b2 1C19     		adds	r4, r3, r4
 1039 02b4 2288     		ldrh	r2, [r4]
 1040 02b6 134D     		ldr	r5, .L49+16
 1041 02b8 2A40     		ands	r2, r5
 1042              	.LVL114:
 293:Drivers/STM32F0xx_HAL_Driver/Src/stm32f0xx_ll_usb.c ****       }
 1043              		.loc 1 293 9 view .LVU322
 293:Drivers/STM32F0xx_HAL_Driver/Src/stm32f0xx_ll_usb.c ****       }
 1044              		.loc 1 293 9 view .LVU323
 293:Drivers/STM32F0xx_HAL_Driver/Src/stm32f0xx_ll_usb.c ****       }
 1045              		.loc 1 293 9 view .LVU324
 1046 02ba 2025     		movs	r5, #32
 1047 02bc 6A40     		eors	r2, r5
 1048              	.LVL115:
 293:Drivers/STM32F0xx_HAL_Driver/Src/stm32f0xx_ll_usb.c ****       }
 1049              		.loc 1 293 9 is_stmt 0 view .LVU325
 1050 02be 92B2     		uxth	r2, r2
 1051              	.LVL116:
 293:Drivers/STM32F0xx_HAL_Driver/Src/stm32f0xx_ll_usb.c ****       }
 1052              		.loc 1 293 9 is_stmt 1 view .LVU326
 1053 02c0 0D4D     		ldr	r5, .L49+4
 1054 02c2 2A43     		orrs	r2, r5
 1055              	.LVL117:
 293:Drivers/STM32F0xx_HAL_Driver/Src/stm32f0xx_ll_usb.c ****       }
 1056              		.loc 1 293 9 is_stmt 0 view .LVU327
 1057 02c4 92B2     		uxth	r2, r2
 1058 02c6 2280     		strh	r2, [r4]
 1059              	.LBE31:
 293:Drivers/STM32F0xx_HAL_Driver/Src/stm32f0xx_ll_usb.c ****       }
 1060              		.loc 1 293 9 is_stmt 1 view .LVU328
 1061              	.LVL118:
 1062              	.L36:
 298:Drivers/STM32F0xx_HAL_Driver/Src/stm32f0xx_ll_usb.c ****       }
 1063              		.loc 1 298 9 discriminator 7 view .LVU329
 301:Drivers/STM32F0xx_HAL_Driver/Src/stm32f0xx_ll_usb.c ****     }
 1064              		.loc 1 301 7 discriminator 7 view .LVU330
 1065              	.LBB32:
 301:Drivers/STM32F0xx_HAL_Driver/Src/stm32f0xx_ll_usb.c ****     }
ARM GAS  C:\Users\Daniel\AppData\Local\Temp\ccnluvCc.s 			page 26


 1066              		.loc 1 301 7 discriminator 7 view .LVU331
 301:Drivers/STM32F0xx_HAL_Driver/Src/stm32f0xx_ll_usb.c ****     }
 1067              		.loc 1 301 7 discriminator 7 view .LVU332
 1068 02c8 0A78     		ldrb	r2, [r1]
 1069 02ca 9200     		lsls	r2, r2, #2
 1070 02cc 9B18     		adds	r3, r3, r2
 1071              	.LVL119:
 301:Drivers/STM32F0xx_HAL_Driver/Src/stm32f0xx_ll_usb.c ****     }
 1072              		.loc 1 301 7 is_stmt 0 discriminator 7 view .LVU333
 1073 02ce 1988     		ldrh	r1, [r3]
 1074              	.LVL120:
 301:Drivers/STM32F0xx_HAL_Driver/Src/stm32f0xx_ll_usb.c ****     }
 1075              		.loc 1 301 7 discriminator 7 view .LVU334
 1076 02d0 114A     		ldr	r2, .L49+36
 1077 02d2 1140     		ands	r1, r2
 1078              	.LVL121:
 301:Drivers/STM32F0xx_HAL_Driver/Src/stm32f0xx_ll_usb.c ****     }
 1079              		.loc 1 301 7 is_stmt 1 discriminator 7 view .LVU335
 301:Drivers/STM32F0xx_HAL_Driver/Src/stm32f0xx_ll_usb.c ****     }
 1080              		.loc 1 301 7 discriminator 7 view .LVU336
 301:Drivers/STM32F0xx_HAL_Driver/Src/stm32f0xx_ll_usb.c ****     }
 1081              		.loc 1 301 7 discriminator 7 view .LVU337
 1082 02d4 084A     		ldr	r2, .L49+4
 1083 02d6 0A43     		orrs	r2, r1
 1084 02d8 92B2     		uxth	r2, r2
 1085 02da 1A80     		strh	r2, [r3]
 1086 02dc BEE7     		b	.L20
 1087              	.LVL122:
 1088              	.L35:
 301:Drivers/STM32F0xx_HAL_Driver/Src/stm32f0xx_ll_usb.c ****     }
 1089              		.loc 1 301 7 is_stmt 0 discriminator 7 view .LVU338
 1090              	.LBE32:
 298:Drivers/STM32F0xx_HAL_Driver/Src/stm32f0xx_ll_usb.c ****       }
 1091              		.loc 1 298 9 is_stmt 1 view .LVU339
 1092              	.LBB33:
 298:Drivers/STM32F0xx_HAL_Driver/Src/stm32f0xx_ll_usb.c ****       }
 1093              		.loc 1 298 9 view .LVU340
 298:Drivers/STM32F0xx_HAL_Driver/Src/stm32f0xx_ll_usb.c ****       }
 1094              		.loc 1 298 9 view .LVU341
 1095 02de 0A78     		ldrb	r2, [r1]
 1096 02e0 9200     		lsls	r2, r2, #2
 1097 02e2 9A18     		adds	r2, r3, r2
 1098 02e4 1588     		ldrh	r5, [r2]
 1099 02e6 074C     		ldr	r4, .L49+16
 1100 02e8 2540     		ands	r5, r4
 1101              	.LVL123:
 298:Drivers/STM32F0xx_HAL_Driver/Src/stm32f0xx_ll_usb.c ****       }
 1102              		.loc 1 298 9 view .LVU342
 298:Drivers/STM32F0xx_HAL_Driver/Src/stm32f0xx_ll_usb.c ****       }
 1103              		.loc 1 298 9 view .LVU343
 298:Drivers/STM32F0xx_HAL_Driver/Src/stm32f0xx_ll_usb.c ****       }
 1104              		.loc 1 298 9 view .LVU344
 1105 02ea 034C     		ldr	r4, .L49+4
 1106 02ec 2C43     		orrs	r4, r5
 1107 02ee A4B2     		uxth	r4, r4
 1108 02f0 1480     		strh	r4, [r2]
 1109 02f2 E9E7     		b	.L36
ARM GAS  C:\Users\Daniel\AppData\Local\Temp\ccnluvCc.s 			page 27


 1110              	.L50:
 1111              		.align	2
 1112              	.L49:
 1113 02f4 8F89FFFF 		.word	-30321
 1114 02f8 8080FFFF 		.word	-32640
 1115 02fc 8F8FFFFF 		.word	-28785
 1116 0300 C080FFFF 		.word	-32576
 1117 0304 BF8FFFFF 		.word	-28737
 1118 0308 04040000 		.word	1028
 1119 030c 06040000 		.word	1030
 1120 0310 0080FFFF 		.word	-32768
 1121 0314 80C0FFFF 		.word	-16256
 1122 0318 8FBFFFFF 		.word	-16497
 1123 031c 8F8EFFFF 		.word	-29041
 1124 0320 8081FFFF 		.word	-32384
 1125              	.LBE33:
 1126              		.cfi_endproc
 1127              	.LFE45:
 1129              		.section	.text.USB_DeactivateEndpoint,"ax",%progbits
 1130              		.align	1
 1131              		.global	USB_DeactivateEndpoint
 1132              		.syntax unified
 1133              		.code	16
 1134              		.thumb_func
 1136              	USB_DeactivateEndpoint:
 1137              	.LVL124:
 1138              	.LFB46:
 308:Drivers/STM32F0xx_HAL_Driver/Src/stm32f0xx_ll_usb.c **** 
 309:Drivers/STM32F0xx_HAL_Driver/Src/stm32f0xx_ll_usb.c **** /**
 310:Drivers/STM32F0xx_HAL_Driver/Src/stm32f0xx_ll_usb.c ****   * @brief  De-activate and de-initialize an endpoint
 311:Drivers/STM32F0xx_HAL_Driver/Src/stm32f0xx_ll_usb.c ****   * @param  USBx Selected device
 312:Drivers/STM32F0xx_HAL_Driver/Src/stm32f0xx_ll_usb.c ****   * @param  ep pointer to endpoint structure
 313:Drivers/STM32F0xx_HAL_Driver/Src/stm32f0xx_ll_usb.c ****   * @retval HAL status
 314:Drivers/STM32F0xx_HAL_Driver/Src/stm32f0xx_ll_usb.c ****   */
 315:Drivers/STM32F0xx_HAL_Driver/Src/stm32f0xx_ll_usb.c **** HAL_StatusTypeDef USB_DeactivateEndpoint(USB_TypeDef *USBx, USB_EPTypeDef *ep)
 316:Drivers/STM32F0xx_HAL_Driver/Src/stm32f0xx_ll_usb.c **** {
 1139              		.loc 1 316 1 view -0
 1140              		.cfi_startproc
 1141              		@ args = 0, pretend = 0, frame = 0
 1142              		@ frame_needed = 0, uses_anonymous_args = 0
 1143              		.loc 1 316 1 is_stmt 0 view .LVU346
 1144 0000 10B5     		push	{r4, lr}
 1145              		.cfi_def_cfa_offset 8
 1146              		.cfi_offset 4, -8
 1147              		.cfi_offset 14, -4
 317:Drivers/STM32F0xx_HAL_Driver/Src/stm32f0xx_ll_usb.c ****   if (ep->doublebuffer == 0U)
 1148              		.loc 1 317 3 is_stmt 1 view .LVU347
 1149              		.loc 1 317 9 is_stmt 0 view .LVU348
 1150 0002 0B7B     		ldrb	r3, [r1, #12]
 1151              		.loc 1 317 6 view .LVU349
 1152 0004 002B     		cmp	r3, #0
 1153 0006 33D1     		bne	.L52
 318:Drivers/STM32F0xx_HAL_Driver/Src/stm32f0xx_ll_usb.c ****   {
 319:Drivers/STM32F0xx_HAL_Driver/Src/stm32f0xx_ll_usb.c ****     if (ep->is_in != 0U)
 1154              		.loc 1 319 5 is_stmt 1 view .LVU350
 1155              		.loc 1 319 11 is_stmt 0 view .LVU351
 1156 0008 4B78     		ldrb	r3, [r1, #1]
ARM GAS  C:\Users\Daniel\AppData\Local\Temp\ccnluvCc.s 			page 28


 1157              		.loc 1 319 8 view .LVU352
 1158 000a 002B     		cmp	r3, #0
 1159 000c 18D0     		beq	.L53
 320:Drivers/STM32F0xx_HAL_Driver/Src/stm32f0xx_ll_usb.c ****     {
 321:Drivers/STM32F0xx_HAL_Driver/Src/stm32f0xx_ll_usb.c ****       PCD_CLEAR_TX_DTOG(USBx, ep->num);
 1160              		.loc 1 321 7 is_stmt 1 view .LVU353
 1161              	.LBB34:
 1162              		.loc 1 321 7 view .LVU354
 1163              		.loc 1 321 7 view .LVU355
 1164 000e 0B78     		ldrb	r3, [r1]
 1165 0010 9B00     		lsls	r3, r3, #2
 1166 0012 C318     		adds	r3, r0, r3
 1167 0014 1A88     		ldrh	r2, [r3]
 1168              	.LVL125:
 1169              		.loc 1 321 7 view .LVU356
 1170 0016 5206     		lsls	r2, r2, #25
 1171 0018 06D5     		bpl	.L54
 1172              	.LVL126:
 1173              		.loc 1 321 7 discriminator 1 view .LVU357
 1174              	.LBB35:
 1175              		.loc 1 321 7 discriminator 1 view .LVU358
 1176              		.loc 1 321 7 discriminator 1 view .LVU359
 1177 001a 1C88     		ldrh	r4, [r3]
 1178 001c 4E4A     		ldr	r2, .L68
 1179 001e 1440     		ands	r4, r2
 1180              	.LVL127:
 1181              		.loc 1 321 7 discriminator 1 view .LVU360
 1182 0020 4E4A     		ldr	r2, .L68+4
 1183 0022 2243     		orrs	r2, r4
 1184 0024 92B2     		uxth	r2, r2
 1185 0026 1A80     		strh	r2, [r3]
 1186              	.LVL128:
 1187              	.L54:
 1188              		.loc 1 321 7 is_stmt 0 discriminator 1 view .LVU361
 1189              	.LBE35:
 1190              		.loc 1 321 7 is_stmt 1 discriminator 3 view .LVU362
 1191              	.LBE34:
 1192              		.loc 1 321 7 discriminator 3 view .LVU363
 322:Drivers/STM32F0xx_HAL_Driver/Src/stm32f0xx_ll_usb.c **** 
 323:Drivers/STM32F0xx_HAL_Driver/Src/stm32f0xx_ll_usb.c ****       /* Configure DISABLE status for the Endpoint */
 324:Drivers/STM32F0xx_HAL_Driver/Src/stm32f0xx_ll_usb.c ****       PCD_SET_EP_TX_STATUS(USBx, ep->num, USB_EP_TX_DIS);
 1193              		.loc 1 324 7 discriminator 3 view .LVU364
 1194              	.LBB36:
 1195              		.loc 1 324 7 discriminator 3 view .LVU365
 1196              		.loc 1 324 7 discriminator 3 view .LVU366
 1197 0028 0B78     		ldrb	r3, [r1]
 1198 002a 9B00     		lsls	r3, r3, #2
 1199 002c C318     		adds	r3, r0, r3
 1200 002e 1988     		ldrh	r1, [r3]
 1201              	.LVL129:
 1202              		.loc 1 324 7 is_stmt 0 discriminator 3 view .LVU367
 1203 0030 4B4A     		ldr	r2, .L68+8
 1204 0032 1140     		ands	r1, r2
 1205              	.LVL130:
 1206              		.loc 1 324 7 is_stmt 1 discriminator 3 view .LVU368
 1207              		.loc 1 324 7 discriminator 3 view .LVU369
 1208              		.loc 1 324 7 discriminator 3 view .LVU370
ARM GAS  C:\Users\Daniel\AppData\Local\Temp\ccnluvCc.s 			page 29


 1209 0034 4B4A     		ldr	r2, .L68+12
 1210 0036 0A43     		orrs	r2, r1
 1211 0038 92B2     		uxth	r2, r2
 1212 003a 1A80     		strh	r2, [r3]
 1213              	.LBE36:
 1214              		.loc 1 324 7 discriminator 3 view .LVU371
 1215              	.LVL131:
 1216              	.L55:
 325:Drivers/STM32F0xx_HAL_Driver/Src/stm32f0xx_ll_usb.c ****     }
 326:Drivers/STM32F0xx_HAL_Driver/Src/stm32f0xx_ll_usb.c **** 
 327:Drivers/STM32F0xx_HAL_Driver/Src/stm32f0xx_ll_usb.c ****     else
 328:Drivers/STM32F0xx_HAL_Driver/Src/stm32f0xx_ll_usb.c ****     {
 329:Drivers/STM32F0xx_HAL_Driver/Src/stm32f0xx_ll_usb.c ****       PCD_CLEAR_RX_DTOG(USBx, ep->num);
 330:Drivers/STM32F0xx_HAL_Driver/Src/stm32f0xx_ll_usb.c **** 
 331:Drivers/STM32F0xx_HAL_Driver/Src/stm32f0xx_ll_usb.c ****       /* Configure DISABLE status for the Endpoint */
 332:Drivers/STM32F0xx_HAL_Driver/Src/stm32f0xx_ll_usb.c ****       PCD_SET_EP_RX_STATUS(USBx, ep->num, USB_EP_RX_DIS);
 333:Drivers/STM32F0xx_HAL_Driver/Src/stm32f0xx_ll_usb.c ****     }
 334:Drivers/STM32F0xx_HAL_Driver/Src/stm32f0xx_ll_usb.c ****   }
 335:Drivers/STM32F0xx_HAL_Driver/Src/stm32f0xx_ll_usb.c **** #if (USE_USB_DOUBLE_BUFFER == 1U)
 336:Drivers/STM32F0xx_HAL_Driver/Src/stm32f0xx_ll_usb.c ****   /* Double Buffer */
 337:Drivers/STM32F0xx_HAL_Driver/Src/stm32f0xx_ll_usb.c ****   else
 338:Drivers/STM32F0xx_HAL_Driver/Src/stm32f0xx_ll_usb.c ****   {
 339:Drivers/STM32F0xx_HAL_Driver/Src/stm32f0xx_ll_usb.c ****     if (ep->is_in == 0U)
 340:Drivers/STM32F0xx_HAL_Driver/Src/stm32f0xx_ll_usb.c ****     {
 341:Drivers/STM32F0xx_HAL_Driver/Src/stm32f0xx_ll_usb.c ****       /* Clear the data toggle bits for the endpoint IN/OUT*/
 342:Drivers/STM32F0xx_HAL_Driver/Src/stm32f0xx_ll_usb.c ****       PCD_CLEAR_RX_DTOG(USBx, ep->num);
 343:Drivers/STM32F0xx_HAL_Driver/Src/stm32f0xx_ll_usb.c ****       PCD_CLEAR_TX_DTOG(USBx, ep->num);
 344:Drivers/STM32F0xx_HAL_Driver/Src/stm32f0xx_ll_usb.c **** 
 345:Drivers/STM32F0xx_HAL_Driver/Src/stm32f0xx_ll_usb.c ****       /* Reset value of the data toggle bits for the endpoint out*/
 346:Drivers/STM32F0xx_HAL_Driver/Src/stm32f0xx_ll_usb.c ****       PCD_TX_DTOG(USBx, ep->num);
 347:Drivers/STM32F0xx_HAL_Driver/Src/stm32f0xx_ll_usb.c **** 
 348:Drivers/STM32F0xx_HAL_Driver/Src/stm32f0xx_ll_usb.c ****       PCD_SET_EP_RX_STATUS(USBx, ep->num, USB_EP_RX_DIS);
 349:Drivers/STM32F0xx_HAL_Driver/Src/stm32f0xx_ll_usb.c ****       PCD_SET_EP_TX_STATUS(USBx, ep->num, USB_EP_TX_DIS);
 350:Drivers/STM32F0xx_HAL_Driver/Src/stm32f0xx_ll_usb.c ****     }
 351:Drivers/STM32F0xx_HAL_Driver/Src/stm32f0xx_ll_usb.c ****     else
 352:Drivers/STM32F0xx_HAL_Driver/Src/stm32f0xx_ll_usb.c ****     {
 353:Drivers/STM32F0xx_HAL_Driver/Src/stm32f0xx_ll_usb.c ****       /* Clear the data toggle bits for the endpoint IN/OUT*/
 354:Drivers/STM32F0xx_HAL_Driver/Src/stm32f0xx_ll_usb.c ****       PCD_CLEAR_RX_DTOG(USBx, ep->num);
 355:Drivers/STM32F0xx_HAL_Driver/Src/stm32f0xx_ll_usb.c ****       PCD_CLEAR_TX_DTOG(USBx, ep->num);
 356:Drivers/STM32F0xx_HAL_Driver/Src/stm32f0xx_ll_usb.c ****       PCD_RX_DTOG(USBx, ep->num);
 357:Drivers/STM32F0xx_HAL_Driver/Src/stm32f0xx_ll_usb.c **** 
 358:Drivers/STM32F0xx_HAL_Driver/Src/stm32f0xx_ll_usb.c ****       /* Configure DISABLE status for the Endpoint*/
 359:Drivers/STM32F0xx_HAL_Driver/Src/stm32f0xx_ll_usb.c ****       PCD_SET_EP_TX_STATUS(USBx, ep->num, USB_EP_TX_DIS);
 360:Drivers/STM32F0xx_HAL_Driver/Src/stm32f0xx_ll_usb.c ****       PCD_SET_EP_RX_STATUS(USBx, ep->num, USB_EP_RX_DIS);
 1217              		.loc 1 360 7 discriminator 7 view .LVU372
 361:Drivers/STM32F0xx_HAL_Driver/Src/stm32f0xx_ll_usb.c ****     }
 362:Drivers/STM32F0xx_HAL_Driver/Src/stm32f0xx_ll_usb.c ****   }
 363:Drivers/STM32F0xx_HAL_Driver/Src/stm32f0xx_ll_usb.c **** #endif /* (USE_USB_DOUBLE_BUFFER == 1U) */
 364:Drivers/STM32F0xx_HAL_Driver/Src/stm32f0xx_ll_usb.c **** 
 365:Drivers/STM32F0xx_HAL_Driver/Src/stm32f0xx_ll_usb.c ****   return HAL_OK;
 1218              		.loc 1 365 3 discriminator 7 view .LVU373
 366:Drivers/STM32F0xx_HAL_Driver/Src/stm32f0xx_ll_usb.c **** }
 1219              		.loc 1 366 1 is_stmt 0 discriminator 7 view .LVU374
 1220 003c 0020     		movs	r0, #0
 1221              		@ sp needed
 1222 003e 10BD     		pop	{r4, pc}
 1223              	.LVL132:
ARM GAS  C:\Users\Daniel\AppData\Local\Temp\ccnluvCc.s 			page 30


 1224              	.L53:
 329:Drivers/STM32F0xx_HAL_Driver/Src/stm32f0xx_ll_usb.c **** 
 1225              		.loc 1 329 7 is_stmt 1 view .LVU375
 1226              	.LBB37:
 329:Drivers/STM32F0xx_HAL_Driver/Src/stm32f0xx_ll_usb.c **** 
 1227              		.loc 1 329 7 view .LVU376
 329:Drivers/STM32F0xx_HAL_Driver/Src/stm32f0xx_ll_usb.c **** 
 1228              		.loc 1 329 7 view .LVU377
 1229 0040 0B78     		ldrb	r3, [r1]
 1230 0042 9B00     		lsls	r3, r3, #2
 1231 0044 C318     		adds	r3, r0, r3
 1232 0046 1A88     		ldrh	r2, [r3]
 1233              	.LVL133:
 329:Drivers/STM32F0xx_HAL_Driver/Src/stm32f0xx_ll_usb.c **** 
 1234              		.loc 1 329 7 view .LVU378
 1235 0048 5204     		lsls	r2, r2, #17
 1236 004a 06D5     		bpl	.L56
 1237              	.LVL134:
 329:Drivers/STM32F0xx_HAL_Driver/Src/stm32f0xx_ll_usb.c **** 
 1238              		.loc 1 329 7 discriminator 1 view .LVU379
 1239              	.LBB38:
 329:Drivers/STM32F0xx_HAL_Driver/Src/stm32f0xx_ll_usb.c **** 
 1240              		.loc 1 329 7 discriminator 1 view .LVU380
 329:Drivers/STM32F0xx_HAL_Driver/Src/stm32f0xx_ll_usb.c **** 
 1241              		.loc 1 329 7 discriminator 1 view .LVU381
 1242 004c 1C88     		ldrh	r4, [r3]
 1243 004e 424A     		ldr	r2, .L68
 1244 0050 1440     		ands	r4, r2
 1245              	.LVL135:
 329:Drivers/STM32F0xx_HAL_Driver/Src/stm32f0xx_ll_usb.c **** 
 1246              		.loc 1 329 7 discriminator 1 view .LVU382
 1247 0052 454A     		ldr	r2, .L68+16
 1248 0054 2243     		orrs	r2, r4
 1249 0056 92B2     		uxth	r2, r2
 1250 0058 1A80     		strh	r2, [r3]
 1251              	.LVL136:
 1252              	.L56:
 329:Drivers/STM32F0xx_HAL_Driver/Src/stm32f0xx_ll_usb.c **** 
 1253              		.loc 1 329 7 is_stmt 0 discriminator 1 view .LVU383
 1254              	.LBE38:
 329:Drivers/STM32F0xx_HAL_Driver/Src/stm32f0xx_ll_usb.c **** 
 1255              		.loc 1 329 7 is_stmt 1 discriminator 3 view .LVU384
 1256              	.LBE37:
 329:Drivers/STM32F0xx_HAL_Driver/Src/stm32f0xx_ll_usb.c **** 
 1257              		.loc 1 329 7 discriminator 3 view .LVU385
 332:Drivers/STM32F0xx_HAL_Driver/Src/stm32f0xx_ll_usb.c ****     }
 1258              		.loc 1 332 7 discriminator 3 view .LVU386
 1259              	.LBB39:
 332:Drivers/STM32F0xx_HAL_Driver/Src/stm32f0xx_ll_usb.c ****     }
 1260              		.loc 1 332 7 discriminator 3 view .LVU387
 332:Drivers/STM32F0xx_HAL_Driver/Src/stm32f0xx_ll_usb.c ****     }
 1261              		.loc 1 332 7 discriminator 3 view .LVU388
 1262 005a 0B78     		ldrb	r3, [r1]
 1263 005c 9B00     		lsls	r3, r3, #2
 1264 005e C318     		adds	r3, r0, r3
 1265 0060 1988     		ldrh	r1, [r3]
 1266              	.LVL137:
ARM GAS  C:\Users\Daniel\AppData\Local\Temp\ccnluvCc.s 			page 31


 332:Drivers/STM32F0xx_HAL_Driver/Src/stm32f0xx_ll_usb.c ****     }
 1267              		.loc 1 332 7 is_stmt 0 discriminator 3 view .LVU389
 1268 0062 424A     		ldr	r2, .L68+20
 1269 0064 1140     		ands	r1, r2
 1270              	.LVL138:
 332:Drivers/STM32F0xx_HAL_Driver/Src/stm32f0xx_ll_usb.c ****     }
 1271              		.loc 1 332 7 is_stmt 1 discriminator 3 view .LVU390
 332:Drivers/STM32F0xx_HAL_Driver/Src/stm32f0xx_ll_usb.c ****     }
 1272              		.loc 1 332 7 discriminator 3 view .LVU391
 332:Drivers/STM32F0xx_HAL_Driver/Src/stm32f0xx_ll_usb.c ****     }
 1273              		.loc 1 332 7 discriminator 3 view .LVU392
 1274 0066 3F4A     		ldr	r2, .L68+12
 1275 0068 0A43     		orrs	r2, r1
 1276 006a 92B2     		uxth	r2, r2
 1277 006c 1A80     		strh	r2, [r3]
 1278 006e E5E7     		b	.L55
 1279              	.LVL139:
 1280              	.L52:
 332:Drivers/STM32F0xx_HAL_Driver/Src/stm32f0xx_ll_usb.c ****     }
 1281              		.loc 1 332 7 is_stmt 0 discriminator 3 view .LVU393
 1282              	.LBE39:
 339:Drivers/STM32F0xx_HAL_Driver/Src/stm32f0xx_ll_usb.c ****     {
 1283              		.loc 1 339 5 is_stmt 1 view .LVU394
 339:Drivers/STM32F0xx_HAL_Driver/Src/stm32f0xx_ll_usb.c ****     {
 1284              		.loc 1 339 11 is_stmt 0 view .LVU395
 1285 0070 4B78     		ldrb	r3, [r1, #1]
 339:Drivers/STM32F0xx_HAL_Driver/Src/stm32f0xx_ll_usb.c ****     {
 1286              		.loc 1 339 8 view .LVU396
 1287 0072 002B     		cmp	r3, #0
 1288 0074 37D1     		bne	.L57
 342:Drivers/STM32F0xx_HAL_Driver/Src/stm32f0xx_ll_usb.c ****       PCD_CLEAR_TX_DTOG(USBx, ep->num);
 1289              		.loc 1 342 7 is_stmt 1 view .LVU397
 1290              	.LBB40:
 342:Drivers/STM32F0xx_HAL_Driver/Src/stm32f0xx_ll_usb.c ****       PCD_CLEAR_TX_DTOG(USBx, ep->num);
 1291              		.loc 1 342 7 view .LVU398
 342:Drivers/STM32F0xx_HAL_Driver/Src/stm32f0xx_ll_usb.c ****       PCD_CLEAR_TX_DTOG(USBx, ep->num);
 1292              		.loc 1 342 7 view .LVU399
 1293 0076 0B78     		ldrb	r3, [r1]
 1294 0078 9B00     		lsls	r3, r3, #2
 1295 007a C318     		adds	r3, r0, r3
 1296 007c 1A88     		ldrh	r2, [r3]
 1297              	.LVL140:
 342:Drivers/STM32F0xx_HAL_Driver/Src/stm32f0xx_ll_usb.c ****       PCD_CLEAR_TX_DTOG(USBx, ep->num);
 1298              		.loc 1 342 7 view .LVU400
 1299 007e 5204     		lsls	r2, r2, #17
 1300 0080 06D5     		bpl	.L58
 1301              	.LVL141:
 342:Drivers/STM32F0xx_HAL_Driver/Src/stm32f0xx_ll_usb.c ****       PCD_CLEAR_TX_DTOG(USBx, ep->num);
 1302              		.loc 1 342 7 discriminator 1 view .LVU401
 1303              	.LBB41:
 342:Drivers/STM32F0xx_HAL_Driver/Src/stm32f0xx_ll_usb.c ****       PCD_CLEAR_TX_DTOG(USBx, ep->num);
 1304              		.loc 1 342 7 discriminator 1 view .LVU402
 342:Drivers/STM32F0xx_HAL_Driver/Src/stm32f0xx_ll_usb.c ****       PCD_CLEAR_TX_DTOG(USBx, ep->num);
 1305              		.loc 1 342 7 discriminator 1 view .LVU403
 1306 0082 1C88     		ldrh	r4, [r3]
 1307 0084 344A     		ldr	r2, .L68
 1308 0086 1440     		ands	r4, r2
ARM GAS  C:\Users\Daniel\AppData\Local\Temp\ccnluvCc.s 			page 32


 1309              	.LVL142:
 342:Drivers/STM32F0xx_HAL_Driver/Src/stm32f0xx_ll_usb.c ****       PCD_CLEAR_TX_DTOG(USBx, ep->num);
 1310              		.loc 1 342 7 discriminator 1 view .LVU404
 1311 0088 374A     		ldr	r2, .L68+16
 1312 008a 2243     		orrs	r2, r4
 1313 008c 92B2     		uxth	r2, r2
 1314 008e 1A80     		strh	r2, [r3]
 1315              	.LVL143:
 1316              	.L58:
 342:Drivers/STM32F0xx_HAL_Driver/Src/stm32f0xx_ll_usb.c ****       PCD_CLEAR_TX_DTOG(USBx, ep->num);
 1317              		.loc 1 342 7 is_stmt 0 discriminator 1 view .LVU405
 1318              	.LBE41:
 342:Drivers/STM32F0xx_HAL_Driver/Src/stm32f0xx_ll_usb.c ****       PCD_CLEAR_TX_DTOG(USBx, ep->num);
 1319              		.loc 1 342 7 is_stmt 1 discriminator 3 view .LVU406
 1320              	.LBE40:
 342:Drivers/STM32F0xx_HAL_Driver/Src/stm32f0xx_ll_usb.c ****       PCD_CLEAR_TX_DTOG(USBx, ep->num);
 1321              		.loc 1 342 7 discriminator 3 view .LVU407
 343:Drivers/STM32F0xx_HAL_Driver/Src/stm32f0xx_ll_usb.c **** 
 1322              		.loc 1 343 7 discriminator 3 view .LVU408
 1323              	.LBB42:
 343:Drivers/STM32F0xx_HAL_Driver/Src/stm32f0xx_ll_usb.c **** 
 1324              		.loc 1 343 7 discriminator 3 view .LVU409
 343:Drivers/STM32F0xx_HAL_Driver/Src/stm32f0xx_ll_usb.c **** 
 1325              		.loc 1 343 7 discriminator 3 view .LVU410
 1326 0090 0B78     		ldrb	r3, [r1]
 1327 0092 9B00     		lsls	r3, r3, #2
 1328 0094 C318     		adds	r3, r0, r3
 1329 0096 1A88     		ldrh	r2, [r3]
 1330              	.LVL144:
 343:Drivers/STM32F0xx_HAL_Driver/Src/stm32f0xx_ll_usb.c **** 
 1331              		.loc 1 343 7 discriminator 3 view .LVU411
 1332 0098 5206     		lsls	r2, r2, #25
 1333 009a 06D5     		bpl	.L59
 1334              	.LVL145:
 343:Drivers/STM32F0xx_HAL_Driver/Src/stm32f0xx_ll_usb.c **** 
 1335              		.loc 1 343 7 discriminator 1 view .LVU412
 1336              	.LBB43:
 343:Drivers/STM32F0xx_HAL_Driver/Src/stm32f0xx_ll_usb.c **** 
 1337              		.loc 1 343 7 discriminator 1 view .LVU413
 343:Drivers/STM32F0xx_HAL_Driver/Src/stm32f0xx_ll_usb.c **** 
 1338              		.loc 1 343 7 discriminator 1 view .LVU414
 1339 009c 1C88     		ldrh	r4, [r3]
 1340 009e 2E4A     		ldr	r2, .L68
 1341 00a0 1440     		ands	r4, r2
 1342              	.LVL146:
 343:Drivers/STM32F0xx_HAL_Driver/Src/stm32f0xx_ll_usb.c **** 
 1343              		.loc 1 343 7 discriminator 1 view .LVU415
 1344 00a2 2E4A     		ldr	r2, .L68+4
 1345 00a4 2243     		orrs	r2, r4
 1346 00a6 92B2     		uxth	r2, r2
 1347 00a8 1A80     		strh	r2, [r3]
 1348              	.LVL147:
 1349              	.L59:
 343:Drivers/STM32F0xx_HAL_Driver/Src/stm32f0xx_ll_usb.c **** 
 1350              		.loc 1 343 7 is_stmt 0 discriminator 1 view .LVU416
 1351              	.LBE43:
 343:Drivers/STM32F0xx_HAL_Driver/Src/stm32f0xx_ll_usb.c **** 
ARM GAS  C:\Users\Daniel\AppData\Local\Temp\ccnluvCc.s 			page 33


 1352              		.loc 1 343 7 is_stmt 1 discriminator 3 view .LVU417
 1353              	.LBE42:
 343:Drivers/STM32F0xx_HAL_Driver/Src/stm32f0xx_ll_usb.c **** 
 1354              		.loc 1 343 7 discriminator 3 view .LVU418
 346:Drivers/STM32F0xx_HAL_Driver/Src/stm32f0xx_ll_usb.c **** 
 1355              		.loc 1 346 7 discriminator 3 view .LVU419
 1356              	.LBB44:
 346:Drivers/STM32F0xx_HAL_Driver/Src/stm32f0xx_ll_usb.c **** 
 1357              		.loc 1 346 7 discriminator 3 view .LVU420
 346:Drivers/STM32F0xx_HAL_Driver/Src/stm32f0xx_ll_usb.c **** 
 1358              		.loc 1 346 7 discriminator 3 view .LVU421
 1359 00aa 0B78     		ldrb	r3, [r1]
 1360 00ac 9B00     		lsls	r3, r3, #2
 1361 00ae C318     		adds	r3, r0, r3
 1362 00b0 1C88     		ldrh	r4, [r3]
 1363 00b2 294A     		ldr	r2, .L68
 1364 00b4 1440     		ands	r4, r2
 1365              	.LVL148:
 346:Drivers/STM32F0xx_HAL_Driver/Src/stm32f0xx_ll_usb.c **** 
 1366              		.loc 1 346 7 discriminator 3 view .LVU422
 1367 00b6 294A     		ldr	r2, .L68+4
 1368 00b8 2243     		orrs	r2, r4
 1369 00ba 92B2     		uxth	r2, r2
 1370 00bc 1A80     		strh	r2, [r3]
 1371              	.LBE44:
 346:Drivers/STM32F0xx_HAL_Driver/Src/stm32f0xx_ll_usb.c **** 
 1372              		.loc 1 346 7 discriminator 3 view .LVU423
 348:Drivers/STM32F0xx_HAL_Driver/Src/stm32f0xx_ll_usb.c ****       PCD_SET_EP_TX_STATUS(USBx, ep->num, USB_EP_TX_DIS);
 1373              		.loc 1 348 7 discriminator 3 view .LVU424
 1374              	.LBB45:
 348:Drivers/STM32F0xx_HAL_Driver/Src/stm32f0xx_ll_usb.c ****       PCD_SET_EP_TX_STATUS(USBx, ep->num, USB_EP_TX_DIS);
 1375              		.loc 1 348 7 discriminator 3 view .LVU425
 348:Drivers/STM32F0xx_HAL_Driver/Src/stm32f0xx_ll_usb.c ****       PCD_SET_EP_TX_STATUS(USBx, ep->num, USB_EP_TX_DIS);
 1376              		.loc 1 348 7 discriminator 3 view .LVU426
 1377 00be 0C78     		ldrb	r4, [r1]
 1378              	.LVL149:
 348:Drivers/STM32F0xx_HAL_Driver/Src/stm32f0xx_ll_usb.c ****       PCD_SET_EP_TX_STATUS(USBx, ep->num, USB_EP_TX_DIS);
 1379              		.loc 1 348 7 is_stmt 0 discriminator 3 view .LVU427
 1380 00c0 A400     		lsls	r4, r4, #2
 1381 00c2 0419     		adds	r4, r0, r4
 1382 00c4 2388     		ldrh	r3, [r4]
 1383 00c6 294A     		ldr	r2, .L68+20
 1384 00c8 1340     		ands	r3, r2
 1385              	.LVL150:
 348:Drivers/STM32F0xx_HAL_Driver/Src/stm32f0xx_ll_usb.c ****       PCD_SET_EP_TX_STATUS(USBx, ep->num, USB_EP_TX_DIS);
 1386              		.loc 1 348 7 is_stmt 1 discriminator 3 view .LVU428
 348:Drivers/STM32F0xx_HAL_Driver/Src/stm32f0xx_ll_usb.c ****       PCD_SET_EP_TX_STATUS(USBx, ep->num, USB_EP_TX_DIS);
 1387              		.loc 1 348 7 discriminator 3 view .LVU429
 348:Drivers/STM32F0xx_HAL_Driver/Src/stm32f0xx_ll_usb.c ****       PCD_SET_EP_TX_STATUS(USBx, ep->num, USB_EP_TX_DIS);
 1388              		.loc 1 348 7 discriminator 3 view .LVU430
 1389 00ca 264A     		ldr	r2, .L68+12
 1390 00cc 1343     		orrs	r3, r2
 1391              	.LVL151:
 348:Drivers/STM32F0xx_HAL_Driver/Src/stm32f0xx_ll_usb.c ****       PCD_SET_EP_TX_STATUS(USBx, ep->num, USB_EP_TX_DIS);
 1392              		.loc 1 348 7 is_stmt 0 discriminator 3 view .LVU431
 1393 00ce 9BB2     		uxth	r3, r3
 1394 00d0 2380     		strh	r3, [r4]
ARM GAS  C:\Users\Daniel\AppData\Local\Temp\ccnluvCc.s 			page 34


 1395              	.LBE45:
 348:Drivers/STM32F0xx_HAL_Driver/Src/stm32f0xx_ll_usb.c ****       PCD_SET_EP_TX_STATUS(USBx, ep->num, USB_EP_TX_DIS);
 1396              		.loc 1 348 7 is_stmt 1 discriminator 3 view .LVU432
 349:Drivers/STM32F0xx_HAL_Driver/Src/stm32f0xx_ll_usb.c ****     }
 1397              		.loc 1 349 7 discriminator 3 view .LVU433
 1398              	.LBB46:
 349:Drivers/STM32F0xx_HAL_Driver/Src/stm32f0xx_ll_usb.c ****     }
 1399              		.loc 1 349 7 discriminator 3 view .LVU434
 349:Drivers/STM32F0xx_HAL_Driver/Src/stm32f0xx_ll_usb.c ****     }
 1400              		.loc 1 349 7 discriminator 3 view .LVU435
 1401 00d2 0B78     		ldrb	r3, [r1]
 1402 00d4 9B00     		lsls	r3, r3, #2
 1403 00d6 C318     		adds	r3, r0, r3
 1404 00d8 1988     		ldrh	r1, [r3]
 1405              	.LVL152:
 349:Drivers/STM32F0xx_HAL_Driver/Src/stm32f0xx_ll_usb.c ****     }
 1406              		.loc 1 349 7 is_stmt 0 discriminator 3 view .LVU436
 1407 00da 2148     		ldr	r0, .L68+8
 1408              	.LVL153:
 349:Drivers/STM32F0xx_HAL_Driver/Src/stm32f0xx_ll_usb.c ****     }
 1409              		.loc 1 349 7 discriminator 3 view .LVU437
 1410 00dc 0140     		ands	r1, r0
 1411              	.LVL154:
 349:Drivers/STM32F0xx_HAL_Driver/Src/stm32f0xx_ll_usb.c ****     }
 1412              		.loc 1 349 7 is_stmt 1 discriminator 3 view .LVU438
 349:Drivers/STM32F0xx_HAL_Driver/Src/stm32f0xx_ll_usb.c ****     }
 1413              		.loc 1 349 7 discriminator 3 view .LVU439
 349:Drivers/STM32F0xx_HAL_Driver/Src/stm32f0xx_ll_usb.c ****     }
 1414              		.loc 1 349 7 discriminator 3 view .LVU440
 1415 00de 0A43     		orrs	r2, r1
 1416 00e0 92B2     		uxth	r2, r2
 1417 00e2 1A80     		strh	r2, [r3]
 1418              	.LBE46:
 349:Drivers/STM32F0xx_HAL_Driver/Src/stm32f0xx_ll_usb.c ****     }
 1419              		.loc 1 349 7 discriminator 3 view .LVU441
 1420 00e4 AAE7     		b	.L55
 1421              	.LVL155:
 1422              	.L57:
 354:Drivers/STM32F0xx_HAL_Driver/Src/stm32f0xx_ll_usb.c ****       PCD_CLEAR_TX_DTOG(USBx, ep->num);
 1423              		.loc 1 354 7 view .LVU442
 1424              	.LBB47:
 354:Drivers/STM32F0xx_HAL_Driver/Src/stm32f0xx_ll_usb.c ****       PCD_CLEAR_TX_DTOG(USBx, ep->num);
 1425              		.loc 1 354 7 view .LVU443
 354:Drivers/STM32F0xx_HAL_Driver/Src/stm32f0xx_ll_usb.c ****       PCD_CLEAR_TX_DTOG(USBx, ep->num);
 1426              		.loc 1 354 7 view .LVU444
 1427 00e6 0B78     		ldrb	r3, [r1]
 1428 00e8 9B00     		lsls	r3, r3, #2
 1429 00ea C318     		adds	r3, r0, r3
 1430 00ec 1A88     		ldrh	r2, [r3]
 1431              	.LVL156:
 354:Drivers/STM32F0xx_HAL_Driver/Src/stm32f0xx_ll_usb.c ****       PCD_CLEAR_TX_DTOG(USBx, ep->num);
 1432              		.loc 1 354 7 view .LVU445
 1433 00ee 5204     		lsls	r2, r2, #17
 1434 00f0 06D5     		bpl	.L60
 1435              	.LVL157:
 354:Drivers/STM32F0xx_HAL_Driver/Src/stm32f0xx_ll_usb.c ****       PCD_CLEAR_TX_DTOG(USBx, ep->num);
 1436              		.loc 1 354 7 discriminator 1 view .LVU446
ARM GAS  C:\Users\Daniel\AppData\Local\Temp\ccnluvCc.s 			page 35


 1437              	.LBB48:
 354:Drivers/STM32F0xx_HAL_Driver/Src/stm32f0xx_ll_usb.c ****       PCD_CLEAR_TX_DTOG(USBx, ep->num);
 1438              		.loc 1 354 7 discriminator 1 view .LVU447
 354:Drivers/STM32F0xx_HAL_Driver/Src/stm32f0xx_ll_usb.c ****       PCD_CLEAR_TX_DTOG(USBx, ep->num);
 1439              		.loc 1 354 7 discriminator 1 view .LVU448
 1440 00f2 1C88     		ldrh	r4, [r3]
 1441 00f4 184A     		ldr	r2, .L68
 1442 00f6 1440     		ands	r4, r2
 1443              	.LVL158:
 354:Drivers/STM32F0xx_HAL_Driver/Src/stm32f0xx_ll_usb.c ****       PCD_CLEAR_TX_DTOG(USBx, ep->num);
 1444              		.loc 1 354 7 discriminator 1 view .LVU449
 1445 00f8 1B4A     		ldr	r2, .L68+16
 1446 00fa 2243     		orrs	r2, r4
 1447 00fc 92B2     		uxth	r2, r2
 1448 00fe 1A80     		strh	r2, [r3]
 1449              	.LVL159:
 1450              	.L60:
 354:Drivers/STM32F0xx_HAL_Driver/Src/stm32f0xx_ll_usb.c ****       PCD_CLEAR_TX_DTOG(USBx, ep->num);
 1451              		.loc 1 354 7 is_stmt 0 discriminator 1 view .LVU450
 1452              	.LBE48:
 354:Drivers/STM32F0xx_HAL_Driver/Src/stm32f0xx_ll_usb.c ****       PCD_CLEAR_TX_DTOG(USBx, ep->num);
 1453              		.loc 1 354 7 is_stmt 1 discriminator 3 view .LVU451
 1454              	.LBE47:
 354:Drivers/STM32F0xx_HAL_Driver/Src/stm32f0xx_ll_usb.c ****       PCD_CLEAR_TX_DTOG(USBx, ep->num);
 1455              		.loc 1 354 7 discriminator 3 view .LVU452
 355:Drivers/STM32F0xx_HAL_Driver/Src/stm32f0xx_ll_usb.c ****       PCD_RX_DTOG(USBx, ep->num);
 1456              		.loc 1 355 7 discriminator 3 view .LVU453
 1457              	.LBB49:
 355:Drivers/STM32F0xx_HAL_Driver/Src/stm32f0xx_ll_usb.c ****       PCD_RX_DTOG(USBx, ep->num);
 1458              		.loc 1 355 7 discriminator 3 view .LVU454
 355:Drivers/STM32F0xx_HAL_Driver/Src/stm32f0xx_ll_usb.c ****       PCD_RX_DTOG(USBx, ep->num);
 1459              		.loc 1 355 7 discriminator 3 view .LVU455
 1460 0100 0B78     		ldrb	r3, [r1]
 1461 0102 9B00     		lsls	r3, r3, #2
 1462 0104 C318     		adds	r3, r0, r3
 1463 0106 1A88     		ldrh	r2, [r3]
 1464              	.LVL160:
 355:Drivers/STM32F0xx_HAL_Driver/Src/stm32f0xx_ll_usb.c ****       PCD_RX_DTOG(USBx, ep->num);
 1465              		.loc 1 355 7 discriminator 3 view .LVU456
 1466 0108 5206     		lsls	r2, r2, #25
 1467 010a 06D5     		bpl	.L61
 1468              	.LVL161:
 355:Drivers/STM32F0xx_HAL_Driver/Src/stm32f0xx_ll_usb.c ****       PCD_RX_DTOG(USBx, ep->num);
 1469              		.loc 1 355 7 discriminator 1 view .LVU457
 1470              	.LBB50:
 355:Drivers/STM32F0xx_HAL_Driver/Src/stm32f0xx_ll_usb.c ****       PCD_RX_DTOG(USBx, ep->num);
 1471              		.loc 1 355 7 discriminator 1 view .LVU458
 355:Drivers/STM32F0xx_HAL_Driver/Src/stm32f0xx_ll_usb.c ****       PCD_RX_DTOG(USBx, ep->num);
 1472              		.loc 1 355 7 discriminator 1 view .LVU459
 1473 010c 1C88     		ldrh	r4, [r3]
 1474 010e 124A     		ldr	r2, .L68
 1475 0110 1440     		ands	r4, r2
 1476              	.LVL162:
 355:Drivers/STM32F0xx_HAL_Driver/Src/stm32f0xx_ll_usb.c ****       PCD_RX_DTOG(USBx, ep->num);
 1477              		.loc 1 355 7 discriminator 1 view .LVU460
 1478 0112 124A     		ldr	r2, .L68+4
 1479 0114 2243     		orrs	r2, r4
ARM GAS  C:\Users\Daniel\AppData\Local\Temp\ccnluvCc.s 			page 36


 1480 0116 92B2     		uxth	r2, r2
 1481 0118 1A80     		strh	r2, [r3]
 1482              	.LVL163:
 1483              	.L61:
 355:Drivers/STM32F0xx_HAL_Driver/Src/stm32f0xx_ll_usb.c ****       PCD_RX_DTOG(USBx, ep->num);
 1484              		.loc 1 355 7 is_stmt 0 discriminator 1 view .LVU461
 1485              	.LBE50:
 355:Drivers/STM32F0xx_HAL_Driver/Src/stm32f0xx_ll_usb.c ****       PCD_RX_DTOG(USBx, ep->num);
 1486              		.loc 1 355 7 is_stmt 1 discriminator 3 view .LVU462
 1487              	.LBE49:
 355:Drivers/STM32F0xx_HAL_Driver/Src/stm32f0xx_ll_usb.c ****       PCD_RX_DTOG(USBx, ep->num);
 1488              		.loc 1 355 7 discriminator 3 view .LVU463
 356:Drivers/STM32F0xx_HAL_Driver/Src/stm32f0xx_ll_usb.c **** 
 1489              		.loc 1 356 7 discriminator 3 view .LVU464
 1490              	.LBB51:
 356:Drivers/STM32F0xx_HAL_Driver/Src/stm32f0xx_ll_usb.c **** 
 1491              		.loc 1 356 7 discriminator 3 view .LVU465
 356:Drivers/STM32F0xx_HAL_Driver/Src/stm32f0xx_ll_usb.c **** 
 1492              		.loc 1 356 7 discriminator 3 view .LVU466
 1493 011a 0B78     		ldrb	r3, [r1]
 1494 011c 9B00     		lsls	r3, r3, #2
 1495 011e C318     		adds	r3, r0, r3
 1496 0120 1C88     		ldrh	r4, [r3]
 1497 0122 0D4A     		ldr	r2, .L68
 1498 0124 1440     		ands	r4, r2
 1499              	.LVL164:
 356:Drivers/STM32F0xx_HAL_Driver/Src/stm32f0xx_ll_usb.c **** 
 1500              		.loc 1 356 7 discriminator 3 view .LVU467
 1501 0126 104A     		ldr	r2, .L68+16
 1502 0128 2243     		orrs	r2, r4
 1503 012a 92B2     		uxth	r2, r2
 1504 012c 1A80     		strh	r2, [r3]
 1505              	.LBE51:
 356:Drivers/STM32F0xx_HAL_Driver/Src/stm32f0xx_ll_usb.c **** 
 1506              		.loc 1 356 7 discriminator 3 view .LVU468
 359:Drivers/STM32F0xx_HAL_Driver/Src/stm32f0xx_ll_usb.c ****       PCD_SET_EP_RX_STATUS(USBx, ep->num, USB_EP_RX_DIS);
 1507              		.loc 1 359 7 discriminator 3 view .LVU469
 1508              	.LBB52:
 359:Drivers/STM32F0xx_HAL_Driver/Src/stm32f0xx_ll_usb.c ****       PCD_SET_EP_RX_STATUS(USBx, ep->num, USB_EP_RX_DIS);
 1509              		.loc 1 359 7 discriminator 3 view .LVU470
 359:Drivers/STM32F0xx_HAL_Driver/Src/stm32f0xx_ll_usb.c ****       PCD_SET_EP_RX_STATUS(USBx, ep->num, USB_EP_RX_DIS);
 1510              		.loc 1 359 7 discriminator 3 view .LVU471
 1511 012e 0C78     		ldrb	r4, [r1]
 1512              	.LVL165:
 359:Drivers/STM32F0xx_HAL_Driver/Src/stm32f0xx_ll_usb.c ****       PCD_SET_EP_RX_STATUS(USBx, ep->num, USB_EP_RX_DIS);
 1513              		.loc 1 359 7 is_stmt 0 discriminator 3 view .LVU472
 1514 0130 A400     		lsls	r4, r4, #2
 1515 0132 0419     		adds	r4, r0, r4
 1516 0134 2388     		ldrh	r3, [r4]
 1517 0136 0A4A     		ldr	r2, .L68+8
 1518 0138 1340     		ands	r3, r2
 1519              	.LVL166:
 359:Drivers/STM32F0xx_HAL_Driver/Src/stm32f0xx_ll_usb.c ****       PCD_SET_EP_RX_STATUS(USBx, ep->num, USB_EP_RX_DIS);
 1520              		.loc 1 359 7 is_stmt 1 discriminator 3 view .LVU473
 359:Drivers/STM32F0xx_HAL_Driver/Src/stm32f0xx_ll_usb.c ****       PCD_SET_EP_RX_STATUS(USBx, ep->num, USB_EP_RX_DIS);
 1521              		.loc 1 359 7 discriminator 3 view .LVU474
 359:Drivers/STM32F0xx_HAL_Driver/Src/stm32f0xx_ll_usb.c ****       PCD_SET_EP_RX_STATUS(USBx, ep->num, USB_EP_RX_DIS);
ARM GAS  C:\Users\Daniel\AppData\Local\Temp\ccnluvCc.s 			page 37


 1522              		.loc 1 359 7 discriminator 3 view .LVU475
 1523 013a 0A4A     		ldr	r2, .L68+12
 1524 013c 1343     		orrs	r3, r2
 1525              	.LVL167:
 359:Drivers/STM32F0xx_HAL_Driver/Src/stm32f0xx_ll_usb.c ****       PCD_SET_EP_RX_STATUS(USBx, ep->num, USB_EP_RX_DIS);
 1526              		.loc 1 359 7 is_stmt 0 discriminator 3 view .LVU476
 1527 013e 9BB2     		uxth	r3, r3
 1528 0140 2380     		strh	r3, [r4]
 1529              	.LBE52:
 359:Drivers/STM32F0xx_HAL_Driver/Src/stm32f0xx_ll_usb.c ****       PCD_SET_EP_RX_STATUS(USBx, ep->num, USB_EP_RX_DIS);
 1530              		.loc 1 359 7 is_stmt 1 discriminator 3 view .LVU477
 360:Drivers/STM32F0xx_HAL_Driver/Src/stm32f0xx_ll_usb.c ****     }
 1531              		.loc 1 360 7 discriminator 3 view .LVU478
 1532              	.LBB53:
 360:Drivers/STM32F0xx_HAL_Driver/Src/stm32f0xx_ll_usb.c ****     }
 1533              		.loc 1 360 7 discriminator 3 view .LVU479
 360:Drivers/STM32F0xx_HAL_Driver/Src/stm32f0xx_ll_usb.c ****     }
 1534              		.loc 1 360 7 discriminator 3 view .LVU480
 1535 0142 0B78     		ldrb	r3, [r1]
 1536 0144 9B00     		lsls	r3, r3, #2
 1537 0146 C018     		adds	r0, r0, r3
 1538              	.LVL168:
 360:Drivers/STM32F0xx_HAL_Driver/Src/stm32f0xx_ll_usb.c ****     }
 1539              		.loc 1 360 7 is_stmt 0 discriminator 3 view .LVU481
 1540 0148 0388     		ldrh	r3, [r0]
 1541 014a 0849     		ldr	r1, .L68+20
 1542              	.LVL169:
 360:Drivers/STM32F0xx_HAL_Driver/Src/stm32f0xx_ll_usb.c ****     }
 1543              		.loc 1 360 7 discriminator 3 view .LVU482
 1544 014c 0B40     		ands	r3, r1
 1545              	.LVL170:
 360:Drivers/STM32F0xx_HAL_Driver/Src/stm32f0xx_ll_usb.c ****     }
 1546              		.loc 1 360 7 is_stmt 1 discriminator 3 view .LVU483
 360:Drivers/STM32F0xx_HAL_Driver/Src/stm32f0xx_ll_usb.c ****     }
 1547              		.loc 1 360 7 discriminator 3 view .LVU484
 360:Drivers/STM32F0xx_HAL_Driver/Src/stm32f0xx_ll_usb.c ****     }
 1548              		.loc 1 360 7 discriminator 3 view .LVU485
 1549 014e 1A43     		orrs	r2, r3
 1550 0150 92B2     		uxth	r2, r2
 1551 0152 0280     		strh	r2, [r0]
 1552 0154 72E7     		b	.L55
 1553              	.L69:
 1554 0156 C046     		.align	2
 1555              	.L68:
 1556 0158 8F8FFFFF 		.word	-28785
 1557 015c C080FFFF 		.word	-32576
 1558 0160 BF8FFFFF 		.word	-28737
 1559 0164 8080FFFF 		.word	-32640
 1560 0168 80C0FFFF 		.word	-16256
 1561 016c 8FBFFFFF 		.word	-16497
 1562              	.LBE53:
 1563              		.cfi_endproc
 1564              	.LFE46:
 1566              		.section	.text.USB_EPSetStall,"ax",%progbits
 1567              		.align	1
 1568              		.global	USB_EPSetStall
 1569              		.syntax unified
ARM GAS  C:\Users\Daniel\AppData\Local\Temp\ccnluvCc.s 			page 38


 1570              		.code	16
 1571              		.thumb_func
 1573              	USB_EPSetStall:
 1574              	.LVL171:
 1575              	.LFB48:
 367:Drivers/STM32F0xx_HAL_Driver/Src/stm32f0xx_ll_usb.c **** 
 368:Drivers/STM32F0xx_HAL_Driver/Src/stm32f0xx_ll_usb.c **** /**
 369:Drivers/STM32F0xx_HAL_Driver/Src/stm32f0xx_ll_usb.c ****   * @brief  USB_EPStartXfer setup and starts a transfer over an EP
 370:Drivers/STM32F0xx_HAL_Driver/Src/stm32f0xx_ll_usb.c ****   * @param  USBx Selected device
 371:Drivers/STM32F0xx_HAL_Driver/Src/stm32f0xx_ll_usb.c ****   * @param  ep pointer to endpoint structure
 372:Drivers/STM32F0xx_HAL_Driver/Src/stm32f0xx_ll_usb.c ****   * @retval HAL status
 373:Drivers/STM32F0xx_HAL_Driver/Src/stm32f0xx_ll_usb.c ****   */
 374:Drivers/STM32F0xx_HAL_Driver/Src/stm32f0xx_ll_usb.c **** HAL_StatusTypeDef USB_EPStartXfer(USB_TypeDef *USBx, USB_EPTypeDef *ep)
 375:Drivers/STM32F0xx_HAL_Driver/Src/stm32f0xx_ll_usb.c **** {
 376:Drivers/STM32F0xx_HAL_Driver/Src/stm32f0xx_ll_usb.c ****   uint32_t len;
 377:Drivers/STM32F0xx_HAL_Driver/Src/stm32f0xx_ll_usb.c **** #if (USE_USB_DOUBLE_BUFFER == 1U)
 378:Drivers/STM32F0xx_HAL_Driver/Src/stm32f0xx_ll_usb.c ****   uint16_t pmabuffer;
 379:Drivers/STM32F0xx_HAL_Driver/Src/stm32f0xx_ll_usb.c ****   uint16_t wEPVal;
 380:Drivers/STM32F0xx_HAL_Driver/Src/stm32f0xx_ll_usb.c **** #endif /* (USE_USB_DOUBLE_BUFFER == 1U) */
 381:Drivers/STM32F0xx_HAL_Driver/Src/stm32f0xx_ll_usb.c **** 
 382:Drivers/STM32F0xx_HAL_Driver/Src/stm32f0xx_ll_usb.c ****   /* IN endpoint */
 383:Drivers/STM32F0xx_HAL_Driver/Src/stm32f0xx_ll_usb.c ****   if (ep->is_in == 1U)
 384:Drivers/STM32F0xx_HAL_Driver/Src/stm32f0xx_ll_usb.c ****   {
 385:Drivers/STM32F0xx_HAL_Driver/Src/stm32f0xx_ll_usb.c ****     /*Multi packet transfer*/
 386:Drivers/STM32F0xx_HAL_Driver/Src/stm32f0xx_ll_usb.c ****     if (ep->xfer_len > ep->maxpacket)
 387:Drivers/STM32F0xx_HAL_Driver/Src/stm32f0xx_ll_usb.c ****     {
 388:Drivers/STM32F0xx_HAL_Driver/Src/stm32f0xx_ll_usb.c ****       len = ep->maxpacket;
 389:Drivers/STM32F0xx_HAL_Driver/Src/stm32f0xx_ll_usb.c ****     }
 390:Drivers/STM32F0xx_HAL_Driver/Src/stm32f0xx_ll_usb.c ****     else
 391:Drivers/STM32F0xx_HAL_Driver/Src/stm32f0xx_ll_usb.c ****     {
 392:Drivers/STM32F0xx_HAL_Driver/Src/stm32f0xx_ll_usb.c ****       len = ep->xfer_len;
 393:Drivers/STM32F0xx_HAL_Driver/Src/stm32f0xx_ll_usb.c ****     }
 394:Drivers/STM32F0xx_HAL_Driver/Src/stm32f0xx_ll_usb.c **** 
 395:Drivers/STM32F0xx_HAL_Driver/Src/stm32f0xx_ll_usb.c ****     /* configure and validate Tx endpoint */
 396:Drivers/STM32F0xx_HAL_Driver/Src/stm32f0xx_ll_usb.c ****     if (ep->doublebuffer == 0U)
 397:Drivers/STM32F0xx_HAL_Driver/Src/stm32f0xx_ll_usb.c ****     {
 398:Drivers/STM32F0xx_HAL_Driver/Src/stm32f0xx_ll_usb.c ****       USB_WritePMA(USBx, ep->xfer_buff, ep->pmaadress, (uint16_t)len);
 399:Drivers/STM32F0xx_HAL_Driver/Src/stm32f0xx_ll_usb.c ****       PCD_SET_EP_TX_CNT(USBx, ep->num, len);
 400:Drivers/STM32F0xx_HAL_Driver/Src/stm32f0xx_ll_usb.c ****     }
 401:Drivers/STM32F0xx_HAL_Driver/Src/stm32f0xx_ll_usb.c **** #if (USE_USB_DOUBLE_BUFFER == 1U)
 402:Drivers/STM32F0xx_HAL_Driver/Src/stm32f0xx_ll_usb.c ****     else
 403:Drivers/STM32F0xx_HAL_Driver/Src/stm32f0xx_ll_usb.c ****     {
 404:Drivers/STM32F0xx_HAL_Driver/Src/stm32f0xx_ll_usb.c ****       /* double buffer bulk management */
 405:Drivers/STM32F0xx_HAL_Driver/Src/stm32f0xx_ll_usb.c ****       if (ep->type == EP_TYPE_BULK)
 406:Drivers/STM32F0xx_HAL_Driver/Src/stm32f0xx_ll_usb.c ****       {
 407:Drivers/STM32F0xx_HAL_Driver/Src/stm32f0xx_ll_usb.c ****         if (ep->xfer_len_db > ep->maxpacket)
 408:Drivers/STM32F0xx_HAL_Driver/Src/stm32f0xx_ll_usb.c ****         {
 409:Drivers/STM32F0xx_HAL_Driver/Src/stm32f0xx_ll_usb.c ****           /* enable double buffer */
 410:Drivers/STM32F0xx_HAL_Driver/Src/stm32f0xx_ll_usb.c ****           PCD_SET_BULK_EP_DBUF(USBx, ep->num);
 411:Drivers/STM32F0xx_HAL_Driver/Src/stm32f0xx_ll_usb.c **** 
 412:Drivers/STM32F0xx_HAL_Driver/Src/stm32f0xx_ll_usb.c ****           /* each Time to write in PMA xfer_len_db will */
 413:Drivers/STM32F0xx_HAL_Driver/Src/stm32f0xx_ll_usb.c ****           ep->xfer_len_db -= len;
 414:Drivers/STM32F0xx_HAL_Driver/Src/stm32f0xx_ll_usb.c **** 
 415:Drivers/STM32F0xx_HAL_Driver/Src/stm32f0xx_ll_usb.c ****           /* Fill the two first buffer in the Buffer0 & Buffer1 */
 416:Drivers/STM32F0xx_HAL_Driver/Src/stm32f0xx_ll_usb.c ****           if ((PCD_GET_ENDPOINT(USBx, ep->num) & USB_EP_DTOG_TX) != 0U)
 417:Drivers/STM32F0xx_HAL_Driver/Src/stm32f0xx_ll_usb.c ****           {
 418:Drivers/STM32F0xx_HAL_Driver/Src/stm32f0xx_ll_usb.c ****             /* Set the Double buffer counter for pmabuffer1 */
ARM GAS  C:\Users\Daniel\AppData\Local\Temp\ccnluvCc.s 			page 39


 419:Drivers/STM32F0xx_HAL_Driver/Src/stm32f0xx_ll_usb.c ****             PCD_SET_EP_DBUF1_CNT(USBx, ep->num, ep->is_in, len);
 420:Drivers/STM32F0xx_HAL_Driver/Src/stm32f0xx_ll_usb.c ****             pmabuffer = ep->pmaaddr1;
 421:Drivers/STM32F0xx_HAL_Driver/Src/stm32f0xx_ll_usb.c **** 
 422:Drivers/STM32F0xx_HAL_Driver/Src/stm32f0xx_ll_usb.c ****             /* Write the user buffer to USB PMA */
 423:Drivers/STM32F0xx_HAL_Driver/Src/stm32f0xx_ll_usb.c ****             USB_WritePMA(USBx, ep->xfer_buff, pmabuffer, (uint16_t)len);
 424:Drivers/STM32F0xx_HAL_Driver/Src/stm32f0xx_ll_usb.c ****             ep->xfer_buff += len;
 425:Drivers/STM32F0xx_HAL_Driver/Src/stm32f0xx_ll_usb.c **** 
 426:Drivers/STM32F0xx_HAL_Driver/Src/stm32f0xx_ll_usb.c ****             if (ep->xfer_len_db > ep->maxpacket)
 427:Drivers/STM32F0xx_HAL_Driver/Src/stm32f0xx_ll_usb.c ****             {
 428:Drivers/STM32F0xx_HAL_Driver/Src/stm32f0xx_ll_usb.c ****               ep->xfer_len_db -= len;
 429:Drivers/STM32F0xx_HAL_Driver/Src/stm32f0xx_ll_usb.c ****             }
 430:Drivers/STM32F0xx_HAL_Driver/Src/stm32f0xx_ll_usb.c ****             else
 431:Drivers/STM32F0xx_HAL_Driver/Src/stm32f0xx_ll_usb.c ****             {
 432:Drivers/STM32F0xx_HAL_Driver/Src/stm32f0xx_ll_usb.c ****               len = ep->xfer_len_db;
 433:Drivers/STM32F0xx_HAL_Driver/Src/stm32f0xx_ll_usb.c ****               ep->xfer_len_db = 0U;
 434:Drivers/STM32F0xx_HAL_Driver/Src/stm32f0xx_ll_usb.c ****             }
 435:Drivers/STM32F0xx_HAL_Driver/Src/stm32f0xx_ll_usb.c **** 
 436:Drivers/STM32F0xx_HAL_Driver/Src/stm32f0xx_ll_usb.c ****             /* Set the Double buffer counter for pmabuffer0 */
 437:Drivers/STM32F0xx_HAL_Driver/Src/stm32f0xx_ll_usb.c ****             PCD_SET_EP_DBUF0_CNT(USBx, ep->num, ep->is_in, len);
 438:Drivers/STM32F0xx_HAL_Driver/Src/stm32f0xx_ll_usb.c ****             pmabuffer = ep->pmaaddr0;
 439:Drivers/STM32F0xx_HAL_Driver/Src/stm32f0xx_ll_usb.c **** 
 440:Drivers/STM32F0xx_HAL_Driver/Src/stm32f0xx_ll_usb.c ****             /* Write the user buffer to USB PMA */
 441:Drivers/STM32F0xx_HAL_Driver/Src/stm32f0xx_ll_usb.c ****             USB_WritePMA(USBx, ep->xfer_buff, pmabuffer, (uint16_t)len);
 442:Drivers/STM32F0xx_HAL_Driver/Src/stm32f0xx_ll_usb.c ****           }
 443:Drivers/STM32F0xx_HAL_Driver/Src/stm32f0xx_ll_usb.c ****           else
 444:Drivers/STM32F0xx_HAL_Driver/Src/stm32f0xx_ll_usb.c ****           {
 445:Drivers/STM32F0xx_HAL_Driver/Src/stm32f0xx_ll_usb.c ****             /* Set the Double buffer counter for pmabuffer0 */
 446:Drivers/STM32F0xx_HAL_Driver/Src/stm32f0xx_ll_usb.c ****             PCD_SET_EP_DBUF0_CNT(USBx, ep->num, ep->is_in, len);
 447:Drivers/STM32F0xx_HAL_Driver/Src/stm32f0xx_ll_usb.c ****             pmabuffer = ep->pmaaddr0;
 448:Drivers/STM32F0xx_HAL_Driver/Src/stm32f0xx_ll_usb.c **** 
 449:Drivers/STM32F0xx_HAL_Driver/Src/stm32f0xx_ll_usb.c ****             /* Write the user buffer to USB PMA */
 450:Drivers/STM32F0xx_HAL_Driver/Src/stm32f0xx_ll_usb.c ****             USB_WritePMA(USBx, ep->xfer_buff, pmabuffer, (uint16_t)len);
 451:Drivers/STM32F0xx_HAL_Driver/Src/stm32f0xx_ll_usb.c ****             ep->xfer_buff += len;
 452:Drivers/STM32F0xx_HAL_Driver/Src/stm32f0xx_ll_usb.c **** 
 453:Drivers/STM32F0xx_HAL_Driver/Src/stm32f0xx_ll_usb.c ****             if (ep->xfer_len_db > ep->maxpacket)
 454:Drivers/STM32F0xx_HAL_Driver/Src/stm32f0xx_ll_usb.c ****             {
 455:Drivers/STM32F0xx_HAL_Driver/Src/stm32f0xx_ll_usb.c ****               ep->xfer_len_db -= len;
 456:Drivers/STM32F0xx_HAL_Driver/Src/stm32f0xx_ll_usb.c ****             }
 457:Drivers/STM32F0xx_HAL_Driver/Src/stm32f0xx_ll_usb.c ****             else
 458:Drivers/STM32F0xx_HAL_Driver/Src/stm32f0xx_ll_usb.c ****             {
 459:Drivers/STM32F0xx_HAL_Driver/Src/stm32f0xx_ll_usb.c ****               len = ep->xfer_len_db;
 460:Drivers/STM32F0xx_HAL_Driver/Src/stm32f0xx_ll_usb.c ****               ep->xfer_len_db = 0U;
 461:Drivers/STM32F0xx_HAL_Driver/Src/stm32f0xx_ll_usb.c ****             }
 462:Drivers/STM32F0xx_HAL_Driver/Src/stm32f0xx_ll_usb.c **** 
 463:Drivers/STM32F0xx_HAL_Driver/Src/stm32f0xx_ll_usb.c ****             /* Set the Double buffer counter for pmabuffer1 */
 464:Drivers/STM32F0xx_HAL_Driver/Src/stm32f0xx_ll_usb.c ****             PCD_SET_EP_DBUF1_CNT(USBx, ep->num, ep->is_in, len);
 465:Drivers/STM32F0xx_HAL_Driver/Src/stm32f0xx_ll_usb.c ****             pmabuffer = ep->pmaaddr1;
 466:Drivers/STM32F0xx_HAL_Driver/Src/stm32f0xx_ll_usb.c **** 
 467:Drivers/STM32F0xx_HAL_Driver/Src/stm32f0xx_ll_usb.c ****             /* Write the user buffer to USB PMA */
 468:Drivers/STM32F0xx_HAL_Driver/Src/stm32f0xx_ll_usb.c ****             USB_WritePMA(USBx, ep->xfer_buff, pmabuffer, (uint16_t)len);
 469:Drivers/STM32F0xx_HAL_Driver/Src/stm32f0xx_ll_usb.c ****           }
 470:Drivers/STM32F0xx_HAL_Driver/Src/stm32f0xx_ll_usb.c ****         }
 471:Drivers/STM32F0xx_HAL_Driver/Src/stm32f0xx_ll_usb.c ****         /* auto Switch to single buffer mode when transfer <Mps no need to manage in double buffer 
 472:Drivers/STM32F0xx_HAL_Driver/Src/stm32f0xx_ll_usb.c ****         else
 473:Drivers/STM32F0xx_HAL_Driver/Src/stm32f0xx_ll_usb.c ****         {
 474:Drivers/STM32F0xx_HAL_Driver/Src/stm32f0xx_ll_usb.c ****           len = ep->xfer_len_db;
 475:Drivers/STM32F0xx_HAL_Driver/Src/stm32f0xx_ll_usb.c **** 
ARM GAS  C:\Users\Daniel\AppData\Local\Temp\ccnluvCc.s 			page 40


 476:Drivers/STM32F0xx_HAL_Driver/Src/stm32f0xx_ll_usb.c ****           /* disable double buffer mode for Bulk endpoint */
 477:Drivers/STM32F0xx_HAL_Driver/Src/stm32f0xx_ll_usb.c ****           PCD_CLEAR_BULK_EP_DBUF(USBx, ep->num);
 478:Drivers/STM32F0xx_HAL_Driver/Src/stm32f0xx_ll_usb.c **** 
 479:Drivers/STM32F0xx_HAL_Driver/Src/stm32f0xx_ll_usb.c ****           /* Set Tx count with nbre of byte to be transmitted */
 480:Drivers/STM32F0xx_HAL_Driver/Src/stm32f0xx_ll_usb.c ****           PCD_SET_EP_TX_CNT(USBx, ep->num, len);
 481:Drivers/STM32F0xx_HAL_Driver/Src/stm32f0xx_ll_usb.c ****           pmabuffer = ep->pmaaddr0;
 482:Drivers/STM32F0xx_HAL_Driver/Src/stm32f0xx_ll_usb.c **** 
 483:Drivers/STM32F0xx_HAL_Driver/Src/stm32f0xx_ll_usb.c ****           /* Write the user buffer to USB PMA */
 484:Drivers/STM32F0xx_HAL_Driver/Src/stm32f0xx_ll_usb.c ****           USB_WritePMA(USBx, ep->xfer_buff, pmabuffer, (uint16_t)len);
 485:Drivers/STM32F0xx_HAL_Driver/Src/stm32f0xx_ll_usb.c ****         }
 486:Drivers/STM32F0xx_HAL_Driver/Src/stm32f0xx_ll_usb.c ****       }
 487:Drivers/STM32F0xx_HAL_Driver/Src/stm32f0xx_ll_usb.c ****       else /* manage isochronous double buffer IN mode */
 488:Drivers/STM32F0xx_HAL_Driver/Src/stm32f0xx_ll_usb.c ****       {
 489:Drivers/STM32F0xx_HAL_Driver/Src/stm32f0xx_ll_usb.c ****         /* each Time to write in PMA xfer_len_db will */
 490:Drivers/STM32F0xx_HAL_Driver/Src/stm32f0xx_ll_usb.c ****         ep->xfer_len_db -= len;
 491:Drivers/STM32F0xx_HAL_Driver/Src/stm32f0xx_ll_usb.c **** 
 492:Drivers/STM32F0xx_HAL_Driver/Src/stm32f0xx_ll_usb.c ****         /* Fill the data buffer */
 493:Drivers/STM32F0xx_HAL_Driver/Src/stm32f0xx_ll_usb.c ****         if ((PCD_GET_ENDPOINT(USBx, ep->num) & USB_EP_DTOG_TX) != 0U)
 494:Drivers/STM32F0xx_HAL_Driver/Src/stm32f0xx_ll_usb.c ****         {
 495:Drivers/STM32F0xx_HAL_Driver/Src/stm32f0xx_ll_usb.c ****           /* Set the Double buffer counter for pmabuffer1 */
 496:Drivers/STM32F0xx_HAL_Driver/Src/stm32f0xx_ll_usb.c ****           PCD_SET_EP_DBUF1_CNT(USBx, ep->num, ep->is_in, len);
 497:Drivers/STM32F0xx_HAL_Driver/Src/stm32f0xx_ll_usb.c ****           pmabuffer = ep->pmaaddr1;
 498:Drivers/STM32F0xx_HAL_Driver/Src/stm32f0xx_ll_usb.c **** 
 499:Drivers/STM32F0xx_HAL_Driver/Src/stm32f0xx_ll_usb.c ****           /* Write the user buffer to USB PMA */
 500:Drivers/STM32F0xx_HAL_Driver/Src/stm32f0xx_ll_usb.c ****           USB_WritePMA(USBx, ep->xfer_buff, pmabuffer, (uint16_t)len);
 501:Drivers/STM32F0xx_HAL_Driver/Src/stm32f0xx_ll_usb.c ****         }
 502:Drivers/STM32F0xx_HAL_Driver/Src/stm32f0xx_ll_usb.c ****         else
 503:Drivers/STM32F0xx_HAL_Driver/Src/stm32f0xx_ll_usb.c ****         {
 504:Drivers/STM32F0xx_HAL_Driver/Src/stm32f0xx_ll_usb.c ****           /* Set the Double buffer counter for pmabuffer0 */
 505:Drivers/STM32F0xx_HAL_Driver/Src/stm32f0xx_ll_usb.c ****           PCD_SET_EP_DBUF0_CNT(USBx, ep->num, ep->is_in, len);
 506:Drivers/STM32F0xx_HAL_Driver/Src/stm32f0xx_ll_usb.c ****           pmabuffer = ep->pmaaddr0;
 507:Drivers/STM32F0xx_HAL_Driver/Src/stm32f0xx_ll_usb.c **** 
 508:Drivers/STM32F0xx_HAL_Driver/Src/stm32f0xx_ll_usb.c ****           /* Write the user buffer to USB PMA */
 509:Drivers/STM32F0xx_HAL_Driver/Src/stm32f0xx_ll_usb.c ****           USB_WritePMA(USBx, ep->xfer_buff, pmabuffer, (uint16_t)len);
 510:Drivers/STM32F0xx_HAL_Driver/Src/stm32f0xx_ll_usb.c ****         }
 511:Drivers/STM32F0xx_HAL_Driver/Src/stm32f0xx_ll_usb.c ****       }
 512:Drivers/STM32F0xx_HAL_Driver/Src/stm32f0xx_ll_usb.c ****     }
 513:Drivers/STM32F0xx_HAL_Driver/Src/stm32f0xx_ll_usb.c **** #endif /* (USE_USB_DOUBLE_BUFFER == 1U) */
 514:Drivers/STM32F0xx_HAL_Driver/Src/stm32f0xx_ll_usb.c **** 
 515:Drivers/STM32F0xx_HAL_Driver/Src/stm32f0xx_ll_usb.c ****     PCD_SET_EP_TX_STATUS(USBx, ep->num, USB_EP_TX_VALID);
 516:Drivers/STM32F0xx_HAL_Driver/Src/stm32f0xx_ll_usb.c ****   }
 517:Drivers/STM32F0xx_HAL_Driver/Src/stm32f0xx_ll_usb.c ****   else /* OUT endpoint */
 518:Drivers/STM32F0xx_HAL_Driver/Src/stm32f0xx_ll_usb.c ****   {
 519:Drivers/STM32F0xx_HAL_Driver/Src/stm32f0xx_ll_usb.c ****     if (ep->doublebuffer == 0U)
 520:Drivers/STM32F0xx_HAL_Driver/Src/stm32f0xx_ll_usb.c ****     {
 521:Drivers/STM32F0xx_HAL_Driver/Src/stm32f0xx_ll_usb.c ****       /* Multi packet transfer */
 522:Drivers/STM32F0xx_HAL_Driver/Src/stm32f0xx_ll_usb.c ****       if (ep->xfer_len > ep->maxpacket)
 523:Drivers/STM32F0xx_HAL_Driver/Src/stm32f0xx_ll_usb.c ****       {
 524:Drivers/STM32F0xx_HAL_Driver/Src/stm32f0xx_ll_usb.c ****         len = ep->maxpacket;
 525:Drivers/STM32F0xx_HAL_Driver/Src/stm32f0xx_ll_usb.c ****         ep->xfer_len -= len;
 526:Drivers/STM32F0xx_HAL_Driver/Src/stm32f0xx_ll_usb.c ****       }
 527:Drivers/STM32F0xx_HAL_Driver/Src/stm32f0xx_ll_usb.c ****       else
 528:Drivers/STM32F0xx_HAL_Driver/Src/stm32f0xx_ll_usb.c ****       {
 529:Drivers/STM32F0xx_HAL_Driver/Src/stm32f0xx_ll_usb.c ****         len = ep->xfer_len;
 530:Drivers/STM32F0xx_HAL_Driver/Src/stm32f0xx_ll_usb.c ****         ep->xfer_len = 0U;
 531:Drivers/STM32F0xx_HAL_Driver/Src/stm32f0xx_ll_usb.c ****       }
 532:Drivers/STM32F0xx_HAL_Driver/Src/stm32f0xx_ll_usb.c ****       /* configure and validate Rx endpoint */
ARM GAS  C:\Users\Daniel\AppData\Local\Temp\ccnluvCc.s 			page 41


 533:Drivers/STM32F0xx_HAL_Driver/Src/stm32f0xx_ll_usb.c ****       PCD_SET_EP_RX_CNT(USBx, ep->num, len);
 534:Drivers/STM32F0xx_HAL_Driver/Src/stm32f0xx_ll_usb.c ****     }
 535:Drivers/STM32F0xx_HAL_Driver/Src/stm32f0xx_ll_usb.c **** #if (USE_USB_DOUBLE_BUFFER == 1U)
 536:Drivers/STM32F0xx_HAL_Driver/Src/stm32f0xx_ll_usb.c ****     else
 537:Drivers/STM32F0xx_HAL_Driver/Src/stm32f0xx_ll_usb.c ****     {
 538:Drivers/STM32F0xx_HAL_Driver/Src/stm32f0xx_ll_usb.c ****       /* First Transfer Coming From HAL_PCD_EP_Receive & From ISR */
 539:Drivers/STM32F0xx_HAL_Driver/Src/stm32f0xx_ll_usb.c ****       /* Set the Double buffer counter */
 540:Drivers/STM32F0xx_HAL_Driver/Src/stm32f0xx_ll_usb.c ****       if (ep->type == EP_TYPE_BULK)
 541:Drivers/STM32F0xx_HAL_Driver/Src/stm32f0xx_ll_usb.c ****       {
 542:Drivers/STM32F0xx_HAL_Driver/Src/stm32f0xx_ll_usb.c ****         PCD_SET_EP_DBUF_CNT(USBx, ep->num, ep->is_in, ep->maxpacket);
 543:Drivers/STM32F0xx_HAL_Driver/Src/stm32f0xx_ll_usb.c **** 
 544:Drivers/STM32F0xx_HAL_Driver/Src/stm32f0xx_ll_usb.c ****         /* Coming from ISR */
 545:Drivers/STM32F0xx_HAL_Driver/Src/stm32f0xx_ll_usb.c ****         if (ep->xfer_count != 0U)
 546:Drivers/STM32F0xx_HAL_Driver/Src/stm32f0xx_ll_usb.c ****         {
 547:Drivers/STM32F0xx_HAL_Driver/Src/stm32f0xx_ll_usb.c ****           /* update last value to check if there is blocking state */
 548:Drivers/STM32F0xx_HAL_Driver/Src/stm32f0xx_ll_usb.c ****           wEPVal = PCD_GET_ENDPOINT(USBx, ep->num);
 549:Drivers/STM32F0xx_HAL_Driver/Src/stm32f0xx_ll_usb.c **** 
 550:Drivers/STM32F0xx_HAL_Driver/Src/stm32f0xx_ll_usb.c ****           /*Blocking State */
 551:Drivers/STM32F0xx_HAL_Driver/Src/stm32f0xx_ll_usb.c ****           if ((((wEPVal & USB_EP_DTOG_RX) != 0U) && ((wEPVal & USB_EP_DTOG_TX) != 0U)) ||
 552:Drivers/STM32F0xx_HAL_Driver/Src/stm32f0xx_ll_usb.c ****               (((wEPVal & USB_EP_DTOG_RX) == 0U) && ((wEPVal & USB_EP_DTOG_TX) == 0U)))
 553:Drivers/STM32F0xx_HAL_Driver/Src/stm32f0xx_ll_usb.c ****           {
 554:Drivers/STM32F0xx_HAL_Driver/Src/stm32f0xx_ll_usb.c ****             PCD_FREE_USER_BUFFER(USBx, ep->num, 0U);
 555:Drivers/STM32F0xx_HAL_Driver/Src/stm32f0xx_ll_usb.c ****           }
 556:Drivers/STM32F0xx_HAL_Driver/Src/stm32f0xx_ll_usb.c ****         }
 557:Drivers/STM32F0xx_HAL_Driver/Src/stm32f0xx_ll_usb.c ****       }
 558:Drivers/STM32F0xx_HAL_Driver/Src/stm32f0xx_ll_usb.c ****       /* iso out double */
 559:Drivers/STM32F0xx_HAL_Driver/Src/stm32f0xx_ll_usb.c ****       else if (ep->type == EP_TYPE_ISOC)
 560:Drivers/STM32F0xx_HAL_Driver/Src/stm32f0xx_ll_usb.c ****       {
 561:Drivers/STM32F0xx_HAL_Driver/Src/stm32f0xx_ll_usb.c ****         /* Multi packet transfer */
 562:Drivers/STM32F0xx_HAL_Driver/Src/stm32f0xx_ll_usb.c ****         if (ep->xfer_len > ep->maxpacket)
 563:Drivers/STM32F0xx_HAL_Driver/Src/stm32f0xx_ll_usb.c ****         {
 564:Drivers/STM32F0xx_HAL_Driver/Src/stm32f0xx_ll_usb.c ****           len = ep->maxpacket;
 565:Drivers/STM32F0xx_HAL_Driver/Src/stm32f0xx_ll_usb.c ****           ep->xfer_len -= len;
 566:Drivers/STM32F0xx_HAL_Driver/Src/stm32f0xx_ll_usb.c ****         }
 567:Drivers/STM32F0xx_HAL_Driver/Src/stm32f0xx_ll_usb.c ****         else
 568:Drivers/STM32F0xx_HAL_Driver/Src/stm32f0xx_ll_usb.c ****         {
 569:Drivers/STM32F0xx_HAL_Driver/Src/stm32f0xx_ll_usb.c ****           len = ep->xfer_len;
 570:Drivers/STM32F0xx_HAL_Driver/Src/stm32f0xx_ll_usb.c ****           ep->xfer_len = 0U;
 571:Drivers/STM32F0xx_HAL_Driver/Src/stm32f0xx_ll_usb.c ****         }
 572:Drivers/STM32F0xx_HAL_Driver/Src/stm32f0xx_ll_usb.c ****         PCD_SET_EP_DBUF_CNT(USBx, ep->num, ep->is_in, len);
 573:Drivers/STM32F0xx_HAL_Driver/Src/stm32f0xx_ll_usb.c ****       }
 574:Drivers/STM32F0xx_HAL_Driver/Src/stm32f0xx_ll_usb.c ****       else
 575:Drivers/STM32F0xx_HAL_Driver/Src/stm32f0xx_ll_usb.c ****       {
 576:Drivers/STM32F0xx_HAL_Driver/Src/stm32f0xx_ll_usb.c ****         return HAL_ERROR;
 577:Drivers/STM32F0xx_HAL_Driver/Src/stm32f0xx_ll_usb.c ****       }
 578:Drivers/STM32F0xx_HAL_Driver/Src/stm32f0xx_ll_usb.c ****     }
 579:Drivers/STM32F0xx_HAL_Driver/Src/stm32f0xx_ll_usb.c **** #endif /* (USE_USB_DOUBLE_BUFFER == 1U) */
 580:Drivers/STM32F0xx_HAL_Driver/Src/stm32f0xx_ll_usb.c **** 
 581:Drivers/STM32F0xx_HAL_Driver/Src/stm32f0xx_ll_usb.c ****     PCD_SET_EP_RX_STATUS(USBx, ep->num, USB_EP_RX_VALID);
 582:Drivers/STM32F0xx_HAL_Driver/Src/stm32f0xx_ll_usb.c ****   }
 583:Drivers/STM32F0xx_HAL_Driver/Src/stm32f0xx_ll_usb.c **** 
 584:Drivers/STM32F0xx_HAL_Driver/Src/stm32f0xx_ll_usb.c ****   return HAL_OK;
 585:Drivers/STM32F0xx_HAL_Driver/Src/stm32f0xx_ll_usb.c **** }
 586:Drivers/STM32F0xx_HAL_Driver/Src/stm32f0xx_ll_usb.c **** 
 587:Drivers/STM32F0xx_HAL_Driver/Src/stm32f0xx_ll_usb.c **** 
 588:Drivers/STM32F0xx_HAL_Driver/Src/stm32f0xx_ll_usb.c **** /**
 589:Drivers/STM32F0xx_HAL_Driver/Src/stm32f0xx_ll_usb.c ****   * @brief  USB_EPSetStall set a stall condition over an EP
ARM GAS  C:\Users\Daniel\AppData\Local\Temp\ccnluvCc.s 			page 42


 590:Drivers/STM32F0xx_HAL_Driver/Src/stm32f0xx_ll_usb.c ****   * @param  USBx Selected device
 591:Drivers/STM32F0xx_HAL_Driver/Src/stm32f0xx_ll_usb.c ****   * @param  ep pointer to endpoint structure
 592:Drivers/STM32F0xx_HAL_Driver/Src/stm32f0xx_ll_usb.c ****   * @retval HAL status
 593:Drivers/STM32F0xx_HAL_Driver/Src/stm32f0xx_ll_usb.c ****   */
 594:Drivers/STM32F0xx_HAL_Driver/Src/stm32f0xx_ll_usb.c **** HAL_StatusTypeDef USB_EPSetStall(USB_TypeDef *USBx, USB_EPTypeDef *ep)
 595:Drivers/STM32F0xx_HAL_Driver/Src/stm32f0xx_ll_usb.c **** {
 1576              		.loc 1 595 1 view -0
 1577              		.cfi_startproc
 1578              		@ args = 0, pretend = 0, frame = 0
 1579              		@ frame_needed = 0, uses_anonymous_args = 0
 1580              		@ link register save eliminated.
 596:Drivers/STM32F0xx_HAL_Driver/Src/stm32f0xx_ll_usb.c ****   if (ep->is_in != 0U)
 1581              		.loc 1 596 3 view .LVU487
 1582              		.loc 1 596 9 is_stmt 0 view .LVU488
 1583 0000 4B78     		ldrb	r3, [r1, #1]
 1584              		.loc 1 596 6 view .LVU489
 1585 0002 002B     		cmp	r3, #0
 1586 0004 0ED0     		beq	.L71
 597:Drivers/STM32F0xx_HAL_Driver/Src/stm32f0xx_ll_usb.c ****   {
 598:Drivers/STM32F0xx_HAL_Driver/Src/stm32f0xx_ll_usb.c ****     PCD_SET_EP_TX_STATUS(USBx, ep->num, USB_EP_TX_STALL);
 1587              		.loc 1 598 5 is_stmt 1 view .LVU490
 1588              	.LBB54:
 1589              		.loc 1 598 5 view .LVU491
 1590              		.loc 1 598 5 view .LVU492
 1591 0006 0B78     		ldrb	r3, [r1]
 1592 0008 9B00     		lsls	r3, r3, #2
 1593 000a C018     		adds	r0, r0, r3
 1594              	.LVL172:
 1595              		.loc 1 598 5 is_stmt 0 view .LVU493
 1596 000c 0388     		ldrh	r3, [r0]
 1597 000e 0C4A     		ldr	r2, .L73
 1598 0010 1340     		ands	r3, r2
 1599              	.LVL173:
 1600              		.loc 1 598 5 is_stmt 1 view .LVU494
 1601              		.loc 1 598 5 view .LVU495
 1602 0012 1022     		movs	r2, #16
 1603 0014 5340     		eors	r3, r2
 1604              	.LVL174:
 1605              		.loc 1 598 5 is_stmt 0 view .LVU496
 1606 0016 9BB2     		uxth	r3, r3
 1607              	.LVL175:
 1608              		.loc 1 598 5 is_stmt 1 view .LVU497
 1609              		.loc 1 598 5 view .LVU498
 1610 0018 0A4A     		ldr	r2, .L73+4
 1611 001a 1343     		orrs	r3, r2
 1612              	.LVL176:
 1613              		.loc 1 598 5 is_stmt 0 view .LVU499
 1614 001c 9BB2     		uxth	r3, r3
 1615 001e 0380     		strh	r3, [r0]
 1616              	.LBE54:
 1617              		.loc 1 598 5 is_stmt 1 view .LVU500
 1618              	.LVL177:
 1619              	.L72:
 599:Drivers/STM32F0xx_HAL_Driver/Src/stm32f0xx_ll_usb.c ****   }
 600:Drivers/STM32F0xx_HAL_Driver/Src/stm32f0xx_ll_usb.c ****   else
 601:Drivers/STM32F0xx_HAL_Driver/Src/stm32f0xx_ll_usb.c ****   {
 602:Drivers/STM32F0xx_HAL_Driver/Src/stm32f0xx_ll_usb.c ****     PCD_SET_EP_RX_STATUS(USBx, ep->num, USB_EP_RX_STALL);
ARM GAS  C:\Users\Daniel\AppData\Local\Temp\ccnluvCc.s 			page 43


 1620              		.loc 1 602 5 discriminator 7 view .LVU501
 603:Drivers/STM32F0xx_HAL_Driver/Src/stm32f0xx_ll_usb.c ****   }
 604:Drivers/STM32F0xx_HAL_Driver/Src/stm32f0xx_ll_usb.c **** 
 605:Drivers/STM32F0xx_HAL_Driver/Src/stm32f0xx_ll_usb.c ****   return HAL_OK;
 1621              		.loc 1 605 3 discriminator 7 view .LVU502
 606:Drivers/STM32F0xx_HAL_Driver/Src/stm32f0xx_ll_usb.c **** }
 1622              		.loc 1 606 1 is_stmt 0 discriminator 7 view .LVU503
 1623 0020 0020     		movs	r0, #0
 1624              		@ sp needed
 1625 0022 7047     		bx	lr
 1626              	.LVL178:
 1627              	.L71:
 602:Drivers/STM32F0xx_HAL_Driver/Src/stm32f0xx_ll_usb.c ****   }
 1628              		.loc 1 602 5 is_stmt 1 view .LVU504
 1629              	.LBB55:
 602:Drivers/STM32F0xx_HAL_Driver/Src/stm32f0xx_ll_usb.c ****   }
 1630              		.loc 1 602 5 view .LVU505
 602:Drivers/STM32F0xx_HAL_Driver/Src/stm32f0xx_ll_usb.c ****   }
 1631              		.loc 1 602 5 view .LVU506
 1632 0024 0B78     		ldrb	r3, [r1]
 1633 0026 9B00     		lsls	r3, r3, #2
 1634 0028 C018     		adds	r0, r0, r3
 1635              	.LVL179:
 602:Drivers/STM32F0xx_HAL_Driver/Src/stm32f0xx_ll_usb.c ****   }
 1636              		.loc 1 602 5 is_stmt 0 view .LVU507
 1637 002a 0388     		ldrh	r3, [r0]
 1638 002c 064A     		ldr	r2, .L73+8
 1639 002e 1340     		ands	r3, r2
 1640              	.LVL180:
 602:Drivers/STM32F0xx_HAL_Driver/Src/stm32f0xx_ll_usb.c ****   }
 1641              		.loc 1 602 5 is_stmt 1 view .LVU508
 602:Drivers/STM32F0xx_HAL_Driver/Src/stm32f0xx_ll_usb.c ****   }
 1642              		.loc 1 602 5 view .LVU509
 1643 0030 8022     		movs	r2, #128
 1644 0032 5201     		lsls	r2, r2, #5
 1645 0034 5A40     		eors	r2, r3
 1646              	.LVL181:
 602:Drivers/STM32F0xx_HAL_Driver/Src/stm32f0xx_ll_usb.c ****   }
 1647              		.loc 1 602 5 view .LVU510
 602:Drivers/STM32F0xx_HAL_Driver/Src/stm32f0xx_ll_usb.c ****   }
 1648              		.loc 1 602 5 view .LVU511
 1649 0036 034B     		ldr	r3, .L73+4
 1650 0038 1343     		orrs	r3, r2
 1651 003a 9BB2     		uxth	r3, r3
 1652 003c 0380     		strh	r3, [r0]
 1653 003e EFE7     		b	.L72
 1654              	.L74:
 1655              		.align	2
 1656              	.L73:
 1657 0040 BF8FFFFF 		.word	-28737
 1658 0044 8080FFFF 		.word	-32640
 1659 0048 8FBFFFFF 		.word	-16497
 1660              	.LBE55:
 1661              		.cfi_endproc
 1662              	.LFE48:
 1664              		.section	.text.USB_EPClearStall,"ax",%progbits
 1665              		.align	1
ARM GAS  C:\Users\Daniel\AppData\Local\Temp\ccnluvCc.s 			page 44


 1666              		.global	USB_EPClearStall
 1667              		.syntax unified
 1668              		.code	16
 1669              		.thumb_func
 1671              	USB_EPClearStall:
 1672              	.LVL182:
 1673              	.LFB49:
 607:Drivers/STM32F0xx_HAL_Driver/Src/stm32f0xx_ll_usb.c **** 
 608:Drivers/STM32F0xx_HAL_Driver/Src/stm32f0xx_ll_usb.c **** /**
 609:Drivers/STM32F0xx_HAL_Driver/Src/stm32f0xx_ll_usb.c ****   * @brief  USB_EPClearStall Clear a stall condition over an EP
 610:Drivers/STM32F0xx_HAL_Driver/Src/stm32f0xx_ll_usb.c ****   * @param  USBx Selected device
 611:Drivers/STM32F0xx_HAL_Driver/Src/stm32f0xx_ll_usb.c ****   * @param  ep pointer to endpoint structure
 612:Drivers/STM32F0xx_HAL_Driver/Src/stm32f0xx_ll_usb.c ****   * @retval HAL status
 613:Drivers/STM32F0xx_HAL_Driver/Src/stm32f0xx_ll_usb.c ****   */
 614:Drivers/STM32F0xx_HAL_Driver/Src/stm32f0xx_ll_usb.c **** HAL_StatusTypeDef USB_EPClearStall(USB_TypeDef *USBx, USB_EPTypeDef *ep)
 615:Drivers/STM32F0xx_HAL_Driver/Src/stm32f0xx_ll_usb.c **** {
 1674              		.loc 1 615 1 view -0
 1675              		.cfi_startproc
 1676              		@ args = 0, pretend = 0, frame = 0
 1677              		@ frame_needed = 0, uses_anonymous_args = 0
 1678              		.loc 1 615 1 is_stmt 0 view .LVU513
 1679 0000 10B5     		push	{r4, lr}
 1680              		.cfi_def_cfa_offset 8
 1681              		.cfi_offset 4, -8
 1682              		.cfi_offset 14, -4
 616:Drivers/STM32F0xx_HAL_Driver/Src/stm32f0xx_ll_usb.c ****   if (ep->doublebuffer == 0U)
 1683              		.loc 1 616 3 is_stmt 1 view .LVU514
 1684              		.loc 1 616 9 is_stmt 0 view .LVU515
 1685 0002 0B7B     		ldrb	r3, [r1, #12]
 1686              		.loc 1 616 6 view .LVU516
 1687 0004 002B     		cmp	r3, #0
 1688 0006 3AD1     		bne	.L76
 617:Drivers/STM32F0xx_HAL_Driver/Src/stm32f0xx_ll_usb.c ****   {
 618:Drivers/STM32F0xx_HAL_Driver/Src/stm32f0xx_ll_usb.c ****     if (ep->is_in != 0U)
 1689              		.loc 1 618 5 is_stmt 1 view .LVU517
 1690              		.loc 1 618 11 is_stmt 0 view .LVU518
 1691 0008 4B78     		ldrb	r3, [r1, #1]
 1692              		.loc 1 618 8 view .LVU519
 1693 000a 002B     		cmp	r3, #0
 1694 000c 1DD0     		beq	.L77
 619:Drivers/STM32F0xx_HAL_Driver/Src/stm32f0xx_ll_usb.c ****     {
 620:Drivers/STM32F0xx_HAL_Driver/Src/stm32f0xx_ll_usb.c ****       PCD_CLEAR_TX_DTOG(USBx, ep->num);
 1695              		.loc 1 620 7 is_stmt 1 view .LVU520
 1696              	.LBB56:
 1697              		.loc 1 620 7 view .LVU521
 1698              		.loc 1 620 7 view .LVU522
 1699 000e 0B78     		ldrb	r3, [r1]
 1700 0010 9B00     		lsls	r3, r3, #2
 1701 0012 C318     		adds	r3, r0, r3
 1702 0014 1A88     		ldrh	r2, [r3]
 1703              	.LVL183:
 1704              		.loc 1 620 7 view .LVU523
 1705 0016 5206     		lsls	r2, r2, #25
 1706 0018 06D5     		bpl	.L78
 1707              	.LVL184:
 1708              		.loc 1 620 7 discriminator 1 view .LVU524
 1709              	.LBB57:
ARM GAS  C:\Users\Daniel\AppData\Local\Temp\ccnluvCc.s 			page 45


 1710              		.loc 1 620 7 discriminator 1 view .LVU525
 1711              		.loc 1 620 7 discriminator 1 view .LVU526
 1712 001a 1C88     		ldrh	r4, [r3]
 1713 001c 194A     		ldr	r2, .L82
 1714 001e 1440     		ands	r4, r2
 1715              	.LVL185:
 1716              		.loc 1 620 7 discriminator 1 view .LVU527
 1717 0020 194A     		ldr	r2, .L82+4
 1718 0022 2243     		orrs	r2, r4
 1719 0024 92B2     		uxth	r2, r2
 1720 0026 1A80     		strh	r2, [r3]
 1721              	.LVL186:
 1722              	.L78:
 1723              		.loc 1 620 7 is_stmt 0 discriminator 1 view .LVU528
 1724              	.LBE57:
 1725              		.loc 1 620 7 is_stmt 1 discriminator 3 view .LVU529
 1726              	.LBE56:
 1727              		.loc 1 620 7 discriminator 3 view .LVU530
 621:Drivers/STM32F0xx_HAL_Driver/Src/stm32f0xx_ll_usb.c **** 
 622:Drivers/STM32F0xx_HAL_Driver/Src/stm32f0xx_ll_usb.c ****       if (ep->type != EP_TYPE_ISOC)
 1728              		.loc 1 622 7 discriminator 3 view .LVU531
 1729              		.loc 1 622 13 is_stmt 0 discriminator 3 view .LVU532
 1730 0028 CB78     		ldrb	r3, [r1, #3]
 1731              		.loc 1 622 10 discriminator 3 view .LVU533
 1732 002a 012B     		cmp	r3, #1
 1733 002c 27D0     		beq	.L76
 623:Drivers/STM32F0xx_HAL_Driver/Src/stm32f0xx_ll_usb.c ****       {
 624:Drivers/STM32F0xx_HAL_Driver/Src/stm32f0xx_ll_usb.c ****         /* Configure NAK status for the Endpoint */
 625:Drivers/STM32F0xx_HAL_Driver/Src/stm32f0xx_ll_usb.c ****         PCD_SET_EP_TX_STATUS(USBx, ep->num, USB_EP_TX_NAK);
 1734              		.loc 1 625 9 is_stmt 1 view .LVU534
 1735              	.LBB58:
 1736              		.loc 1 625 9 view .LVU535
 1737              		.loc 1 625 9 view .LVU536
 1738 002e 0A78     		ldrb	r2, [r1]
 1739 0030 9200     		lsls	r2, r2, #2
 1740 0032 8218     		adds	r2, r0, r2
 1741 0034 1388     		ldrh	r3, [r2]
 1742 0036 1549     		ldr	r1, .L82+8
 1743              	.LVL187:
 1744              		.loc 1 625 9 is_stmt 0 view .LVU537
 1745 0038 0B40     		ands	r3, r1
 1746              	.LVL188:
 1747              		.loc 1 625 9 is_stmt 1 view .LVU538
 1748              		.loc 1 625 9 view .LVU539
 1749              		.loc 1 625 9 view .LVU540
 1750 003a 2021     		movs	r1, #32
 1751 003c 4B40     		eors	r3, r1
 1752              	.LVL189:
 1753              		.loc 1 625 9 is_stmt 0 view .LVU541
 1754 003e 9BB2     		uxth	r3, r3
 1755              	.LVL190:
 1756              		.loc 1 625 9 is_stmt 1 view .LVU542
 1757 0040 1349     		ldr	r1, .L82+12
 1758 0042 0B43     		orrs	r3, r1
 1759              	.LVL191:
 1760              		.loc 1 625 9 is_stmt 0 view .LVU543
 1761 0044 9BB2     		uxth	r3, r3
ARM GAS  C:\Users\Daniel\AppData\Local\Temp\ccnluvCc.s 			page 46


 1762 0046 1380     		strh	r3, [r2]
 1763 0048 19E0     		b	.L76
 1764              	.LVL192:
 1765              	.L77:
 1766              		.loc 1 625 9 view .LVU544
 1767              	.LBE58:
 626:Drivers/STM32F0xx_HAL_Driver/Src/stm32f0xx_ll_usb.c ****       }
 627:Drivers/STM32F0xx_HAL_Driver/Src/stm32f0xx_ll_usb.c ****     }
 628:Drivers/STM32F0xx_HAL_Driver/Src/stm32f0xx_ll_usb.c ****     else
 629:Drivers/STM32F0xx_HAL_Driver/Src/stm32f0xx_ll_usb.c ****     {
 630:Drivers/STM32F0xx_HAL_Driver/Src/stm32f0xx_ll_usb.c ****       PCD_CLEAR_RX_DTOG(USBx, ep->num);
 1768              		.loc 1 630 7 is_stmt 1 view .LVU545
 1769              	.LBB59:
 1770              		.loc 1 630 7 view .LVU546
 1771              		.loc 1 630 7 view .LVU547
 1772 004a 0B78     		ldrb	r3, [r1]
 1773 004c 9B00     		lsls	r3, r3, #2
 1774 004e C318     		adds	r3, r0, r3
 1775 0050 1A88     		ldrh	r2, [r3]
 1776              	.LVL193:
 1777              		.loc 1 630 7 view .LVU548
 1778 0052 5204     		lsls	r2, r2, #17
 1779 0054 06D5     		bpl	.L79
 1780              	.LVL194:
 1781              		.loc 1 630 7 discriminator 1 view .LVU549
 1782              	.LBB60:
 1783              		.loc 1 630 7 discriminator 1 view .LVU550
 1784              		.loc 1 630 7 discriminator 1 view .LVU551
 1785 0056 1C88     		ldrh	r4, [r3]
 1786 0058 0A4A     		ldr	r2, .L82
 1787 005a 1440     		ands	r4, r2
 1788              	.LVL195:
 1789              		.loc 1 630 7 discriminator 1 view .LVU552
 1790 005c 0D4A     		ldr	r2, .L82+16
 1791 005e 2243     		orrs	r2, r4
 1792 0060 92B2     		uxth	r2, r2
 1793 0062 1A80     		strh	r2, [r3]
 1794              	.LVL196:
 1795              	.L79:
 1796              		.loc 1 630 7 is_stmt 0 discriminator 1 view .LVU553
 1797              	.LBE60:
 1798              		.loc 1 630 7 is_stmt 1 discriminator 3 view .LVU554
 1799              	.LBE59:
 1800              		.loc 1 630 7 discriminator 3 view .LVU555
 631:Drivers/STM32F0xx_HAL_Driver/Src/stm32f0xx_ll_usb.c **** 
 632:Drivers/STM32F0xx_HAL_Driver/Src/stm32f0xx_ll_usb.c ****       /* Configure VALID status for the Endpoint */
 633:Drivers/STM32F0xx_HAL_Driver/Src/stm32f0xx_ll_usb.c ****       PCD_SET_EP_RX_STATUS(USBx, ep->num, USB_EP_RX_VALID);
 1801              		.loc 1 633 7 discriminator 3 view .LVU556
 1802              	.LBB61:
 1803              		.loc 1 633 7 discriminator 3 view .LVU557
 1804              		.loc 1 633 7 discriminator 3 view .LVU558
 1805 0064 0B78     		ldrb	r3, [r1]
 1806 0066 9B00     		lsls	r3, r3, #2
 1807 0068 C018     		adds	r0, r0, r3
 1808              	.LVL197:
 1809              		.loc 1 633 7 is_stmt 0 discriminator 3 view .LVU559
 1810 006a 0388     		ldrh	r3, [r0]
ARM GAS  C:\Users\Daniel\AppData\Local\Temp\ccnluvCc.s 			page 47


 1811 006c 0A4A     		ldr	r2, .L82+20
 1812 006e 1340     		ands	r3, r2
 1813              	.LVL198:
 1814              		.loc 1 633 7 is_stmt 1 discriminator 3 view .LVU560
 1815              		.loc 1 633 7 discriminator 3 view .LVU561
 1816              		.loc 1 633 7 discriminator 3 view .LVU562
 1817              		.loc 1 633 7 discriminator 3 view .LVU563
 1818 0070 C022     		movs	r2, #192
 1819 0072 9201     		lsls	r2, r2, #6
 1820 0074 5A40     		eors	r2, r3
 1821              	.LVL199:
 1822              		.loc 1 633 7 discriminator 3 view .LVU564
 1823 0076 064B     		ldr	r3, .L82+12
 1824 0078 1343     		orrs	r3, r2
 1825 007a 9BB2     		uxth	r3, r3
 1826 007c 0380     		strh	r3, [r0]
 1827              	.LVL200:
 1828              	.L76:
 1829              		.loc 1 633 7 is_stmt 0 discriminator 3 view .LVU565
 1830              	.LBE61:
 1831              		.loc 1 633 7 is_stmt 1 discriminator 7 view .LVU566
 634:Drivers/STM32F0xx_HAL_Driver/Src/stm32f0xx_ll_usb.c ****     }
 635:Drivers/STM32F0xx_HAL_Driver/Src/stm32f0xx_ll_usb.c ****   }
 636:Drivers/STM32F0xx_HAL_Driver/Src/stm32f0xx_ll_usb.c **** 
 637:Drivers/STM32F0xx_HAL_Driver/Src/stm32f0xx_ll_usb.c ****   return HAL_OK;
 1832              		.loc 1 637 3 discriminator 7 view .LVU567
 638:Drivers/STM32F0xx_HAL_Driver/Src/stm32f0xx_ll_usb.c **** }
 1833              		.loc 1 638 1 is_stmt 0 discriminator 7 view .LVU568
 1834 007e 0020     		movs	r0, #0
 1835              		@ sp needed
 1836 0080 10BD     		pop	{r4, pc}
 1837              	.L83:
 1838 0082 C046     		.align	2
 1839              	.L82:
 1840 0084 8F8FFFFF 		.word	-28785
 1841 0088 C080FFFF 		.word	-32576
 1842 008c BF8FFFFF 		.word	-28737
 1843 0090 8080FFFF 		.word	-32640
 1844 0094 80C0FFFF 		.word	-16256
 1845 0098 8FBFFFFF 		.word	-16497
 1846              		.cfi_endproc
 1847              	.LFE49:
 1849              		.section	.text.USB_EPStopXfer,"ax",%progbits
 1850              		.align	1
 1851              		.global	USB_EPStopXfer
 1852              		.syntax unified
 1853              		.code	16
 1854              		.thumb_func
 1856              	USB_EPStopXfer:
 1857              	.LVL201:
 1858              	.LFB50:
 639:Drivers/STM32F0xx_HAL_Driver/Src/stm32f0xx_ll_usb.c **** 
 640:Drivers/STM32F0xx_HAL_Driver/Src/stm32f0xx_ll_usb.c **** /**
 641:Drivers/STM32F0xx_HAL_Driver/Src/stm32f0xx_ll_usb.c ****    * @brief  USB_EPStoptXfer  Stop transfer on an EP
 642:Drivers/STM32F0xx_HAL_Driver/Src/stm32f0xx_ll_usb.c ****    * @param  USBx  usb device instance
 643:Drivers/STM32F0xx_HAL_Driver/Src/stm32f0xx_ll_usb.c ****    * @param  ep pointer to endpoint structure
 644:Drivers/STM32F0xx_HAL_Driver/Src/stm32f0xx_ll_usb.c ****    * @retval HAL status
ARM GAS  C:\Users\Daniel\AppData\Local\Temp\ccnluvCc.s 			page 48


 645:Drivers/STM32F0xx_HAL_Driver/Src/stm32f0xx_ll_usb.c ****    */
 646:Drivers/STM32F0xx_HAL_Driver/Src/stm32f0xx_ll_usb.c **** HAL_StatusTypeDef USB_EPStopXfer(USB_TypeDef *USBx, USB_EPTypeDef *ep)
 647:Drivers/STM32F0xx_HAL_Driver/Src/stm32f0xx_ll_usb.c **** {
 1859              		.loc 1 647 1 is_stmt 1 view -0
 1860              		.cfi_startproc
 1861              		@ args = 0, pretend = 0, frame = 0
 1862              		@ frame_needed = 0, uses_anonymous_args = 0
 1863              		@ link register save eliminated.
 648:Drivers/STM32F0xx_HAL_Driver/Src/stm32f0xx_ll_usb.c ****   /* IN endpoint */
 649:Drivers/STM32F0xx_HAL_Driver/Src/stm32f0xx_ll_usb.c ****   if (ep->is_in == 1U)
 1864              		.loc 1 649 3 view .LVU570
 1865              		.loc 1 649 9 is_stmt 0 view .LVU571
 1866 0000 4B78     		ldrb	r3, [r1, #1]
 1867              		.loc 1 649 6 view .LVU572
 1868 0002 012B     		cmp	r3, #1
 1869 0004 14D0     		beq	.L89
 650:Drivers/STM32F0xx_HAL_Driver/Src/stm32f0xx_ll_usb.c ****   {
 651:Drivers/STM32F0xx_HAL_Driver/Src/stm32f0xx_ll_usb.c ****     if (ep->doublebuffer == 0U)
 652:Drivers/STM32F0xx_HAL_Driver/Src/stm32f0xx_ll_usb.c ****     {
 653:Drivers/STM32F0xx_HAL_Driver/Src/stm32f0xx_ll_usb.c ****       if (ep->type != EP_TYPE_ISOC)
 654:Drivers/STM32F0xx_HAL_Driver/Src/stm32f0xx_ll_usb.c ****       {
 655:Drivers/STM32F0xx_HAL_Driver/Src/stm32f0xx_ll_usb.c ****         /* Configure NAK status for the Endpoint */
 656:Drivers/STM32F0xx_HAL_Driver/Src/stm32f0xx_ll_usb.c ****         PCD_SET_EP_TX_STATUS(USBx, ep->num, USB_EP_TX_NAK);
 657:Drivers/STM32F0xx_HAL_Driver/Src/stm32f0xx_ll_usb.c ****       }
 658:Drivers/STM32F0xx_HAL_Driver/Src/stm32f0xx_ll_usb.c ****       else
 659:Drivers/STM32F0xx_HAL_Driver/Src/stm32f0xx_ll_usb.c ****       {
 660:Drivers/STM32F0xx_HAL_Driver/Src/stm32f0xx_ll_usb.c ****         /* Configure TX Endpoint to disabled state */
 661:Drivers/STM32F0xx_HAL_Driver/Src/stm32f0xx_ll_usb.c ****         PCD_SET_EP_TX_STATUS(USBx, ep->num, USB_EP_TX_DIS);
 662:Drivers/STM32F0xx_HAL_Driver/Src/stm32f0xx_ll_usb.c ****       }
 663:Drivers/STM32F0xx_HAL_Driver/Src/stm32f0xx_ll_usb.c ****     }
 664:Drivers/STM32F0xx_HAL_Driver/Src/stm32f0xx_ll_usb.c ****   }
 665:Drivers/STM32F0xx_HAL_Driver/Src/stm32f0xx_ll_usb.c ****   else /* OUT endpoint */
 666:Drivers/STM32F0xx_HAL_Driver/Src/stm32f0xx_ll_usb.c ****   {
 667:Drivers/STM32F0xx_HAL_Driver/Src/stm32f0xx_ll_usb.c ****     if (ep->doublebuffer == 0U)
 1870              		.loc 1 667 5 is_stmt 1 view .LVU573
 1871              		.loc 1 667 11 is_stmt 0 view .LVU574
 1872 0006 0B7B     		ldrb	r3, [r1, #12]
 1873              		.loc 1 667 8 view .LVU575
 1874 0008 002B     		cmp	r3, #0
 1875 000a 0FD1     		bne	.L86
 668:Drivers/STM32F0xx_HAL_Driver/Src/stm32f0xx_ll_usb.c ****     {
 669:Drivers/STM32F0xx_HAL_Driver/Src/stm32f0xx_ll_usb.c ****       if (ep->type != EP_TYPE_ISOC)
 1876              		.loc 1 669 7 is_stmt 1 view .LVU576
 1877              		.loc 1 669 13 is_stmt 0 view .LVU577
 1878 000c CB78     		ldrb	r3, [r1, #3]
 1879              		.loc 1 669 10 view .LVU578
 1880 000e 012B     		cmp	r3, #1
 1881 0010 2DD0     		beq	.L88
 670:Drivers/STM32F0xx_HAL_Driver/Src/stm32f0xx_ll_usb.c ****       {
 671:Drivers/STM32F0xx_HAL_Driver/Src/stm32f0xx_ll_usb.c ****         /* Configure NAK status for the Endpoint */
 672:Drivers/STM32F0xx_HAL_Driver/Src/stm32f0xx_ll_usb.c ****         PCD_SET_EP_RX_STATUS(USBx, ep->num, USB_EP_RX_NAK);
 1882              		.loc 1 672 9 is_stmt 1 view .LVU579
 1883              	.LBB62:
 1884              		.loc 1 672 9 view .LVU580
 1885              		.loc 1 672 9 view .LVU581
 1886 0012 0B78     		ldrb	r3, [r1]
 1887 0014 9B00     		lsls	r3, r3, #2
ARM GAS  C:\Users\Daniel\AppData\Local\Temp\ccnluvCc.s 			page 49


 1888 0016 C318     		adds	r3, r0, r3
 1889 0018 1A88     		ldrh	r2, [r3]
 1890 001a 1A49     		ldr	r1, .L90
 1891              	.LVL202:
 1892              		.loc 1 672 9 is_stmt 0 view .LVU582
 1893 001c 0A40     		ands	r2, r1
 1894              	.LVL203:
 1895              		.loc 1 672 9 is_stmt 1 view .LVU583
 1896              		.loc 1 672 9 view .LVU584
 1897              		.loc 1 672 9 view .LVU585
 1898 001e 8021     		movs	r1, #128
 1899 0020 8901     		lsls	r1, r1, #6
 1900 0022 5140     		eors	r1, r2
 1901              	.LVL204:
 1902              		.loc 1 672 9 view .LVU586
 1903 0024 184A     		ldr	r2, .L90+4
 1904 0026 0A43     		orrs	r2, r1
 1905 0028 92B2     		uxth	r2, r2
 1906 002a 1A80     		strh	r2, [r3]
 1907              	.LBE62:
 1908              		.loc 1 672 9 view .LVU587
 1909              	.LVL205:
 1910              	.L86:
 673:Drivers/STM32F0xx_HAL_Driver/Src/stm32f0xx_ll_usb.c ****       }
 674:Drivers/STM32F0xx_HAL_Driver/Src/stm32f0xx_ll_usb.c ****       else
 675:Drivers/STM32F0xx_HAL_Driver/Src/stm32f0xx_ll_usb.c ****       {
 676:Drivers/STM32F0xx_HAL_Driver/Src/stm32f0xx_ll_usb.c ****         /* Configure RX Endpoint to disabled state */
 677:Drivers/STM32F0xx_HAL_Driver/Src/stm32f0xx_ll_usb.c ****         PCD_SET_EP_RX_STATUS(USBx, ep->num, USB_EP_RX_DIS);
 1911              		.loc 1 677 9 discriminator 7 view .LVU588
 678:Drivers/STM32F0xx_HAL_Driver/Src/stm32f0xx_ll_usb.c ****       }
 679:Drivers/STM32F0xx_HAL_Driver/Src/stm32f0xx_ll_usb.c ****     }
 680:Drivers/STM32F0xx_HAL_Driver/Src/stm32f0xx_ll_usb.c ****   }
 681:Drivers/STM32F0xx_HAL_Driver/Src/stm32f0xx_ll_usb.c **** 
 682:Drivers/STM32F0xx_HAL_Driver/Src/stm32f0xx_ll_usb.c ****   return HAL_OK;
 1912              		.loc 1 682 3 discriminator 7 view .LVU589
 683:Drivers/STM32F0xx_HAL_Driver/Src/stm32f0xx_ll_usb.c **** }
 1913              		.loc 1 683 1 is_stmt 0 discriminator 7 view .LVU590
 1914 002c 0020     		movs	r0, #0
 1915              		@ sp needed
 1916 002e 7047     		bx	lr
 1917              	.LVL206:
 1918              	.L89:
 651:Drivers/STM32F0xx_HAL_Driver/Src/stm32f0xx_ll_usb.c ****     {
 1919              		.loc 1 651 5 is_stmt 1 view .LVU591
 651:Drivers/STM32F0xx_HAL_Driver/Src/stm32f0xx_ll_usb.c ****     {
 1920              		.loc 1 651 11 is_stmt 0 view .LVU592
 1921 0030 0B7B     		ldrb	r3, [r1, #12]
 651:Drivers/STM32F0xx_HAL_Driver/Src/stm32f0xx_ll_usb.c ****     {
 1922              		.loc 1 651 8 view .LVU593
 1923 0032 002B     		cmp	r3, #0
 1924 0034 FAD1     		bne	.L86
 653:Drivers/STM32F0xx_HAL_Driver/Src/stm32f0xx_ll_usb.c ****       {
 1925              		.loc 1 653 7 is_stmt 1 view .LVU594
 653:Drivers/STM32F0xx_HAL_Driver/Src/stm32f0xx_ll_usb.c ****       {
 1926              		.loc 1 653 13 is_stmt 0 view .LVU595
 1927 0036 CB78     		ldrb	r3, [r1, #3]
 653:Drivers/STM32F0xx_HAL_Driver/Src/stm32f0xx_ll_usb.c ****       {
ARM GAS  C:\Users\Daniel\AppData\Local\Temp\ccnluvCc.s 			page 50


 1928              		.loc 1 653 10 view .LVU596
 1929 0038 012B     		cmp	r3, #1
 1930 003a 0DD0     		beq	.L87
 656:Drivers/STM32F0xx_HAL_Driver/Src/stm32f0xx_ll_usb.c ****       }
 1931              		.loc 1 656 9 is_stmt 1 view .LVU597
 1932              	.LBB63:
 656:Drivers/STM32F0xx_HAL_Driver/Src/stm32f0xx_ll_usb.c ****       }
 1933              		.loc 1 656 9 view .LVU598
 656:Drivers/STM32F0xx_HAL_Driver/Src/stm32f0xx_ll_usb.c ****       }
 1934              		.loc 1 656 9 view .LVU599
 1935 003c 0A78     		ldrb	r2, [r1]
 1936 003e 9200     		lsls	r2, r2, #2
 1937 0040 8218     		adds	r2, r0, r2
 1938 0042 1388     		ldrh	r3, [r2]
 1939 0044 1149     		ldr	r1, .L90+8
 1940              	.LVL207:
 656:Drivers/STM32F0xx_HAL_Driver/Src/stm32f0xx_ll_usb.c ****       }
 1941              		.loc 1 656 9 is_stmt 0 view .LVU600
 1942 0046 0B40     		ands	r3, r1
 1943              	.LVL208:
 656:Drivers/STM32F0xx_HAL_Driver/Src/stm32f0xx_ll_usb.c ****       }
 1944              		.loc 1 656 9 is_stmt 1 view .LVU601
 656:Drivers/STM32F0xx_HAL_Driver/Src/stm32f0xx_ll_usb.c ****       }
 1945              		.loc 1 656 9 view .LVU602
 656:Drivers/STM32F0xx_HAL_Driver/Src/stm32f0xx_ll_usb.c ****       }
 1946              		.loc 1 656 9 view .LVU603
 1947 0048 2021     		movs	r1, #32
 1948 004a 4B40     		eors	r3, r1
 1949              	.LVL209:
 656:Drivers/STM32F0xx_HAL_Driver/Src/stm32f0xx_ll_usb.c ****       }
 1950              		.loc 1 656 9 is_stmt 0 view .LVU604
 1951 004c 9BB2     		uxth	r3, r3
 1952              	.LVL210:
 656:Drivers/STM32F0xx_HAL_Driver/Src/stm32f0xx_ll_usb.c ****       }
 1953              		.loc 1 656 9 is_stmt 1 view .LVU605
 1954 004e 0E49     		ldr	r1, .L90+4
 1955 0050 0B43     		orrs	r3, r1
 1956              	.LVL211:
 656:Drivers/STM32F0xx_HAL_Driver/Src/stm32f0xx_ll_usb.c ****       }
 1957              		.loc 1 656 9 is_stmt 0 view .LVU606
 1958 0052 9BB2     		uxth	r3, r3
 1959 0054 1380     		strh	r3, [r2]
 1960              	.LBE63:
 656:Drivers/STM32F0xx_HAL_Driver/Src/stm32f0xx_ll_usb.c ****       }
 1961              		.loc 1 656 9 is_stmt 1 view .LVU607
 1962 0056 E9E7     		b	.L86
 1963              	.LVL212:
 1964              	.L87:
 661:Drivers/STM32F0xx_HAL_Driver/Src/stm32f0xx_ll_usb.c ****       }
 1965              		.loc 1 661 9 view .LVU608
 1966              	.LBB64:
 661:Drivers/STM32F0xx_HAL_Driver/Src/stm32f0xx_ll_usb.c ****       }
 1967              		.loc 1 661 9 view .LVU609
 661:Drivers/STM32F0xx_HAL_Driver/Src/stm32f0xx_ll_usb.c ****       }
 1968              		.loc 1 661 9 view .LVU610
 1969 0058 0B78     		ldrb	r3, [r1]
 1970 005a 9B00     		lsls	r3, r3, #2
ARM GAS  C:\Users\Daniel\AppData\Local\Temp\ccnluvCc.s 			page 51


 1971 005c C318     		adds	r3, r0, r3
 1972 005e 1988     		ldrh	r1, [r3]
 1973              	.LVL213:
 661:Drivers/STM32F0xx_HAL_Driver/Src/stm32f0xx_ll_usb.c ****       }
 1974              		.loc 1 661 9 is_stmt 0 view .LVU611
 1975 0060 0A4A     		ldr	r2, .L90+8
 1976 0062 1140     		ands	r1, r2
 1977              	.LVL214:
 661:Drivers/STM32F0xx_HAL_Driver/Src/stm32f0xx_ll_usb.c ****       }
 1978              		.loc 1 661 9 is_stmt 1 view .LVU612
 661:Drivers/STM32F0xx_HAL_Driver/Src/stm32f0xx_ll_usb.c ****       }
 1979              		.loc 1 661 9 view .LVU613
 661:Drivers/STM32F0xx_HAL_Driver/Src/stm32f0xx_ll_usb.c ****       }
 1980              		.loc 1 661 9 view .LVU614
 1981 0064 084A     		ldr	r2, .L90+4
 1982 0066 0A43     		orrs	r2, r1
 1983 0068 92B2     		uxth	r2, r2
 1984 006a 1A80     		strh	r2, [r3]
 1985 006c DEE7     		b	.L86
 1986              	.LVL215:
 1987              	.L88:
 661:Drivers/STM32F0xx_HAL_Driver/Src/stm32f0xx_ll_usb.c ****       }
 1988              		.loc 1 661 9 is_stmt 0 view .LVU615
 1989              	.LBE64:
 677:Drivers/STM32F0xx_HAL_Driver/Src/stm32f0xx_ll_usb.c ****       }
 1990              		.loc 1 677 9 is_stmt 1 view .LVU616
 1991              	.LBB65:
 677:Drivers/STM32F0xx_HAL_Driver/Src/stm32f0xx_ll_usb.c ****       }
 1992              		.loc 1 677 9 view .LVU617
 677:Drivers/STM32F0xx_HAL_Driver/Src/stm32f0xx_ll_usb.c ****       }
 1993              		.loc 1 677 9 view .LVU618
 1994 006e 0B78     		ldrb	r3, [r1]
 1995 0070 9B00     		lsls	r3, r3, #2
 1996 0072 C018     		adds	r0, r0, r3
 1997              	.LVL216:
 677:Drivers/STM32F0xx_HAL_Driver/Src/stm32f0xx_ll_usb.c ****       }
 1998              		.loc 1 677 9 is_stmt 0 view .LVU619
 1999 0074 0288     		ldrh	r2, [r0]
 2000 0076 034B     		ldr	r3, .L90
 2001 0078 1A40     		ands	r2, r3
 2002              	.LVL217:
 677:Drivers/STM32F0xx_HAL_Driver/Src/stm32f0xx_ll_usb.c ****       }
 2003              		.loc 1 677 9 is_stmt 1 view .LVU620
 677:Drivers/STM32F0xx_HAL_Driver/Src/stm32f0xx_ll_usb.c ****       }
 2004              		.loc 1 677 9 view .LVU621
 677:Drivers/STM32F0xx_HAL_Driver/Src/stm32f0xx_ll_usb.c ****       }
 2005              		.loc 1 677 9 view .LVU622
 2006 007a 034B     		ldr	r3, .L90+4
 2007 007c 1343     		orrs	r3, r2
 2008 007e 9BB2     		uxth	r3, r3
 2009 0080 0380     		strh	r3, [r0]
 2010 0082 D3E7     		b	.L86
 2011              	.L91:
 2012              		.align	2
 2013              	.L90:
 2014 0084 8FBFFFFF 		.word	-16497
 2015 0088 8080FFFF 		.word	-32640
ARM GAS  C:\Users\Daniel\AppData\Local\Temp\ccnluvCc.s 			page 52


 2016 008c BF8FFFFF 		.word	-28737
 2017              	.LBE65:
 2018              		.cfi_endproc
 2019              	.LFE50:
 2021              		.section	.text.USB_StopDevice,"ax",%progbits
 2022              		.align	1
 2023              		.global	USB_StopDevice
 2024              		.syntax unified
 2025              		.code	16
 2026              		.thumb_func
 2028              	USB_StopDevice:
 2029              	.LVL218:
 2030              	.LFB51:
 684:Drivers/STM32F0xx_HAL_Driver/Src/stm32f0xx_ll_usb.c **** #endif /* defined (HAL_PCD_MODULE_ENABLED) */
 685:Drivers/STM32F0xx_HAL_Driver/Src/stm32f0xx_ll_usb.c **** 
 686:Drivers/STM32F0xx_HAL_Driver/Src/stm32f0xx_ll_usb.c **** /**
 687:Drivers/STM32F0xx_HAL_Driver/Src/stm32f0xx_ll_usb.c ****   * @brief  USB_StopDevice Stop the usb device mode
 688:Drivers/STM32F0xx_HAL_Driver/Src/stm32f0xx_ll_usb.c ****   * @param  USBx Selected device
 689:Drivers/STM32F0xx_HAL_Driver/Src/stm32f0xx_ll_usb.c ****   * @retval HAL status
 690:Drivers/STM32F0xx_HAL_Driver/Src/stm32f0xx_ll_usb.c ****   */
 691:Drivers/STM32F0xx_HAL_Driver/Src/stm32f0xx_ll_usb.c **** HAL_StatusTypeDef USB_StopDevice(USB_TypeDef *USBx)
 692:Drivers/STM32F0xx_HAL_Driver/Src/stm32f0xx_ll_usb.c **** {
 2031              		.loc 1 692 1 view -0
 2032              		.cfi_startproc
 2033              		@ args = 0, pretend = 0, frame = 0
 2034              		@ frame_needed = 0, uses_anonymous_args = 0
 2035              		@ link register save eliminated.
 693:Drivers/STM32F0xx_HAL_Driver/Src/stm32f0xx_ll_usb.c ****   /* disable all interrupts and force USB reset */
 694:Drivers/STM32F0xx_HAL_Driver/Src/stm32f0xx_ll_usb.c ****   USBx->CNTR = (uint16_t)USB_CNTR_FRES;
 2036              		.loc 1 694 3 view .LVU624
 2037              		.loc 1 694 14 is_stmt 0 view .LVU625
 2038 0000 4023     		movs	r3, #64
 2039 0002 0122     		movs	r2, #1
 2040 0004 C252     		strh	r2, [r0, r3]
 695:Drivers/STM32F0xx_HAL_Driver/Src/stm32f0xx_ll_usb.c **** 
 696:Drivers/STM32F0xx_HAL_Driver/Src/stm32f0xx_ll_usb.c ****   /* clear interrupt status register */
 697:Drivers/STM32F0xx_HAL_Driver/Src/stm32f0xx_ll_usb.c ****   USBx->ISTR = 0U;
 2041              		.loc 1 697 3 is_stmt 1 view .LVU626
 2042              		.loc 1 697 14 is_stmt 0 view .LVU627
 2043 0006 4332     		adds	r2, r2, #67
 2044 0008 0021     		movs	r1, #0
 2045 000a 8152     		strh	r1, [r0, r2]
 698:Drivers/STM32F0xx_HAL_Driver/Src/stm32f0xx_ll_usb.c **** 
 699:Drivers/STM32F0xx_HAL_Driver/Src/stm32f0xx_ll_usb.c ****   /* switch-off device */
 700:Drivers/STM32F0xx_HAL_Driver/Src/stm32f0xx_ll_usb.c ****   USBx->CNTR = (uint16_t)(USB_CNTR_FRES | USB_CNTR_PDWN);
 2046              		.loc 1 700 3 is_stmt 1 view .LVU628
 2047              		.loc 1 700 14 is_stmt 0 view .LVU629
 2048 000c 413A     		subs	r2, r2, #65
 2049 000e C252     		strh	r2, [r0, r3]
 701:Drivers/STM32F0xx_HAL_Driver/Src/stm32f0xx_ll_usb.c **** 
 702:Drivers/STM32F0xx_HAL_Driver/Src/stm32f0xx_ll_usb.c ****   return HAL_OK;
 2050              		.loc 1 702 3 is_stmt 1 view .LVU630
 703:Drivers/STM32F0xx_HAL_Driver/Src/stm32f0xx_ll_usb.c **** }
 2051              		.loc 1 703 1 is_stmt 0 view .LVU631
 2052 0010 0020     		movs	r0, #0
 2053              	.LVL219:
 2054              		.loc 1 703 1 view .LVU632
ARM GAS  C:\Users\Daniel\AppData\Local\Temp\ccnluvCc.s 			page 53


 2055              		@ sp needed
 2056 0012 7047     		bx	lr
 2057              		.cfi_endproc
 2058              	.LFE51:
 2060              		.section	.text.USB_SetDevAddress,"ax",%progbits
 2061              		.align	1
 2062              		.global	USB_SetDevAddress
 2063              		.syntax unified
 2064              		.code	16
 2065              		.thumb_func
 2067              	USB_SetDevAddress:
 2068              	.LVL220:
 2069              	.LFB52:
 704:Drivers/STM32F0xx_HAL_Driver/Src/stm32f0xx_ll_usb.c **** 
 705:Drivers/STM32F0xx_HAL_Driver/Src/stm32f0xx_ll_usb.c **** /**
 706:Drivers/STM32F0xx_HAL_Driver/Src/stm32f0xx_ll_usb.c ****   * @brief  USB_SetDevAddress Stop the usb device mode
 707:Drivers/STM32F0xx_HAL_Driver/Src/stm32f0xx_ll_usb.c ****   * @param  USBx Selected device
 708:Drivers/STM32F0xx_HAL_Driver/Src/stm32f0xx_ll_usb.c ****   * @param  address new device address to be assigned
 709:Drivers/STM32F0xx_HAL_Driver/Src/stm32f0xx_ll_usb.c ****   *          This parameter can be a value from 0 to 255
 710:Drivers/STM32F0xx_HAL_Driver/Src/stm32f0xx_ll_usb.c ****   * @retval HAL status
 711:Drivers/STM32F0xx_HAL_Driver/Src/stm32f0xx_ll_usb.c ****   */
 712:Drivers/STM32F0xx_HAL_Driver/Src/stm32f0xx_ll_usb.c **** HAL_StatusTypeDef  USB_SetDevAddress(USB_TypeDef *USBx, uint8_t address)
 713:Drivers/STM32F0xx_HAL_Driver/Src/stm32f0xx_ll_usb.c **** {
 2070              		.loc 1 713 1 is_stmt 1 view -0
 2071              		.cfi_startproc
 2072              		@ args = 0, pretend = 0, frame = 0
 2073              		@ frame_needed = 0, uses_anonymous_args = 0
 2074              		@ link register save eliminated.
 714:Drivers/STM32F0xx_HAL_Driver/Src/stm32f0xx_ll_usb.c ****   if (address == 0U)
 2075              		.loc 1 714 3 view .LVU634
 2076              		.loc 1 714 6 is_stmt 0 view .LVU635
 2077 0000 0029     		cmp	r1, #0
 2078 0002 02D1     		bne	.L94
 715:Drivers/STM32F0xx_HAL_Driver/Src/stm32f0xx_ll_usb.c ****   {
 716:Drivers/STM32F0xx_HAL_Driver/Src/stm32f0xx_ll_usb.c ****     /* set device address and enable function */
 717:Drivers/STM32F0xx_HAL_Driver/Src/stm32f0xx_ll_usb.c ****     USBx->DADDR = (uint16_t)USB_DADDR_EF;
 2079              		.loc 1 717 5 is_stmt 1 view .LVU636
 2080              		.loc 1 717 17 is_stmt 0 view .LVU637
 2081 0004 4C23     		movs	r3, #76
 2082 0006 8022     		movs	r2, #128
 2083 0008 C252     		strh	r2, [r0, r3]
 2084              	.L94:
 718:Drivers/STM32F0xx_HAL_Driver/Src/stm32f0xx_ll_usb.c ****   }
 719:Drivers/STM32F0xx_HAL_Driver/Src/stm32f0xx_ll_usb.c **** 
 720:Drivers/STM32F0xx_HAL_Driver/Src/stm32f0xx_ll_usb.c ****   return HAL_OK;
 2085              		.loc 1 720 3 is_stmt 1 view .LVU638
 721:Drivers/STM32F0xx_HAL_Driver/Src/stm32f0xx_ll_usb.c **** }
 2086              		.loc 1 721 1 is_stmt 0 view .LVU639
 2087 000a 0020     		movs	r0, #0
 2088              	.LVL221:
 2089              		.loc 1 721 1 view .LVU640
 2090              		@ sp needed
 2091 000c 7047     		bx	lr
 2092              		.cfi_endproc
 2093              	.LFE52:
 2095              		.section	.text.USB_DevConnect,"ax",%progbits
 2096              		.align	1
ARM GAS  C:\Users\Daniel\AppData\Local\Temp\ccnluvCc.s 			page 54


 2097              		.global	USB_DevConnect
 2098              		.syntax unified
 2099              		.code	16
 2100              		.thumb_func
 2102              	USB_DevConnect:
 2103              	.LVL222:
 2104              	.LFB53:
 722:Drivers/STM32F0xx_HAL_Driver/Src/stm32f0xx_ll_usb.c **** 
 723:Drivers/STM32F0xx_HAL_Driver/Src/stm32f0xx_ll_usb.c **** /**
 724:Drivers/STM32F0xx_HAL_Driver/Src/stm32f0xx_ll_usb.c ****   * @brief  USB_DevConnect Connect the USB device by enabling the pull-up/pull-down
 725:Drivers/STM32F0xx_HAL_Driver/Src/stm32f0xx_ll_usb.c ****   * @param  USBx Selected device
 726:Drivers/STM32F0xx_HAL_Driver/Src/stm32f0xx_ll_usb.c ****   * @retval HAL status
 727:Drivers/STM32F0xx_HAL_Driver/Src/stm32f0xx_ll_usb.c ****   */
 728:Drivers/STM32F0xx_HAL_Driver/Src/stm32f0xx_ll_usb.c **** HAL_StatusTypeDef  USB_DevConnect(USB_TypeDef *USBx)
 729:Drivers/STM32F0xx_HAL_Driver/Src/stm32f0xx_ll_usb.c **** {
 2105              		.loc 1 729 1 is_stmt 1 view -0
 2106              		.cfi_startproc
 2107              		@ args = 0, pretend = 0, frame = 0
 2108              		@ frame_needed = 0, uses_anonymous_args = 0
 2109              		@ link register save eliminated.
 730:Drivers/STM32F0xx_HAL_Driver/Src/stm32f0xx_ll_usb.c ****   /* Enabling DP Pull-UP bit to Connect internal PU resistor on USB DP line */
 731:Drivers/STM32F0xx_HAL_Driver/Src/stm32f0xx_ll_usb.c ****   USBx->BCDR |= (uint16_t)USB_BCDR_DPPU;
 2110              		.loc 1 731 3 view .LVU642
 2111              		.loc 1 731 7 is_stmt 0 view .LVU643
 2112 0000 5822     		movs	r2, #88
 2113 0002 835A     		ldrh	r3, [r0, r2]
 2114              		.loc 1 731 14 view .LVU644
 2115 0004 0249     		ldr	r1, .L96
 2116 0006 0B43     		orrs	r3, r1
 2117 0008 9BB2     		uxth	r3, r3
 2118 000a 8352     		strh	r3, [r0, r2]
 732:Drivers/STM32F0xx_HAL_Driver/Src/stm32f0xx_ll_usb.c **** 
 733:Drivers/STM32F0xx_HAL_Driver/Src/stm32f0xx_ll_usb.c ****   return HAL_OK;
 2119              		.loc 1 733 3 is_stmt 1 view .LVU645
 734:Drivers/STM32F0xx_HAL_Driver/Src/stm32f0xx_ll_usb.c **** }
 2120              		.loc 1 734 1 is_stmt 0 view .LVU646
 2121 000c 0020     		movs	r0, #0
 2122              	.LVL223:
 2123              		.loc 1 734 1 view .LVU647
 2124              		@ sp needed
 2125 000e 7047     		bx	lr
 2126              	.L97:
 2127              		.align	2
 2128              	.L96:
 2129 0010 0080FFFF 		.word	-32768
 2130              		.cfi_endproc
 2131              	.LFE53:
 2133              		.section	.text.USB_DevDisconnect,"ax",%progbits
 2134              		.align	1
 2135              		.global	USB_DevDisconnect
 2136              		.syntax unified
 2137              		.code	16
 2138              		.thumb_func
 2140              	USB_DevDisconnect:
 2141              	.LVL224:
 2142              	.LFB54:
 735:Drivers/STM32F0xx_HAL_Driver/Src/stm32f0xx_ll_usb.c **** 
ARM GAS  C:\Users\Daniel\AppData\Local\Temp\ccnluvCc.s 			page 55


 736:Drivers/STM32F0xx_HAL_Driver/Src/stm32f0xx_ll_usb.c **** /**
 737:Drivers/STM32F0xx_HAL_Driver/Src/stm32f0xx_ll_usb.c ****   * @brief  USB_DevDisconnect Disconnect the USB device by disabling the pull-up/pull-down
 738:Drivers/STM32F0xx_HAL_Driver/Src/stm32f0xx_ll_usb.c ****   * @param  USBx Selected device
 739:Drivers/STM32F0xx_HAL_Driver/Src/stm32f0xx_ll_usb.c ****   * @retval HAL status
 740:Drivers/STM32F0xx_HAL_Driver/Src/stm32f0xx_ll_usb.c ****   */
 741:Drivers/STM32F0xx_HAL_Driver/Src/stm32f0xx_ll_usb.c **** HAL_StatusTypeDef  USB_DevDisconnect(USB_TypeDef *USBx)
 742:Drivers/STM32F0xx_HAL_Driver/Src/stm32f0xx_ll_usb.c **** {
 2143              		.loc 1 742 1 is_stmt 1 view -0
 2144              		.cfi_startproc
 2145              		@ args = 0, pretend = 0, frame = 0
 2146              		@ frame_needed = 0, uses_anonymous_args = 0
 2147              		@ link register save eliminated.
 743:Drivers/STM32F0xx_HAL_Driver/Src/stm32f0xx_ll_usb.c ****   /* Disable DP Pull-Up bit to disconnect the Internal PU resistor on USB DP line */
 744:Drivers/STM32F0xx_HAL_Driver/Src/stm32f0xx_ll_usb.c ****   USBx->BCDR &= (uint16_t)(~(USB_BCDR_DPPU));
 2148              		.loc 1 744 3 view .LVU649
 2149              		.loc 1 744 7 is_stmt 0 view .LVU650
 2150 0000 5822     		movs	r2, #88
 2151 0002 835A     		ldrh	r3, [r0, r2]
 2152              		.loc 1 744 14 view .LVU651
 2153 0004 5B04     		lsls	r3, r3, #17
 2154 0006 5B0C     		lsrs	r3, r3, #17
 2155 0008 8352     		strh	r3, [r0, r2]
 745:Drivers/STM32F0xx_HAL_Driver/Src/stm32f0xx_ll_usb.c **** 
 746:Drivers/STM32F0xx_HAL_Driver/Src/stm32f0xx_ll_usb.c ****   return HAL_OK;
 2156              		.loc 1 746 3 is_stmt 1 view .LVU652
 747:Drivers/STM32F0xx_HAL_Driver/Src/stm32f0xx_ll_usb.c **** }
 2157              		.loc 1 747 1 is_stmt 0 view .LVU653
 2158 000a 0020     		movs	r0, #0
 2159              	.LVL225:
 2160              		.loc 1 747 1 view .LVU654
 2161              		@ sp needed
 2162 000c 7047     		bx	lr
 2163              		.cfi_endproc
 2164              	.LFE54:
 2166              		.section	.text.USB_ReadInterrupts,"ax",%progbits
 2167              		.align	1
 2168              		.global	USB_ReadInterrupts
 2169              		.syntax unified
 2170              		.code	16
 2171              		.thumb_func
 2173              	USB_ReadInterrupts:
 2174              	.LVL226:
 2175              	.LFB55:
 748:Drivers/STM32F0xx_HAL_Driver/Src/stm32f0xx_ll_usb.c **** 
 749:Drivers/STM32F0xx_HAL_Driver/Src/stm32f0xx_ll_usb.c **** /**
 750:Drivers/STM32F0xx_HAL_Driver/Src/stm32f0xx_ll_usb.c ****   * @brief  USB_ReadInterrupts return the global USB interrupt status
 751:Drivers/STM32F0xx_HAL_Driver/Src/stm32f0xx_ll_usb.c ****   * @param  USBx Selected device
 752:Drivers/STM32F0xx_HAL_Driver/Src/stm32f0xx_ll_usb.c ****   * @retval USB Global Interrupt status
 753:Drivers/STM32F0xx_HAL_Driver/Src/stm32f0xx_ll_usb.c ****   */
 754:Drivers/STM32F0xx_HAL_Driver/Src/stm32f0xx_ll_usb.c **** uint32_t USB_ReadInterrupts(USB_TypeDef *USBx)
 755:Drivers/STM32F0xx_HAL_Driver/Src/stm32f0xx_ll_usb.c **** {
 2176              		.loc 1 755 1 is_stmt 1 view -0
 2177              		.cfi_startproc
 2178              		@ args = 0, pretend = 0, frame = 0
 2179              		@ frame_needed = 0, uses_anonymous_args = 0
 2180              		@ link register save eliminated.
 756:Drivers/STM32F0xx_HAL_Driver/Src/stm32f0xx_ll_usb.c ****   uint32_t tmpreg;
ARM GAS  C:\Users\Daniel\AppData\Local\Temp\ccnluvCc.s 			page 56


 2181              		.loc 1 756 3 view .LVU656
 757:Drivers/STM32F0xx_HAL_Driver/Src/stm32f0xx_ll_usb.c **** 
 758:Drivers/STM32F0xx_HAL_Driver/Src/stm32f0xx_ll_usb.c ****   tmpreg = USBx->ISTR;
 2182              		.loc 1 758 3 view .LVU657
 2183              		.loc 1 758 16 is_stmt 0 view .LVU658
 2184 0000 4423     		movs	r3, #68
 2185 0002 C05A     		ldrh	r0, [r0, r3]
 2186              	.LVL227:
 2187              		.loc 1 758 16 view .LVU659
 2188 0004 80B2     		uxth	r0, r0
 2189              	.LVL228:
 759:Drivers/STM32F0xx_HAL_Driver/Src/stm32f0xx_ll_usb.c ****   return tmpreg;
 2190              		.loc 1 759 3 is_stmt 1 view .LVU660
 760:Drivers/STM32F0xx_HAL_Driver/Src/stm32f0xx_ll_usb.c **** }
 2191              		.loc 1 760 1 is_stmt 0 view .LVU661
 2192              		@ sp needed
 2193 0006 7047     		bx	lr
 2194              		.cfi_endproc
 2195              	.LFE55:
 2197              		.section	.text.USB_ActivateRemoteWakeup,"ax",%progbits
 2198              		.align	1
 2199              		.global	USB_ActivateRemoteWakeup
 2200              		.syntax unified
 2201              		.code	16
 2202              		.thumb_func
 2204              	USB_ActivateRemoteWakeup:
 2205              	.LVL229:
 2206              	.LFB56:
 761:Drivers/STM32F0xx_HAL_Driver/Src/stm32f0xx_ll_usb.c **** 
 762:Drivers/STM32F0xx_HAL_Driver/Src/stm32f0xx_ll_usb.c **** /**
 763:Drivers/STM32F0xx_HAL_Driver/Src/stm32f0xx_ll_usb.c ****   * @brief  USB_ActivateRemoteWakeup : active remote wakeup signalling
 764:Drivers/STM32F0xx_HAL_Driver/Src/stm32f0xx_ll_usb.c ****   * @param  USBx Selected device
 765:Drivers/STM32F0xx_HAL_Driver/Src/stm32f0xx_ll_usb.c ****   * @retval HAL status
 766:Drivers/STM32F0xx_HAL_Driver/Src/stm32f0xx_ll_usb.c ****   */
 767:Drivers/STM32F0xx_HAL_Driver/Src/stm32f0xx_ll_usb.c **** HAL_StatusTypeDef USB_ActivateRemoteWakeup(USB_TypeDef *USBx)
 768:Drivers/STM32F0xx_HAL_Driver/Src/stm32f0xx_ll_usb.c **** {
 2207              		.loc 1 768 1 is_stmt 1 view -0
 2208              		.cfi_startproc
 2209              		@ args = 0, pretend = 0, frame = 0
 2210              		@ frame_needed = 0, uses_anonymous_args = 0
 2211              		@ link register save eliminated.
 769:Drivers/STM32F0xx_HAL_Driver/Src/stm32f0xx_ll_usb.c ****   USBx->CNTR |= (uint16_t)USB_CNTR_RESUME;
 2212              		.loc 1 769 3 view .LVU663
 2213              		.loc 1 769 7 is_stmt 0 view .LVU664
 2214 0000 4022     		movs	r2, #64
 2215 0002 835A     		ldrh	r3, [r0, r2]
 2216              		.loc 1 769 14 view .LVU665
 2217 0004 1021     		movs	r1, #16
 2218 0006 0B43     		orrs	r3, r1
 2219 0008 9BB2     		uxth	r3, r3
 2220 000a 8352     		strh	r3, [r0, r2]
 770:Drivers/STM32F0xx_HAL_Driver/Src/stm32f0xx_ll_usb.c **** 
 771:Drivers/STM32F0xx_HAL_Driver/Src/stm32f0xx_ll_usb.c ****   return HAL_OK;
 2221              		.loc 1 771 3 is_stmt 1 view .LVU666
 772:Drivers/STM32F0xx_HAL_Driver/Src/stm32f0xx_ll_usb.c **** }
 2222              		.loc 1 772 1 is_stmt 0 view .LVU667
 2223 000c 0020     		movs	r0, #0
ARM GAS  C:\Users\Daniel\AppData\Local\Temp\ccnluvCc.s 			page 57


 2224              	.LVL230:
 2225              		.loc 1 772 1 view .LVU668
 2226              		@ sp needed
 2227 000e 7047     		bx	lr
 2228              		.cfi_endproc
 2229              	.LFE56:
 2231              		.section	.text.USB_DeActivateRemoteWakeup,"ax",%progbits
 2232              		.align	1
 2233              		.global	USB_DeActivateRemoteWakeup
 2234              		.syntax unified
 2235              		.code	16
 2236              		.thumb_func
 2238              	USB_DeActivateRemoteWakeup:
 2239              	.LVL231:
 2240              	.LFB57:
 773:Drivers/STM32F0xx_HAL_Driver/Src/stm32f0xx_ll_usb.c **** 
 774:Drivers/STM32F0xx_HAL_Driver/Src/stm32f0xx_ll_usb.c **** /**
 775:Drivers/STM32F0xx_HAL_Driver/Src/stm32f0xx_ll_usb.c ****   * @brief  USB_DeActivateRemoteWakeup de-active remote wakeup signalling
 776:Drivers/STM32F0xx_HAL_Driver/Src/stm32f0xx_ll_usb.c ****   * @param  USBx Selected device
 777:Drivers/STM32F0xx_HAL_Driver/Src/stm32f0xx_ll_usb.c ****   * @retval HAL status
 778:Drivers/STM32F0xx_HAL_Driver/Src/stm32f0xx_ll_usb.c ****   */
 779:Drivers/STM32F0xx_HAL_Driver/Src/stm32f0xx_ll_usb.c **** HAL_StatusTypeDef USB_DeActivateRemoteWakeup(USB_TypeDef *USBx)
 780:Drivers/STM32F0xx_HAL_Driver/Src/stm32f0xx_ll_usb.c **** {
 2241              		.loc 1 780 1 is_stmt 1 view -0
 2242              		.cfi_startproc
 2243              		@ args = 0, pretend = 0, frame = 0
 2244              		@ frame_needed = 0, uses_anonymous_args = 0
 2245              		@ link register save eliminated.
 781:Drivers/STM32F0xx_HAL_Driver/Src/stm32f0xx_ll_usb.c ****   USBx->CNTR &= (uint16_t)(~USB_CNTR_RESUME);
 2246              		.loc 1 781 3 view .LVU670
 2247              		.loc 1 781 7 is_stmt 0 view .LVU671
 2248 0000 4022     		movs	r2, #64
 2249 0002 835A     		ldrh	r3, [r0, r2]
 2250              		.loc 1 781 14 view .LVU672
 2251 0004 1021     		movs	r1, #16
 2252 0006 8B43     		bics	r3, r1
 2253 0008 8352     		strh	r3, [r0, r2]
 782:Drivers/STM32F0xx_HAL_Driver/Src/stm32f0xx_ll_usb.c **** 
 783:Drivers/STM32F0xx_HAL_Driver/Src/stm32f0xx_ll_usb.c ****   return HAL_OK;
 2254              		.loc 1 783 3 is_stmt 1 view .LVU673
 784:Drivers/STM32F0xx_HAL_Driver/Src/stm32f0xx_ll_usb.c **** }
 2255              		.loc 1 784 1 is_stmt 0 view .LVU674
 2256 000a 0020     		movs	r0, #0
 2257              	.LVL232:
 2258              		.loc 1 784 1 view .LVU675
 2259              		@ sp needed
 2260 000c 7047     		bx	lr
 2261              		.cfi_endproc
 2262              	.LFE57:
 2264              		.section	.text.USB_WritePMA,"ax",%progbits
 2265              		.align	1
 2266              		.global	USB_WritePMA
 2267              		.syntax unified
 2268              		.code	16
 2269              		.thumb_func
 2271              	USB_WritePMA:
 2272              	.LVL233:
ARM GAS  C:\Users\Daniel\AppData\Local\Temp\ccnluvCc.s 			page 58


 2273              	.LFB58:
 785:Drivers/STM32F0xx_HAL_Driver/Src/stm32f0xx_ll_usb.c **** 
 786:Drivers/STM32F0xx_HAL_Driver/Src/stm32f0xx_ll_usb.c **** /**
 787:Drivers/STM32F0xx_HAL_Driver/Src/stm32f0xx_ll_usb.c ****   * @brief Copy a buffer from user memory area to packet memory area (PMA)
 788:Drivers/STM32F0xx_HAL_Driver/Src/stm32f0xx_ll_usb.c ****   * @param   USBx USB peripheral instance register address.
 789:Drivers/STM32F0xx_HAL_Driver/Src/stm32f0xx_ll_usb.c ****   * @param   pbUsrBuf pointer to user memory area.
 790:Drivers/STM32F0xx_HAL_Driver/Src/stm32f0xx_ll_usb.c ****   * @param   wPMABufAddr address into PMA.
 791:Drivers/STM32F0xx_HAL_Driver/Src/stm32f0xx_ll_usb.c ****   * @param   wNBytes no. of bytes to be copied.
 792:Drivers/STM32F0xx_HAL_Driver/Src/stm32f0xx_ll_usb.c ****   * @retval None
 793:Drivers/STM32F0xx_HAL_Driver/Src/stm32f0xx_ll_usb.c ****   */
 794:Drivers/STM32F0xx_HAL_Driver/Src/stm32f0xx_ll_usb.c **** void USB_WritePMA(USB_TypeDef *USBx, uint8_t *pbUsrBuf, uint16_t wPMABufAddr, uint16_t wNBytes)
 795:Drivers/STM32F0xx_HAL_Driver/Src/stm32f0xx_ll_usb.c **** {
 2274              		.loc 1 795 1 is_stmt 1 view -0
 2275              		.cfi_startproc
 2276              		@ args = 0, pretend = 0, frame = 0
 2277              		@ frame_needed = 0, uses_anonymous_args = 0
 2278              		.loc 1 795 1 is_stmt 0 view .LVU677
 2279 0000 10B5     		push	{r4, lr}
 2280              		.cfi_def_cfa_offset 8
 2281              		.cfi_offset 4, -8
 2282              		.cfi_offset 14, -4
 796:Drivers/STM32F0xx_HAL_Driver/Src/stm32f0xx_ll_usb.c ****   uint32_t n = ((uint32_t)wNBytes + 1U) >> 1;
 2283              		.loc 1 796 3 is_stmt 1 view .LVU678
 2284              		.loc 1 796 35 is_stmt 0 view .LVU679
 2285 0002 0133     		adds	r3, r3, #1
 2286              	.LVL234:
 2287              		.loc 1 796 12 view .LVU680
 2288 0004 5B08     		lsrs	r3, r3, #1
 2289              	.LVL235:
 797:Drivers/STM32F0xx_HAL_Driver/Src/stm32f0xx_ll_usb.c ****   uint32_t BaseAddr = (uint32_t)USBx;
 2290              		.loc 1 797 3 is_stmt 1 view .LVU681
 798:Drivers/STM32F0xx_HAL_Driver/Src/stm32f0xx_ll_usb.c ****   uint32_t count;
 2291              		.loc 1 798 3 view .LVU682
 799:Drivers/STM32F0xx_HAL_Driver/Src/stm32f0xx_ll_usb.c ****   uint16_t WrVal;
 2292              		.loc 1 799 3 view .LVU683
 800:Drivers/STM32F0xx_HAL_Driver/Src/stm32f0xx_ll_usb.c ****   __IO uint16_t *pdwVal;
 2293              		.loc 1 800 3 view .LVU684
 801:Drivers/STM32F0xx_HAL_Driver/Src/stm32f0xx_ll_usb.c ****   uint8_t *pBuf = pbUsrBuf;
 2294              		.loc 1 801 3 view .LVU685
 802:Drivers/STM32F0xx_HAL_Driver/Src/stm32f0xx_ll_usb.c **** 
 803:Drivers/STM32F0xx_HAL_Driver/Src/stm32f0xx_ll_usb.c ****   pdwVal = (__IO uint16_t *)(BaseAddr + 0x400U + ((uint32_t)wPMABufAddr * PMA_ACCESS));
 2295              		.loc 1 803 3 view .LVU686
 2296              		.loc 1 803 48 is_stmt 0 view .LVU687
 2297 0006 1218     		adds	r2, r2, r0
 2298              	.LVL236:
 2299              		.loc 1 803 48 view .LVU688
 2300 0008 8020     		movs	r0, #128
 2301              	.LVL237:
 2302              		.loc 1 803 48 view .LVU689
 2303 000a C000     		lsls	r0, r0, #3
 2304 000c 8446     		mov	ip, r0
 2305 000e 6244     		add	r2, r2, ip
 2306              	.LVL238:
 804:Drivers/STM32F0xx_HAL_Driver/Src/stm32f0xx_ll_usb.c **** 
 805:Drivers/STM32F0xx_HAL_Driver/Src/stm32f0xx_ll_usb.c ****   for (count = n; count != 0U; count--)
 2307              		.loc 1 805 3 is_stmt 1 view .LVU690
 2308              		.loc 1 805 3 is_stmt 0 view .LVU691
ARM GAS  C:\Users\Daniel\AppData\Local\Temp\ccnluvCc.s 			page 59


 2309 0010 07E0     		b	.L103
 2310              	.LVL239:
 2311              	.L104:
 806:Drivers/STM32F0xx_HAL_Driver/Src/stm32f0xx_ll_usb.c ****   {
 807:Drivers/STM32F0xx_HAL_Driver/Src/stm32f0xx_ll_usb.c ****     WrVal = pBuf[0];
 2312              		.loc 1 807 5 is_stmt 1 discriminator 3 view .LVU692
 2313              		.loc 1 807 17 is_stmt 0 discriminator 3 view .LVU693
 2314 0012 0C78     		ldrb	r4, [r1]
 2315              	.LVL240:
 808:Drivers/STM32F0xx_HAL_Driver/Src/stm32f0xx_ll_usb.c ****     WrVal |= (uint16_t)pBuf[1] << 8;
 2316              		.loc 1 808 5 is_stmt 1 discriminator 3 view .LVU694
 2317              		.loc 1 808 28 is_stmt 0 discriminator 3 view .LVU695
 2318 0014 4878     		ldrb	r0, [r1, #1]
 2319              		.loc 1 808 32 discriminator 3 view .LVU696
 2320 0016 0002     		lsls	r0, r0, #8
 2321              		.loc 1 808 11 discriminator 3 view .LVU697
 2322 0018 2043     		orrs	r0, r4
 2323              	.LVL241:
 809:Drivers/STM32F0xx_HAL_Driver/Src/stm32f0xx_ll_usb.c ****     *pdwVal = (WrVal & 0xFFFFU);
 2324              		.loc 1 809 5 is_stmt 1 discriminator 3 view .LVU698
 2325              		.loc 1 809 13 is_stmt 0 discriminator 3 view .LVU699
 2326 001a 1080     		strh	r0, [r2]
 810:Drivers/STM32F0xx_HAL_Driver/Src/stm32f0xx_ll_usb.c ****     pdwVal++;
 2327              		.loc 1 810 5 is_stmt 1 discriminator 3 view .LVU700
 2328              		.loc 1 810 11 is_stmt 0 discriminator 3 view .LVU701
 2329 001c 0232     		adds	r2, r2, #2
 2330              	.LVL242:
 811:Drivers/STM32F0xx_HAL_Driver/Src/stm32f0xx_ll_usb.c **** 
 812:Drivers/STM32F0xx_HAL_Driver/Src/stm32f0xx_ll_usb.c **** #if PMA_ACCESS > 1U
 813:Drivers/STM32F0xx_HAL_Driver/Src/stm32f0xx_ll_usb.c ****     pdwVal++;
 814:Drivers/STM32F0xx_HAL_Driver/Src/stm32f0xx_ll_usb.c **** #endif /* PMA_ACCESS */
 815:Drivers/STM32F0xx_HAL_Driver/Src/stm32f0xx_ll_usb.c **** 
 816:Drivers/STM32F0xx_HAL_Driver/Src/stm32f0xx_ll_usb.c ****     pBuf++;
 2331              		.loc 1 816 5 is_stmt 1 discriminator 3 view .LVU702
 817:Drivers/STM32F0xx_HAL_Driver/Src/stm32f0xx_ll_usb.c ****     pBuf++;
 2332              		.loc 1 817 5 discriminator 3 view .LVU703
 2333              		.loc 1 817 9 is_stmt 0 discriminator 3 view .LVU704
 2334 001e 0231     		adds	r1, r1, #2
 2335              	.LVL243:
 805:Drivers/STM32F0xx_HAL_Driver/Src/stm32f0xx_ll_usb.c ****   {
 2336              		.loc 1 805 37 is_stmt 1 discriminator 3 view .LVU705
 2337 0020 013B     		subs	r3, r3, #1
 2338              	.LVL244:
 2339              	.L103:
 805:Drivers/STM32F0xx_HAL_Driver/Src/stm32f0xx_ll_usb.c ****   {
 2340              		.loc 1 805 25 discriminator 1 view .LVU706
 2341 0022 002B     		cmp	r3, #0
 2342 0024 F5D1     		bne	.L104
 818:Drivers/STM32F0xx_HAL_Driver/Src/stm32f0xx_ll_usb.c ****   }
 819:Drivers/STM32F0xx_HAL_Driver/Src/stm32f0xx_ll_usb.c **** }
 2343              		.loc 1 819 1 is_stmt 0 view .LVU707
 2344              		@ sp needed
 2345 0026 10BD     		pop	{r4, pc}
 2346              		.cfi_endproc
 2347              	.LFE58:
 2349              		.section	.text.USB_EPStartXfer,"ax",%progbits
 2350              		.align	1
ARM GAS  C:\Users\Daniel\AppData\Local\Temp\ccnluvCc.s 			page 60


 2351              		.global	USB_EPStartXfer
 2352              		.syntax unified
 2353              		.code	16
 2354              		.thumb_func
 2356              	USB_EPStartXfer:
 2357              	.LVL245:
 2358              	.LFB47:
 375:Drivers/STM32F0xx_HAL_Driver/Src/stm32f0xx_ll_usb.c ****   uint32_t len;
 2359              		.loc 1 375 1 is_stmt 1 view -0
 2360              		.cfi_startproc
 2361              		@ args = 0, pretend = 0, frame = 0
 2362              		@ frame_needed = 0, uses_anonymous_args = 0
 375:Drivers/STM32F0xx_HAL_Driver/Src/stm32f0xx_ll_usb.c ****   uint32_t len;
 2363              		.loc 1 375 1 is_stmt 0 view .LVU709
 2364 0000 70B5     		push	{r4, r5, r6, lr}
 2365              		.cfi_def_cfa_offset 16
 2366              		.cfi_offset 4, -16
 2367              		.cfi_offset 5, -12
 2368              		.cfi_offset 6, -8
 2369              		.cfi_offset 14, -4
 2370 0002 0500     		movs	r5, r0
 2371 0004 0C00     		movs	r4, r1
 376:Drivers/STM32F0xx_HAL_Driver/Src/stm32f0xx_ll_usb.c **** #if (USE_USB_DOUBLE_BUFFER == 1U)
 2372              		.loc 1 376 3 is_stmt 1 view .LVU710
 378:Drivers/STM32F0xx_HAL_Driver/Src/stm32f0xx_ll_usb.c ****   uint16_t wEPVal;
 2373              		.loc 1 378 3 view .LVU711
 379:Drivers/STM32F0xx_HAL_Driver/Src/stm32f0xx_ll_usb.c **** #endif /* (USE_USB_DOUBLE_BUFFER == 1U) */
 2374              		.loc 1 379 3 view .LVU712
 383:Drivers/STM32F0xx_HAL_Driver/Src/stm32f0xx_ll_usb.c ****   {
 2375              		.loc 1 383 3 view .LVU713
 383:Drivers/STM32F0xx_HAL_Driver/Src/stm32f0xx_ll_usb.c ****   {
 2376              		.loc 1 383 9 is_stmt 0 view .LVU714
 2377 0006 4A78     		ldrb	r2, [r1, #1]
 383:Drivers/STM32F0xx_HAL_Driver/Src/stm32f0xx_ll_usb.c ****   {
 2378              		.loc 1 383 6 view .LVU715
 2379 0008 012A     		cmp	r2, #1
 2380 000a 35D0     		beq	.L211
 519:Drivers/STM32F0xx_HAL_Driver/Src/stm32f0xx_ll_usb.c ****     {
 2381              		.loc 1 519 5 is_stmt 1 view .LVU716
 519:Drivers/STM32F0xx_HAL_Driver/Src/stm32f0xx_ll_usb.c ****     {
 2382              		.loc 1 519 11 is_stmt 0 view .LVU717
 2383 000c 0B7B     		ldrb	r3, [r1, #12]
 519:Drivers/STM32F0xx_HAL_Driver/Src/stm32f0xx_ll_usb.c ****     {
 2384              		.loc 1 519 8 view .LVU718
 2385 000e 002B     		cmp	r3, #0
 2386 0010 00D0     		beq	.LCB2441
 2387 0012 6DE2     		b	.L155	@long jump
 2388              	.LCB2441:
 522:Drivers/STM32F0xx_HAL_Driver/Src/stm32f0xx_ll_usb.c ****       {
 2389              		.loc 1 522 7 is_stmt 1 view .LVU719
 522:Drivers/STM32F0xx_HAL_Driver/Src/stm32f0xx_ll_usb.c ****       {
 2390              		.loc 1 522 13 is_stmt 0 view .LVU720
 2391 0014 8B69     		ldr	r3, [r1, #24]
 522:Drivers/STM32F0xx_HAL_Driver/Src/stm32f0xx_ll_usb.c ****       {
 2392              		.loc 1 522 28 view .LVU721
 2393 0016 0969     		ldr	r1, [r1, #16]
 2394              	.LVL246:
ARM GAS  C:\Users\Daniel\AppData\Local\Temp\ccnluvCc.s 			page 61


 522:Drivers/STM32F0xx_HAL_Driver/Src/stm32f0xx_ll_usb.c ****       {
 2395              		.loc 1 522 10 view .LVU722
 2396 0018 8B42     		cmp	r3, r1
 2397 001a 00D8     		bhi	.LCB2447
 2398 001c 52E2     		b	.L156	@long jump
 2399              	.LCB2447:
 524:Drivers/STM32F0xx_HAL_Driver/Src/stm32f0xx_ll_usb.c ****         ep->xfer_len -= len;
 2400              		.loc 1 524 9 is_stmt 1 view .LVU723
 2401              	.LVL247:
 525:Drivers/STM32F0xx_HAL_Driver/Src/stm32f0xx_ll_usb.c ****       }
 2402              		.loc 1 525 9 view .LVU724
 525:Drivers/STM32F0xx_HAL_Driver/Src/stm32f0xx_ll_usb.c ****       }
 2403              		.loc 1 525 22 is_stmt 0 view .LVU725
 2404 001e 5B1A     		subs	r3, r3, r1
 2405 0020 A361     		str	r3, [r4, #24]
 2406              	.L157:
 533:Drivers/STM32F0xx_HAL_Driver/Src/stm32f0xx_ll_usb.c ****     }
 2407              		.loc 1 533 7 is_stmt 1 view .LVU726
 2408              	.LBB66:
 533:Drivers/STM32F0xx_HAL_Driver/Src/stm32f0xx_ll_usb.c ****     }
 2409              		.loc 1 533 7 view .LVU727
 2410              	.LVL248:
 533:Drivers/STM32F0xx_HAL_Driver/Src/stm32f0xx_ll_usb.c ****     }
 2411              		.loc 1 533 7 view .LVU728
 533:Drivers/STM32F0xx_HAL_Driver/Src/stm32f0xx_ll_usb.c ****     }
 2412              		.loc 1 533 7 view .LVU729
 2413 0022 5023     		movs	r3, #80
 2414 0024 EA5A     		ldrh	r2, [r5, r3]
 2415 0026 AA18     		adds	r2, r5, r2
 2416              	.LVL249:
 533:Drivers/STM32F0xx_HAL_Driver/Src/stm32f0xx_ll_usb.c ****     }
 2417              		.loc 1 533 7 view .LVU730
 2418 0028 2378     		ldrb	r3, [r4]
 2419 002a DB00     		lsls	r3, r3, #3
 2420 002c 9B18     		adds	r3, r3, r2
 2421 002e AB4A     		ldr	r2, .L220
 2422              	.LVL250:
 533:Drivers/STM32F0xx_HAL_Driver/Src/stm32f0xx_ll_usb.c ****     }
 2423              		.loc 1 533 7 is_stmt 0 view .LVU731
 2424 0030 9446     		mov	ip, r2
 2425 0032 6344     		add	r3, r3, ip
 2426              	.LVL251:
 533:Drivers/STM32F0xx_HAL_Driver/Src/stm32f0xx_ll_usb.c ****     }
 2427              		.loc 1 533 7 is_stmt 1 view .LVU732
 2428              	.LBB67:
 533:Drivers/STM32F0xx_HAL_Driver/Src/stm32f0xx_ll_usb.c ****     }
 2429              		.loc 1 533 7 view .LVU733
 533:Drivers/STM32F0xx_HAL_Driver/Src/stm32f0xx_ll_usb.c ****     }
 2430              		.loc 1 533 7 view .LVU734
 2431 0034 1A88     		ldrh	r2, [r3]
 2432 0036 9205     		lsls	r2, r2, #22
 2433 0038 920D     		lsrs	r2, r2, #22
 2434 003a 1A80     		strh	r2, [r3]
 533:Drivers/STM32F0xx_HAL_Driver/Src/stm32f0xx_ll_usb.c ****     }
 2435              		.loc 1 533 7 view .LVU735
 2436 003c 3E29     		cmp	r1, #62
 2437 003e 00D8     		bhi	.LCB2489
ARM GAS  C:\Users\Daniel\AppData\Local\Temp\ccnluvCc.s 			page 62


 2438 0040 44E2     		b	.L158	@long jump
 2439              	.LCB2489:
 533:Drivers/STM32F0xx_HAL_Driver/Src/stm32f0xx_ll_usb.c ****     }
 2440              		.loc 1 533 7 discriminator 1 view .LVU736
 533:Drivers/STM32F0xx_HAL_Driver/Src/stm32f0xx_ll_usb.c ****     }
 2441              		.loc 1 533 7 discriminator 1 view .LVU737
 2442 0042 4A09     		lsrs	r2, r1, #5
 2443              	.LVL252:
 533:Drivers/STM32F0xx_HAL_Driver/Src/stm32f0xx_ll_usb.c ****     }
 2444              		.loc 1 533 7 discriminator 1 view .LVU738
 2445 0044 C906     		lsls	r1, r1, #27
 2446 0046 00D1     		bne	.L159
 2447              	.LVL253:
 533:Drivers/STM32F0xx_HAL_Driver/Src/stm32f0xx_ll_usb.c ****     }
 2448              		.loc 1 533 7 discriminator 3 view .LVU739
 2449 0048 013A     		subs	r2, r2, #1
 2450              	.LVL254:
 2451              	.L159:
 533:Drivers/STM32F0xx_HAL_Driver/Src/stm32f0xx_ll_usb.c ****     }
 2452              		.loc 1 533 7 discriminator 5 view .LVU740
 2453 004a 1988     		ldrh	r1, [r3]
 2454 004c 9202     		lsls	r2, r2, #10
 2455              	.LVL255:
 533:Drivers/STM32F0xx_HAL_Driver/Src/stm32f0xx_ll_usb.c ****     }
 2456              		.loc 1 533 7 is_stmt 0 discriminator 5 view .LVU741
 2457 004e 92B2     		uxth	r2, r2
 2458 0050 1143     		orrs	r1, r2
 2459 0052 A34A     		ldr	r2, .L220+4
 2460 0054 0A43     		orrs	r2, r1
 2461 0056 92B2     		uxth	r2, r2
 2462 0058 1A80     		strh	r2, [r3]
 533:Drivers/STM32F0xx_HAL_Driver/Src/stm32f0xx_ll_usb.c ****     }
 2463              		.loc 1 533 7 is_stmt 1 discriminator 5 view .LVU742
 2464              	.LVL256:
 2465              	.L160:
 533:Drivers/STM32F0xx_HAL_Driver/Src/stm32f0xx_ll_usb.c ****     }
 2466              		.loc 1 533 7 is_stmt 0 discriminator 5 view .LVU743
 2467              	.LBE67:
 2468              	.LBE66:
 581:Drivers/STM32F0xx_HAL_Driver/Src/stm32f0xx_ll_usb.c ****   }
 2469              		.loc 1 581 5 is_stmt 1 view .LVU744
 2470              	.LBB69:
 581:Drivers/STM32F0xx_HAL_Driver/Src/stm32f0xx_ll_usb.c ****   }
 2471              		.loc 1 581 5 view .LVU745
 581:Drivers/STM32F0xx_HAL_Driver/Src/stm32f0xx_ll_usb.c ****   }
 2472              		.loc 1 581 5 view .LVU746
 2473 005a 2378     		ldrb	r3, [r4]
 2474 005c 9B00     		lsls	r3, r3, #2
 2475 005e ED18     		adds	r5, r5, r3
 2476              	.LVL257:
 581:Drivers/STM32F0xx_HAL_Driver/Src/stm32f0xx_ll_usb.c ****   }
 2477              		.loc 1 581 5 is_stmt 0 view .LVU747
 2478 0060 2B88     		ldrh	r3, [r5]
 2479 0062 A04A     		ldr	r2, .L220+8
 2480 0064 1340     		ands	r3, r2
 2481              	.LVL258:
 581:Drivers/STM32F0xx_HAL_Driver/Src/stm32f0xx_ll_usb.c ****   }
ARM GAS  C:\Users\Daniel\AppData\Local\Temp\ccnluvCc.s 			page 63


 2482              		.loc 1 581 5 is_stmt 1 view .LVU748
 581:Drivers/STM32F0xx_HAL_Driver/Src/stm32f0xx_ll_usb.c ****   }
 2483              		.loc 1 581 5 view .LVU749
 581:Drivers/STM32F0xx_HAL_Driver/Src/stm32f0xx_ll_usb.c ****   }
 2484              		.loc 1 581 5 view .LVU750
 581:Drivers/STM32F0xx_HAL_Driver/Src/stm32f0xx_ll_usb.c ****   }
 2485              		.loc 1 581 5 view .LVU751
 2486 0066 C022     		movs	r2, #192
 2487 0068 9201     		lsls	r2, r2, #6
 2488 006a 5A40     		eors	r2, r3
 2489              	.LVL259:
 581:Drivers/STM32F0xx_HAL_Driver/Src/stm32f0xx_ll_usb.c ****   }
 2490              		.loc 1 581 5 view .LVU752
 2491 006c 9E4B     		ldr	r3, .L220+12
 2492 006e 1343     		orrs	r3, r2
 2493 0070 9BB2     		uxth	r3, r3
 2494 0072 2B80     		strh	r3, [r5]
 2495              	.LBE69:
 584:Drivers/STM32F0xx_HAL_Driver/Src/stm32f0xx_ll_usb.c **** }
 2496              		.loc 1 584 10 is_stmt 0 view .LVU753
 2497 0074 0020     		movs	r0, #0
 2498              	.LVL260:
 2499              	.L154:
 585:Drivers/STM32F0xx_HAL_Driver/Src/stm32f0xx_ll_usb.c **** 
 2500              		.loc 1 585 1 view .LVU754
 2501              		@ sp needed
 2502              	.LVL261:
 585:Drivers/STM32F0xx_HAL_Driver/Src/stm32f0xx_ll_usb.c **** 
 2503              		.loc 1 585 1 view .LVU755
 2504 0076 70BD     		pop	{r4, r5, r6, pc}
 2505              	.LVL262:
 2506              	.L211:
 386:Drivers/STM32F0xx_HAL_Driver/Src/stm32f0xx_ll_usb.c ****     {
 2507              		.loc 1 386 5 is_stmt 1 view .LVU756
 386:Drivers/STM32F0xx_HAL_Driver/Src/stm32f0xx_ll_usb.c ****     {
 2508              		.loc 1 386 11 is_stmt 0 view .LVU757
 2509 0078 8E69     		ldr	r6, [r1, #24]
 386:Drivers/STM32F0xx_HAL_Driver/Src/stm32f0xx_ll_usb.c ****     {
 2510              		.loc 1 386 26 view .LVU758
 2511 007a 0969     		ldr	r1, [r1, #16]
 2512              	.LVL263:
 386:Drivers/STM32F0xx_HAL_Driver/Src/stm32f0xx_ll_usb.c ****     {
 2513              		.loc 1 386 8 view .LVU759
 2514 007c 8E42     		cmp	r6, r1
 2515 007e 00D9     		bls	.L107
 388:Drivers/STM32F0xx_HAL_Driver/Src/stm32f0xx_ll_usb.c ****     }
 2516              		.loc 1 388 11 view .LVU760
 2517 0080 0E00     		movs	r6, r1
 2518              	.L107:
 2519              	.LVL264:
 396:Drivers/STM32F0xx_HAL_Driver/Src/stm32f0xx_ll_usb.c ****     {
 2520              		.loc 1 396 5 is_stmt 1 view .LVU761
 396:Drivers/STM32F0xx_HAL_Driver/Src/stm32f0xx_ll_usb.c ****     {
 2521              		.loc 1 396 11 is_stmt 0 view .LVU762
 2522 0082 237B     		ldrb	r3, [r4, #12]
 396:Drivers/STM32F0xx_HAL_Driver/Src/stm32f0xx_ll_usb.c ****     {
 2523              		.loc 1 396 8 view .LVU763
ARM GAS  C:\Users\Daniel\AppData\Local\Temp\ccnluvCc.s 			page 64


 2524 0084 002B     		cmp	r3, #0
 2525 0086 2BD0     		beq	.L212
 405:Drivers/STM32F0xx_HAL_Driver/Src/stm32f0xx_ll_usb.c ****       {
 2526              		.loc 1 405 7 is_stmt 1 view .LVU764
 405:Drivers/STM32F0xx_HAL_Driver/Src/stm32f0xx_ll_usb.c ****       {
 2527              		.loc 1 405 13 is_stmt 0 view .LVU765
 2528 0088 E378     		ldrb	r3, [r4, #3]
 405:Drivers/STM32F0xx_HAL_Driver/Src/stm32f0xx_ll_usb.c ****       {
 2529              		.loc 1 405 10 view .LVU766
 2530 008a 022B     		cmp	r3, #2
 2531 008c 48D0     		beq	.L213
 490:Drivers/STM32F0xx_HAL_Driver/Src/stm32f0xx_ll_usb.c **** 
 2532              		.loc 1 490 9 is_stmt 1 view .LVU767
 490:Drivers/STM32F0xx_HAL_Driver/Src/stm32f0xx_ll_usb.c **** 
 2533              		.loc 1 490 11 is_stmt 0 view .LVU768
 2534 008e 236A     		ldr	r3, [r4, #32]
 490:Drivers/STM32F0xx_HAL_Driver/Src/stm32f0xx_ll_usb.c **** 
 2535              		.loc 1 490 25 view .LVU769
 2536 0090 9B1B     		subs	r3, r3, r6
 2537 0092 2362     		str	r3, [r4, #32]
 493:Drivers/STM32F0xx_HAL_Driver/Src/stm32f0xx_ll_usb.c ****         {
 2538              		.loc 1 493 9 is_stmt 1 view .LVU770
 493:Drivers/STM32F0xx_HAL_Driver/Src/stm32f0xx_ll_usb.c ****         {
 2539              		.loc 1 493 14 is_stmt 0 view .LVU771
 2540 0094 2378     		ldrb	r3, [r4]
 2541 0096 9900     		lsls	r1, r3, #2
 2542 0098 6918     		adds	r1, r5, r1
 2543 009a 0988     		ldrh	r1, [r1]
 493:Drivers/STM32F0xx_HAL_Driver/Src/stm32f0xx_ll_usb.c ****         {
 2544              		.loc 1 493 12 view .LVU772
 2545 009c 4906     		lsls	r1, r1, #25
 2546 009e 00D4     		bmi	.LCB2612
 2547 00a0 D0E1     		b	.L141	@long jump
 2548              	.LCB2612:
 496:Drivers/STM32F0xx_HAL_Driver/Src/stm32f0xx_ll_usb.c ****           pmabuffer = ep->pmaaddr1;
 2549              		.loc 1 496 11 is_stmt 1 view .LVU773
 2550              	.LBB70:
 496:Drivers/STM32F0xx_HAL_Driver/Src/stm32f0xx_ll_usb.c ****           pmabuffer = ep->pmaaddr1;
 2551              		.loc 1 496 11 view .LVU774
 2552              	.LVL265:
 496:Drivers/STM32F0xx_HAL_Driver/Src/stm32f0xx_ll_usb.c ****           pmabuffer = ep->pmaaddr1;
 2553              		.loc 1 496 11 view .LVU775
 496:Drivers/STM32F0xx_HAL_Driver/Src/stm32f0xx_ll_usb.c ****           pmabuffer = ep->pmaaddr1;
 2554              		.loc 1 496 11 view .LVU776
 2555 00a2 002A     		cmp	r2, #0
 2556 00a4 00D0     		beq	.LCB2620
 2557 00a6 BCE1     		b	.L142	@long jump
 2558              	.LCB2620:
 496:Drivers/STM32F0xx_HAL_Driver/Src/stm32f0xx_ll_usb.c ****           pmabuffer = ep->pmaaddr1;
 2559              		.loc 1 496 11 discriminator 1 view .LVU777
 2560              	.LBB71:
 496:Drivers/STM32F0xx_HAL_Driver/Src/stm32f0xx_ll_usb.c ****           pmabuffer = ep->pmaaddr1;
 2561              		.loc 1 496 11 discriminator 1 view .LVU778
 2562              	.LVL266:
 496:Drivers/STM32F0xx_HAL_Driver/Src/stm32f0xx_ll_usb.c ****           pmabuffer = ep->pmaaddr1;
 2563              		.loc 1 496 11 discriminator 1 view .LVU779
 496:Drivers/STM32F0xx_HAL_Driver/Src/stm32f0xx_ll_usb.c ****           pmabuffer = ep->pmaaddr1;
ARM GAS  C:\Users\Daniel\AppData\Local\Temp\ccnluvCc.s 			page 65


 2564              		.loc 1 496 11 discriminator 1 view .LVU780
 2565 00a8 5032     		adds	r2, r2, #80
 2566 00aa AA5A     		ldrh	r2, [r5, r2]
 2567 00ac AA18     		adds	r2, r5, r2
 2568              	.LVL267:
 496:Drivers/STM32F0xx_HAL_Driver/Src/stm32f0xx_ll_usb.c ****           pmabuffer = ep->pmaaddr1;
 2569              		.loc 1 496 11 discriminator 1 view .LVU781
 2570 00ae DB00     		lsls	r3, r3, #3
 2571 00b0 9B18     		adds	r3, r3, r2
 2572 00b2 8A4A     		ldr	r2, .L220
 2573              	.LVL268:
 496:Drivers/STM32F0xx_HAL_Driver/Src/stm32f0xx_ll_usb.c ****           pmabuffer = ep->pmaaddr1;
 2574              		.loc 1 496 11 is_stmt 0 discriminator 1 view .LVU782
 2575 00b4 9446     		mov	ip, r2
 2576 00b6 6344     		add	r3, r3, ip
 2577              	.LVL269:
 496:Drivers/STM32F0xx_HAL_Driver/Src/stm32f0xx_ll_usb.c ****           pmabuffer = ep->pmaaddr1;
 2578              		.loc 1 496 11 is_stmt 1 discriminator 1 view .LVU783
 2579              	.LBB72:
 496:Drivers/STM32F0xx_HAL_Driver/Src/stm32f0xx_ll_usb.c ****           pmabuffer = ep->pmaaddr1;
 2580              		.loc 1 496 11 discriminator 1 view .LVU784
 496:Drivers/STM32F0xx_HAL_Driver/Src/stm32f0xx_ll_usb.c ****           pmabuffer = ep->pmaaddr1;
 2581              		.loc 1 496 11 discriminator 1 view .LVU785
 2582 00b8 1A88     		ldrh	r2, [r3]
 2583 00ba 9205     		lsls	r2, r2, #22
 2584 00bc 920D     		lsrs	r2, r2, #22
 2585 00be 1A80     		strh	r2, [r3]
 496:Drivers/STM32F0xx_HAL_Driver/Src/stm32f0xx_ll_usb.c ****           pmabuffer = ep->pmaaddr1;
 2586              		.loc 1 496 11 discriminator 1 view .LVU786
 2587 00c0 3E2E     		cmp	r6, #62
 2588 00c2 00D8     		bhi	.LCB2652
 2589 00c4 9BE1     		b	.L143	@long jump
 2590              	.LCB2652:
 496:Drivers/STM32F0xx_HAL_Driver/Src/stm32f0xx_ll_usb.c ****           pmabuffer = ep->pmaaddr1;
 2591              		.loc 1 496 11 discriminator 3 view .LVU787
 496:Drivers/STM32F0xx_HAL_Driver/Src/stm32f0xx_ll_usb.c ****           pmabuffer = ep->pmaaddr1;
 2592              		.loc 1 496 11 discriminator 3 view .LVU788
 2593 00c6 7209     		lsrs	r2, r6, #5
 2594              	.LVL270:
 496:Drivers/STM32F0xx_HAL_Driver/Src/stm32f0xx_ll_usb.c ****           pmabuffer = ep->pmaaddr1;
 2595              		.loc 1 496 11 discriminator 3 view .LVU789
 2596 00c8 F106     		lsls	r1, r6, #27
 2597 00ca 00D1     		bne	.L144
 496:Drivers/STM32F0xx_HAL_Driver/Src/stm32f0xx_ll_usb.c ****           pmabuffer = ep->pmaaddr1;
 2598              		.loc 1 496 11 discriminator 5 view .LVU790
 2599 00cc 013A     		subs	r2, r2, #1
 2600              	.LVL271:
 2601              	.L144:
 496:Drivers/STM32F0xx_HAL_Driver/Src/stm32f0xx_ll_usb.c ****           pmabuffer = ep->pmaaddr1;
 2602              		.loc 1 496 11 discriminator 7 view .LVU791
 2603 00ce 1988     		ldrh	r1, [r3]
 2604 00d0 9202     		lsls	r2, r2, #10
 2605              	.LVL272:
 496:Drivers/STM32F0xx_HAL_Driver/Src/stm32f0xx_ll_usb.c ****           pmabuffer = ep->pmaaddr1;
 2606              		.loc 1 496 11 is_stmt 0 discriminator 7 view .LVU792
 2607 00d2 92B2     		uxth	r2, r2
 2608 00d4 1143     		orrs	r1, r2
ARM GAS  C:\Users\Daniel\AppData\Local\Temp\ccnluvCc.s 			page 66


 2609 00d6 824A     		ldr	r2, .L220+4
 2610 00d8 0A43     		orrs	r2, r1
 2611 00da 92B2     		uxth	r2, r2
 2612 00dc 1A80     		strh	r2, [r3]
 496:Drivers/STM32F0xx_HAL_Driver/Src/stm32f0xx_ll_usb.c ****           pmabuffer = ep->pmaaddr1;
 2613              		.loc 1 496 11 is_stmt 1 discriminator 7 view .LVU793
 2614 00de AAE1     		b	.L145
 2615              	.LVL273:
 2616              	.L212:
 496:Drivers/STM32F0xx_HAL_Driver/Src/stm32f0xx_ll_usb.c ****           pmabuffer = ep->pmaaddr1;
 2617              		.loc 1 496 11 is_stmt 0 discriminator 7 view .LVU794
 2618              	.LBE72:
 2619              	.LBE71:
 2620              	.LBE70:
 398:Drivers/STM32F0xx_HAL_Driver/Src/stm32f0xx_ll_usb.c ****       PCD_SET_EP_TX_CNT(USBx, ep->num, len);
 2621              		.loc 1 398 7 is_stmt 1 view .LVU795
 2622 00e0 B6B2     		uxth	r6, r6
 2623              	.LVL274:
 398:Drivers/STM32F0xx_HAL_Driver/Src/stm32f0xx_ll_usb.c ****       PCD_SET_EP_TX_CNT(USBx, ep->num, len);
 2624              		.loc 1 398 7 is_stmt 0 view .LVU796
 2625 00e2 E288     		ldrh	r2, [r4, #6]
 2626 00e4 6169     		ldr	r1, [r4, #20]
 2627 00e6 3300     		movs	r3, r6
 2628 00e8 2800     		movs	r0, r5
 2629              	.LVL275:
 398:Drivers/STM32F0xx_HAL_Driver/Src/stm32f0xx_ll_usb.c ****       PCD_SET_EP_TX_CNT(USBx, ep->num, len);
 2630              		.loc 1 398 7 view .LVU797
 2631 00ea FFF7FEFF 		bl	USB_WritePMA
 2632              	.LVL276:
 399:Drivers/STM32F0xx_HAL_Driver/Src/stm32f0xx_ll_usb.c ****     }
 2633              		.loc 1 399 7 is_stmt 1 view .LVU798
 2634              	.LBB75:
 399:Drivers/STM32F0xx_HAL_Driver/Src/stm32f0xx_ll_usb.c ****     }
 2635              		.loc 1 399 7 view .LVU799
 399:Drivers/STM32F0xx_HAL_Driver/Src/stm32f0xx_ll_usb.c ****     }
 2636              		.loc 1 399 7 view .LVU800
 399:Drivers/STM32F0xx_HAL_Driver/Src/stm32f0xx_ll_usb.c ****     }
 2637              		.loc 1 399 7 view .LVU801
 2638 00ee 5023     		movs	r3, #80
 2639 00f0 EA5A     		ldrh	r2, [r5, r3]
 2640 00f2 AA18     		adds	r2, r5, r2
 2641              	.LVL277:
 399:Drivers/STM32F0xx_HAL_Driver/Src/stm32f0xx_ll_usb.c ****     }
 2642              		.loc 1 399 7 view .LVU802
 2643 00f4 2378     		ldrb	r3, [r4]
 2644 00f6 DB00     		lsls	r3, r3, #3
 2645 00f8 9B18     		adds	r3, r3, r2
 2646 00fa 7C4A     		ldr	r2, .L220+16
 2647              	.LVL278:
 399:Drivers/STM32F0xx_HAL_Driver/Src/stm32f0xx_ll_usb.c ****     }
 2648              		.loc 1 399 7 is_stmt 0 view .LVU803
 2649 00fc 9446     		mov	ip, r2
 2650 00fe 6344     		add	r3, r3, ip
 2651              	.LVL279:
 399:Drivers/STM32F0xx_HAL_Driver/Src/stm32f0xx_ll_usb.c ****     }
 2652              		.loc 1 399 7 is_stmt 1 view .LVU804
 2653 0100 1E80     		strh	r6, [r3]
ARM GAS  C:\Users\Daniel\AppData\Local\Temp\ccnluvCc.s 			page 67


 2654              	.LBE75:
 399:Drivers/STM32F0xx_HAL_Driver/Src/stm32f0xx_ll_usb.c ****     }
 2655              		.loc 1 399 7 view .LVU805
 2656              	.LVL280:
 2657              	.L109:
 515:Drivers/STM32F0xx_HAL_Driver/Src/stm32f0xx_ll_usb.c ****   }
 2658              		.loc 1 515 5 view .LVU806
 2659              	.LBB76:
 515:Drivers/STM32F0xx_HAL_Driver/Src/stm32f0xx_ll_usb.c ****   }
 2660              		.loc 1 515 5 view .LVU807
 515:Drivers/STM32F0xx_HAL_Driver/Src/stm32f0xx_ll_usb.c ****   }
 2661              		.loc 1 515 5 view .LVU808
 2662 0102 2278     		ldrb	r2, [r4]
 2663 0104 9200     		lsls	r2, r2, #2
 2664 0106 AA18     		adds	r2, r5, r2
 2665 0108 1388     		ldrh	r3, [r2]
 2666 010a 7949     		ldr	r1, .L220+20
 2667 010c 0B40     		ands	r3, r1
 2668              	.LVL281:
 515:Drivers/STM32F0xx_HAL_Driver/Src/stm32f0xx_ll_usb.c ****   }
 2669              		.loc 1 515 5 view .LVU809
 515:Drivers/STM32F0xx_HAL_Driver/Src/stm32f0xx_ll_usb.c ****   }
 2670              		.loc 1 515 5 view .LVU810
 515:Drivers/STM32F0xx_HAL_Driver/Src/stm32f0xx_ll_usb.c ****   }
 2671              		.loc 1 515 5 view .LVU811
 515:Drivers/STM32F0xx_HAL_Driver/Src/stm32f0xx_ll_usb.c ****   }
 2672              		.loc 1 515 5 view .LVU812
 2673 010e 3021     		movs	r1, #48
 2674 0110 4B40     		eors	r3, r1
 2675              	.LVL282:
 515:Drivers/STM32F0xx_HAL_Driver/Src/stm32f0xx_ll_usb.c ****   }
 2676              		.loc 1 515 5 is_stmt 0 view .LVU813
 2677 0112 9BB2     		uxth	r3, r3
 2678              	.LVL283:
 515:Drivers/STM32F0xx_HAL_Driver/Src/stm32f0xx_ll_usb.c ****   }
 2679              		.loc 1 515 5 is_stmt 1 view .LVU814
 2680 0114 7449     		ldr	r1, .L220+12
 2681 0116 0B43     		orrs	r3, r1
 2682              	.LVL284:
 515:Drivers/STM32F0xx_HAL_Driver/Src/stm32f0xx_ll_usb.c ****   }
 2683              		.loc 1 515 5 is_stmt 0 view .LVU815
 2684 0118 9BB2     		uxth	r3, r3
 2685 011a 1380     		strh	r3, [r2]
 2686              	.LBE76:
 515:Drivers/STM32F0xx_HAL_Driver/Src/stm32f0xx_ll_usb.c ****   }
 2687              		.loc 1 515 5 is_stmt 1 view .LVU816
 584:Drivers/STM32F0xx_HAL_Driver/Src/stm32f0xx_ll_usb.c **** }
 2688              		.loc 1 584 10 is_stmt 0 view .LVU817
 2689 011c 0020     		movs	r0, #0
 2690 011e AAE7     		b	.L154
 2691              	.LVL285:
 2692              	.L213:
 407:Drivers/STM32F0xx_HAL_Driver/Src/stm32f0xx_ll_usb.c ****         {
 2693              		.loc 1 407 9 is_stmt 1 view .LVU818
 407:Drivers/STM32F0xx_HAL_Driver/Src/stm32f0xx_ll_usb.c ****         {
 2694              		.loc 1 407 15 is_stmt 0 view .LVU819
 2695 0120 236A     		ldr	r3, [r4, #32]
ARM GAS  C:\Users\Daniel\AppData\Local\Temp\ccnluvCc.s 			page 68


 407:Drivers/STM32F0xx_HAL_Driver/Src/stm32f0xx_ll_usb.c ****         {
 2696              		.loc 1 407 12 view .LVU820
 2697 0122 9942     		cmp	r1, r3
 2698 0124 00D3     		bcc	.LCB2778
 2699 0126 4FE1     		b	.L111	@long jump
 2700              	.LCB2778:
 410:Drivers/STM32F0xx_HAL_Driver/Src/stm32f0xx_ll_usb.c **** 
 2701              		.loc 1 410 11 is_stmt 1 view .LVU821
 2702              	.LBB77:
 410:Drivers/STM32F0xx_HAL_Driver/Src/stm32f0xx_ll_usb.c **** 
 2703              		.loc 1 410 11 view .LVU822
 410:Drivers/STM32F0xx_HAL_Driver/Src/stm32f0xx_ll_usb.c **** 
 2704              		.loc 1 410 11 view .LVU823
 2705 0128 2378     		ldrb	r3, [r4]
 2706 012a 9B00     		lsls	r3, r3, #2
 2707 012c EB18     		adds	r3, r5, r3
 2708 012e 1988     		ldrh	r1, [r3]
 2709 0130 704A     		ldr	r2, .L220+24
 2710 0132 1140     		ands	r1, r2
 2711              	.LVL286:
 410:Drivers/STM32F0xx_HAL_Driver/Src/stm32f0xx_ll_usb.c **** 
 2712              		.loc 1 410 11 view .LVU824
 2713 0134 704A     		ldr	r2, .L220+28
 2714 0136 0A43     		orrs	r2, r1
 2715 0138 92B2     		uxth	r2, r2
 2716 013a 1A80     		strh	r2, [r3]
 2717              	.LBE77:
 410:Drivers/STM32F0xx_HAL_Driver/Src/stm32f0xx_ll_usb.c **** 
 2718              		.loc 1 410 11 view .LVU825
 413:Drivers/STM32F0xx_HAL_Driver/Src/stm32f0xx_ll_usb.c **** 
 2719              		.loc 1 413 11 view .LVU826
 413:Drivers/STM32F0xx_HAL_Driver/Src/stm32f0xx_ll_usb.c **** 
 2720              		.loc 1 413 13 is_stmt 0 view .LVU827
 2721 013c 236A     		ldr	r3, [r4, #32]
 413:Drivers/STM32F0xx_HAL_Driver/Src/stm32f0xx_ll_usb.c **** 
 2722              		.loc 1 413 27 view .LVU828
 2723 013e 9B1B     		subs	r3, r3, r6
 2724 0140 2362     		str	r3, [r4, #32]
 416:Drivers/STM32F0xx_HAL_Driver/Src/stm32f0xx_ll_usb.c ****           {
 2725              		.loc 1 416 11 is_stmt 1 view .LVU829
 416:Drivers/STM32F0xx_HAL_Driver/Src/stm32f0xx_ll_usb.c ****           {
 2726              		.loc 1 416 16 is_stmt 0 view .LVU830
 2727 0142 2378     		ldrb	r3, [r4]
 2728 0144 9A00     		lsls	r2, r3, #2
 2729 0146 AA18     		adds	r2, r5, r2
 2730 0148 1288     		ldrh	r2, [r2]
 416:Drivers/STM32F0xx_HAL_Driver/Src/stm32f0xx_ll_usb.c ****           {
 2731              		.loc 1 416 14 view .LVU831
 2732 014a 5206     		lsls	r2, r2, #25
 2733 014c 00D4     		bmi	.LCB2813
 2734 014e 95E0     		b	.L112	@long jump
 2735              	.LCB2813:
 419:Drivers/STM32F0xx_HAL_Driver/Src/stm32f0xx_ll_usb.c ****             pmabuffer = ep->pmaaddr1;
 2736              		.loc 1 419 13 is_stmt 1 view .LVU832
 2737              	.LBB78:
 419:Drivers/STM32F0xx_HAL_Driver/Src/stm32f0xx_ll_usb.c ****             pmabuffer = ep->pmaaddr1;
 2738              		.loc 1 419 13 view .LVU833
ARM GAS  C:\Users\Daniel\AppData\Local\Temp\ccnluvCc.s 			page 69


 2739              	.LVL287:
 419:Drivers/STM32F0xx_HAL_Driver/Src/stm32f0xx_ll_usb.c ****             pmabuffer = ep->pmaaddr1;
 2740              		.loc 1 419 13 view .LVU834
 419:Drivers/STM32F0xx_HAL_Driver/Src/stm32f0xx_ll_usb.c ****             pmabuffer = ep->pmaaddr1;
 2741              		.loc 1 419 13 view .LVU835
 2742 0150 6278     		ldrb	r2, [r4, #1]
 2743 0152 002A     		cmp	r2, #0
 2744 0154 2CD1     		bne	.L113
 419:Drivers/STM32F0xx_HAL_Driver/Src/stm32f0xx_ll_usb.c ****             pmabuffer = ep->pmaaddr1;
 2745              		.loc 1 419 13 discriminator 1 view .LVU836
 2746              	.LBB79:
 419:Drivers/STM32F0xx_HAL_Driver/Src/stm32f0xx_ll_usb.c ****             pmabuffer = ep->pmaaddr1;
 2747              		.loc 1 419 13 discriminator 1 view .LVU837
 2748              	.LVL288:
 419:Drivers/STM32F0xx_HAL_Driver/Src/stm32f0xx_ll_usb.c ****             pmabuffer = ep->pmaaddr1;
 2749              		.loc 1 419 13 discriminator 1 view .LVU838
 419:Drivers/STM32F0xx_HAL_Driver/Src/stm32f0xx_ll_usb.c ****             pmabuffer = ep->pmaaddr1;
 2750              		.loc 1 419 13 discriminator 1 view .LVU839
 2751 0156 5032     		adds	r2, r2, #80
 2752 0158 AA5A     		ldrh	r2, [r5, r2]
 2753 015a AA18     		adds	r2, r5, r2
 2754              	.LVL289:
 419:Drivers/STM32F0xx_HAL_Driver/Src/stm32f0xx_ll_usb.c ****             pmabuffer = ep->pmaaddr1;
 2755              		.loc 1 419 13 discriminator 1 view .LVU840
 2756 015c DB00     		lsls	r3, r3, #3
 2757 015e 9B18     		adds	r3, r3, r2
 2758 0160 5E4A     		ldr	r2, .L220
 2759              	.LVL290:
 419:Drivers/STM32F0xx_HAL_Driver/Src/stm32f0xx_ll_usb.c ****             pmabuffer = ep->pmaaddr1;
 2760              		.loc 1 419 13 is_stmt 0 discriminator 1 view .LVU841
 2761 0162 9446     		mov	ip, r2
 2762 0164 6344     		add	r3, r3, ip
 2763              	.LVL291:
 419:Drivers/STM32F0xx_HAL_Driver/Src/stm32f0xx_ll_usb.c ****             pmabuffer = ep->pmaaddr1;
 2764              		.loc 1 419 13 is_stmt 1 discriminator 1 view .LVU842
 2765              	.LBB80:
 419:Drivers/STM32F0xx_HAL_Driver/Src/stm32f0xx_ll_usb.c ****             pmabuffer = ep->pmaaddr1;
 2766              		.loc 1 419 13 discriminator 1 view .LVU843
 419:Drivers/STM32F0xx_HAL_Driver/Src/stm32f0xx_ll_usb.c ****             pmabuffer = ep->pmaaddr1;
 2767              		.loc 1 419 13 discriminator 1 view .LVU844
 2768 0166 1A88     		ldrh	r2, [r3]
 2769 0168 9205     		lsls	r2, r2, #22
 2770 016a 920D     		lsrs	r2, r2, #22
 2771 016c 1A80     		strh	r2, [r3]
 419:Drivers/STM32F0xx_HAL_Driver/Src/stm32f0xx_ll_usb.c ****             pmabuffer = ep->pmaaddr1;
 2772              		.loc 1 419 13 discriminator 1 view .LVU845
 2773 016e 3E2E     		cmp	r6, #62
 2774 0170 0CD9     		bls	.L114
 419:Drivers/STM32F0xx_HAL_Driver/Src/stm32f0xx_ll_usb.c ****             pmabuffer = ep->pmaaddr1;
 2775              		.loc 1 419 13 discriminator 3 view .LVU846
 419:Drivers/STM32F0xx_HAL_Driver/Src/stm32f0xx_ll_usb.c ****             pmabuffer = ep->pmaaddr1;
 2776              		.loc 1 419 13 discriminator 3 view .LVU847
 2777 0172 7209     		lsrs	r2, r6, #5
 2778              	.LVL292:
 419:Drivers/STM32F0xx_HAL_Driver/Src/stm32f0xx_ll_usb.c ****             pmabuffer = ep->pmaaddr1;
 2779              		.loc 1 419 13 discriminator 3 view .LVU848
 2780 0174 F106     		lsls	r1, r6, #27
ARM GAS  C:\Users\Daniel\AppData\Local\Temp\ccnluvCc.s 			page 70


 2781 0176 00D1     		bne	.L115
 2782              	.LVL293:
 419:Drivers/STM32F0xx_HAL_Driver/Src/stm32f0xx_ll_usb.c ****             pmabuffer = ep->pmaaddr1;
 2783              		.loc 1 419 13 discriminator 5 view .LVU849
 2784 0178 013A     		subs	r2, r2, #1
 2785              	.LVL294:
 2786              	.L115:
 419:Drivers/STM32F0xx_HAL_Driver/Src/stm32f0xx_ll_usb.c ****             pmabuffer = ep->pmaaddr1;
 2787              		.loc 1 419 13 discriminator 7 view .LVU850
 2788 017a 1988     		ldrh	r1, [r3]
 2789 017c 9202     		lsls	r2, r2, #10
 2790              	.LVL295:
 419:Drivers/STM32F0xx_HAL_Driver/Src/stm32f0xx_ll_usb.c ****             pmabuffer = ep->pmaaddr1;
 2791              		.loc 1 419 13 is_stmt 0 discriminator 7 view .LVU851
 2792 017e 92B2     		uxth	r2, r2
 2793 0180 1143     		orrs	r1, r2
 2794 0182 574A     		ldr	r2, .L220+4
 2795 0184 0A43     		orrs	r2, r1
 2796 0186 92B2     		uxth	r2, r2
 2797 0188 1A80     		strh	r2, [r3]
 419:Drivers/STM32F0xx_HAL_Driver/Src/stm32f0xx_ll_usb.c ****             pmabuffer = ep->pmaaddr1;
 2798              		.loc 1 419 13 is_stmt 1 discriminator 7 view .LVU852
 2799 018a 13E0     		b	.L116
 2800              	.LVL296:
 2801              	.L114:
 419:Drivers/STM32F0xx_HAL_Driver/Src/stm32f0xx_ll_usb.c ****             pmabuffer = ep->pmaaddr1;
 2802              		.loc 1 419 13 discriminator 4 view .LVU853
 2803 018c 002E     		cmp	r6, #0
 2804 018e 05D1     		bne	.L117
 419:Drivers/STM32F0xx_HAL_Driver/Src/stm32f0xx_ll_usb.c ****             pmabuffer = ep->pmaaddr1;
 2805              		.loc 1 419 13 discriminator 9 view .LVU854
 2806 0190 1A88     		ldrh	r2, [r3]
 2807 0192 5349     		ldr	r1, .L220+4
 2808              	.LVL297:
 419:Drivers/STM32F0xx_HAL_Driver/Src/stm32f0xx_ll_usb.c ****             pmabuffer = ep->pmaaddr1;
 2809              		.loc 1 419 13 is_stmt 0 discriminator 9 view .LVU855
 2810 0194 0A43     		orrs	r2, r1
 2811 0196 92B2     		uxth	r2, r2
 2812 0198 1A80     		strh	r2, [r3]
 2813 019a 0BE0     		b	.L116
 2814              	.LVL298:
 2815              	.L117:
 419:Drivers/STM32F0xx_HAL_Driver/Src/stm32f0xx_ll_usb.c ****             pmabuffer = ep->pmaaddr1;
 2816              		.loc 1 419 13 is_stmt 1 discriminator 10 view .LVU856
 419:Drivers/STM32F0xx_HAL_Driver/Src/stm32f0xx_ll_usb.c ****             pmabuffer = ep->pmaaddr1;
 2817              		.loc 1 419 13 discriminator 10 view .LVU857
 2818 019c 7208     		lsrs	r2, r6, #1
 2819              	.LVL299:
 419:Drivers/STM32F0xx_HAL_Driver/Src/stm32f0xx_ll_usb.c ****             pmabuffer = ep->pmaaddr1;
 2820              		.loc 1 419 13 discriminator 10 view .LVU858
 2821 019e F107     		lsls	r1, r6, #31
 2822 01a0 00D5     		bpl	.L118
 2823              	.LVL300:
 419:Drivers/STM32F0xx_HAL_Driver/Src/stm32f0xx_ll_usb.c ****             pmabuffer = ep->pmaaddr1;
 2824              		.loc 1 419 13 discriminator 12 view .LVU859
 2825 01a2 0132     		adds	r2, r2, #1
 2826              	.LVL301:
ARM GAS  C:\Users\Daniel\AppData\Local\Temp\ccnluvCc.s 			page 71


 2827              	.L118:
 419:Drivers/STM32F0xx_HAL_Driver/Src/stm32f0xx_ll_usb.c ****             pmabuffer = ep->pmaaddr1;
 2828              		.loc 1 419 13 discriminator 14 view .LVU860
 2829 01a4 1988     		ldrh	r1, [r3]
 2830 01a6 9202     		lsls	r2, r2, #10
 2831              	.LVL302:
 419:Drivers/STM32F0xx_HAL_Driver/Src/stm32f0xx_ll_usb.c ****             pmabuffer = ep->pmaaddr1;
 2832              		.loc 1 419 13 is_stmt 0 discriminator 14 view .LVU861
 2833 01a8 92B2     		uxth	r2, r2
 2834 01aa 0A43     		orrs	r2, r1
 2835 01ac 1A80     		strh	r2, [r3]
 2836 01ae 01E0     		b	.L116
 2837              	.LVL303:
 2838              	.L113:
 419:Drivers/STM32F0xx_HAL_Driver/Src/stm32f0xx_ll_usb.c ****             pmabuffer = ep->pmaaddr1;
 2839              		.loc 1 419 13 discriminator 14 view .LVU862
 2840              	.LBE80:
 2841              	.LBE79:
 419:Drivers/STM32F0xx_HAL_Driver/Src/stm32f0xx_ll_usb.c ****             pmabuffer = ep->pmaaddr1;
 2842              		.loc 1 419 13 is_stmt 1 discriminator 2 view .LVU863
 2843 01b0 012A     		cmp	r2, #1
 2844 01b2 2DD0     		beq	.L214
 2845              	.LVL304:
 2846              	.L116:
 419:Drivers/STM32F0xx_HAL_Driver/Src/stm32f0xx_ll_usb.c ****             pmabuffer = ep->pmaaddr1;
 2847              		.loc 1 419 13 is_stmt 0 discriminator 2 view .LVU864
 2848              	.LBE78:
 419:Drivers/STM32F0xx_HAL_Driver/Src/stm32f0xx_ll_usb.c ****             pmabuffer = ep->pmaaddr1;
 2849              		.loc 1 419 13 is_stmt 1 discriminator 18 view .LVU865
 420:Drivers/STM32F0xx_HAL_Driver/Src/stm32f0xx_ll_usb.c **** 
 2850              		.loc 1 420 13 discriminator 18 view .LVU866
 420:Drivers/STM32F0xx_HAL_Driver/Src/stm32f0xx_ll_usb.c **** 
 2851              		.loc 1 420 23 is_stmt 0 discriminator 18 view .LVU867
 2852 01b4 6289     		ldrh	r2, [r4, #10]
 2853              	.LVL305:
 423:Drivers/STM32F0xx_HAL_Driver/Src/stm32f0xx_ll_usb.c ****             ep->xfer_buff += len;
 2854              		.loc 1 423 13 is_stmt 1 discriminator 18 view .LVU868
 2855 01b6 B3B2     		uxth	r3, r6
 2856 01b8 6169     		ldr	r1, [r4, #20]
 2857 01ba 2800     		movs	r0, r5
 2858              	.LVL306:
 423:Drivers/STM32F0xx_HAL_Driver/Src/stm32f0xx_ll_usb.c ****             ep->xfer_buff += len;
 2859              		.loc 1 423 13 is_stmt 0 discriminator 18 view .LVU869
 2860 01bc FFF7FEFF 		bl	USB_WritePMA
 2861              	.LVL307:
 424:Drivers/STM32F0xx_HAL_Driver/Src/stm32f0xx_ll_usb.c **** 
 2862              		.loc 1 424 13 is_stmt 1 discriminator 18 view .LVU870
 424:Drivers/STM32F0xx_HAL_Driver/Src/stm32f0xx_ll_usb.c **** 
 2863              		.loc 1 424 15 is_stmt 0 discriminator 18 view .LVU871
 2864 01c0 6369     		ldr	r3, [r4, #20]
 424:Drivers/STM32F0xx_HAL_Driver/Src/stm32f0xx_ll_usb.c **** 
 2865              		.loc 1 424 27 discriminator 18 view .LVU872
 2866 01c2 9B19     		adds	r3, r3, r6
 2867 01c4 6361     		str	r3, [r4, #20]
 426:Drivers/STM32F0xx_HAL_Driver/Src/stm32f0xx_ll_usb.c ****             {
 2868              		.loc 1 426 13 is_stmt 1 discriminator 18 view .LVU873
 426:Drivers/STM32F0xx_HAL_Driver/Src/stm32f0xx_ll_usb.c ****             {
ARM GAS  C:\Users\Daniel\AppData\Local\Temp\ccnluvCc.s 			page 72


 2869              		.loc 1 426 19 is_stmt 0 discriminator 18 view .LVU874
 2870 01c6 236A     		ldr	r3, [r4, #32]
 426:Drivers/STM32F0xx_HAL_Driver/Src/stm32f0xx_ll_usb.c ****             {
 2871              		.loc 1 426 37 discriminator 18 view .LVU875
 2872 01c8 2269     		ldr	r2, [r4, #16]
 426:Drivers/STM32F0xx_HAL_Driver/Src/stm32f0xx_ll_usb.c ****             {
 2873              		.loc 1 426 16 discriminator 18 view .LVU876
 2874 01ca 9342     		cmp	r3, r2
 2875 01cc 2BD9     		bls	.L119
 428:Drivers/STM32F0xx_HAL_Driver/Src/stm32f0xx_ll_usb.c ****             }
 2876              		.loc 1 428 15 is_stmt 1 view .LVU877
 428:Drivers/STM32F0xx_HAL_Driver/Src/stm32f0xx_ll_usb.c ****             }
 2877              		.loc 1 428 31 is_stmt 0 view .LVU878
 2878 01ce 9B1B     		subs	r3, r3, r6
 2879 01d0 2362     		str	r3, [r4, #32]
 2880              	.L120:
 437:Drivers/STM32F0xx_HAL_Driver/Src/stm32f0xx_ll_usb.c ****             pmabuffer = ep->pmaaddr0;
 2881              		.loc 1 437 13 is_stmt 1 view .LVU879
 437:Drivers/STM32F0xx_HAL_Driver/Src/stm32f0xx_ll_usb.c ****             pmabuffer = ep->pmaaddr0;
 2882              		.loc 1 437 13 view .LVU880
 2883 01d2 6378     		ldrb	r3, [r4, #1]
 2884 01d4 002B     		cmp	r3, #0
 2885 01d6 3CD1     		bne	.L121
 437:Drivers/STM32F0xx_HAL_Driver/Src/stm32f0xx_ll_usb.c ****             pmabuffer = ep->pmaaddr0;
 2886              		.loc 1 437 13 discriminator 1 view .LVU881
 2887              	.LBB81:
 437:Drivers/STM32F0xx_HAL_Driver/Src/stm32f0xx_ll_usb.c ****             pmabuffer = ep->pmaaddr0;
 2888              		.loc 1 437 13 discriminator 1 view .LVU882
 2889              	.LVL308:
 437:Drivers/STM32F0xx_HAL_Driver/Src/stm32f0xx_ll_usb.c ****             pmabuffer = ep->pmaaddr0;
 2890              		.loc 1 437 13 discriminator 1 view .LVU883
 437:Drivers/STM32F0xx_HAL_Driver/Src/stm32f0xx_ll_usb.c ****             pmabuffer = ep->pmaaddr0;
 2891              		.loc 1 437 13 discriminator 1 view .LVU884
 2892 01d8 5033     		adds	r3, r3, #80
 2893 01da EA5A     		ldrh	r2, [r5, r3]
 2894 01dc AA18     		adds	r2, r5, r2
 2895              	.LVL309:
 437:Drivers/STM32F0xx_HAL_Driver/Src/stm32f0xx_ll_usb.c ****             pmabuffer = ep->pmaaddr0;
 2896              		.loc 1 437 13 discriminator 1 view .LVU885
 2897 01de 2378     		ldrb	r3, [r4]
 2898 01e0 DB00     		lsls	r3, r3, #3
 2899 01e2 9B18     		adds	r3, r3, r2
 2900 01e4 414A     		ldr	r2, .L220+16
 2901              	.LVL310:
 437:Drivers/STM32F0xx_HAL_Driver/Src/stm32f0xx_ll_usb.c ****             pmabuffer = ep->pmaaddr0;
 2902              		.loc 1 437 13 is_stmt 0 discriminator 1 view .LVU886
 2903 01e6 9446     		mov	ip, r2
 2904 01e8 6344     		add	r3, r3, ip
 2905              	.LVL311:
 437:Drivers/STM32F0xx_HAL_Driver/Src/stm32f0xx_ll_usb.c ****             pmabuffer = ep->pmaaddr0;
 2906              		.loc 1 437 13 is_stmt 1 discriminator 1 view .LVU887
 2907              	.LBB82:
 437:Drivers/STM32F0xx_HAL_Driver/Src/stm32f0xx_ll_usb.c ****             pmabuffer = ep->pmaaddr0;
 2908              		.loc 1 437 13 discriminator 1 view .LVU888
 437:Drivers/STM32F0xx_HAL_Driver/Src/stm32f0xx_ll_usb.c ****             pmabuffer = ep->pmaaddr0;
 2909              		.loc 1 437 13 discriminator 1 view .LVU889
 2910 01ea 1A88     		ldrh	r2, [r3]
ARM GAS  C:\Users\Daniel\AppData\Local\Temp\ccnluvCc.s 			page 73


 2911 01ec 9205     		lsls	r2, r2, #22
 2912 01ee 920D     		lsrs	r2, r2, #22
 2913 01f0 1A80     		strh	r2, [r3]
 437:Drivers/STM32F0xx_HAL_Driver/Src/stm32f0xx_ll_usb.c ****             pmabuffer = ep->pmaaddr0;
 2914              		.loc 1 437 13 discriminator 1 view .LVU890
 2915 01f2 3E2E     		cmp	r6, #62
 2916 01f4 1BD9     		bls	.L122
 437:Drivers/STM32F0xx_HAL_Driver/Src/stm32f0xx_ll_usb.c ****             pmabuffer = ep->pmaaddr0;
 2917              		.loc 1 437 13 discriminator 3 view .LVU891
 437:Drivers/STM32F0xx_HAL_Driver/Src/stm32f0xx_ll_usb.c ****             pmabuffer = ep->pmaaddr0;
 2918              		.loc 1 437 13 discriminator 3 view .LVU892
 2919 01f6 7209     		lsrs	r2, r6, #5
 2920              	.LVL312:
 437:Drivers/STM32F0xx_HAL_Driver/Src/stm32f0xx_ll_usb.c ****             pmabuffer = ep->pmaaddr0;
 2921              		.loc 1 437 13 discriminator 3 view .LVU893
 2922 01f8 F106     		lsls	r1, r6, #27
 2923 01fa 00D1     		bne	.L123
 437:Drivers/STM32F0xx_HAL_Driver/Src/stm32f0xx_ll_usb.c ****             pmabuffer = ep->pmaaddr0;
 2924              		.loc 1 437 13 discriminator 5 view .LVU894
 2925 01fc 013A     		subs	r2, r2, #1
 2926              	.LVL313:
 2927              	.L123:
 437:Drivers/STM32F0xx_HAL_Driver/Src/stm32f0xx_ll_usb.c ****             pmabuffer = ep->pmaaddr0;
 2928              		.loc 1 437 13 discriminator 7 view .LVU895
 2929 01fe 1988     		ldrh	r1, [r3]
 2930 0200 9202     		lsls	r2, r2, #10
 2931              	.LVL314:
 437:Drivers/STM32F0xx_HAL_Driver/Src/stm32f0xx_ll_usb.c ****             pmabuffer = ep->pmaaddr0;
 2932              		.loc 1 437 13 is_stmt 0 discriminator 7 view .LVU896
 2933 0202 92B2     		uxth	r2, r2
 2934 0204 1143     		orrs	r1, r2
 2935 0206 364A     		ldr	r2, .L220+4
 2936 0208 0A43     		orrs	r2, r1
 2937 020a 92B2     		uxth	r2, r2
 2938 020c 1A80     		strh	r2, [r3]
 437:Drivers/STM32F0xx_HAL_Driver/Src/stm32f0xx_ll_usb.c ****             pmabuffer = ep->pmaaddr0;
 2939              		.loc 1 437 13 is_stmt 1 discriminator 7 view .LVU897
 2940 020e 22E0     		b	.L124
 2941              	.LVL315:
 2942              	.L214:
 437:Drivers/STM32F0xx_HAL_Driver/Src/stm32f0xx_ll_usb.c ****             pmabuffer = ep->pmaaddr0;
 2943              		.loc 1 437 13 is_stmt 0 discriminator 7 view .LVU898
 2944              	.LBE82:
 2945              	.LBE81:
 2946              	.LBB84:
 419:Drivers/STM32F0xx_HAL_Driver/Src/stm32f0xx_ll_usb.c ****             pmabuffer = ep->pmaaddr1;
 2947              		.loc 1 419 13 is_stmt 1 discriminator 16 view .LVU899
 2948 0210 4F32     		adds	r2, r2, #79
 2949 0212 AA5A     		ldrh	r2, [r5, r2]
 2950 0214 AA18     		adds	r2, r5, r2
 2951              	.LVL316:
 419:Drivers/STM32F0xx_HAL_Driver/Src/stm32f0xx_ll_usb.c ****             pmabuffer = ep->pmaaddr1;
 2952              		.loc 1 419 13 discriminator 16 view .LVU900
 2953 0216 DB00     		lsls	r3, r3, #3
 2954 0218 9B18     		adds	r3, r3, r2
 2955 021a 304A     		ldr	r2, .L220
 2956              	.LVL317:
ARM GAS  C:\Users\Daniel\AppData\Local\Temp\ccnluvCc.s 			page 74


 419:Drivers/STM32F0xx_HAL_Driver/Src/stm32f0xx_ll_usb.c ****             pmabuffer = ep->pmaaddr1;
 2957              		.loc 1 419 13 is_stmt 0 discriminator 16 view .LVU901
 2958 021c 9446     		mov	ip, r2
 2959 021e 6344     		add	r3, r3, ip
 2960              	.LVL318:
 419:Drivers/STM32F0xx_HAL_Driver/Src/stm32f0xx_ll_usb.c ****             pmabuffer = ep->pmaaddr1;
 2961              		.loc 1 419 13 is_stmt 1 discriminator 16 view .LVU902
 2962 0220 B2B2     		uxth	r2, r6
 2963 0222 1A80     		strh	r2, [r3]
 2964 0224 C6E7     		b	.L116
 2965              	.LVL319:
 2966              	.L119:
 419:Drivers/STM32F0xx_HAL_Driver/Src/stm32f0xx_ll_usb.c ****             pmabuffer = ep->pmaaddr1;
 2967              		.loc 1 419 13 is_stmt 0 discriminator 16 view .LVU903
 2968              	.LBE84:
 432:Drivers/STM32F0xx_HAL_Driver/Src/stm32f0xx_ll_usb.c ****               ep->xfer_len_db = 0U;
 2969              		.loc 1 432 15 is_stmt 1 view .LVU904
 433:Drivers/STM32F0xx_HAL_Driver/Src/stm32f0xx_ll_usb.c ****             }
 2970              		.loc 1 433 15 view .LVU905
 433:Drivers/STM32F0xx_HAL_Driver/Src/stm32f0xx_ll_usb.c ****             }
 2971              		.loc 1 433 31 is_stmt 0 view .LVU906
 2972 0226 0022     		movs	r2, #0
 2973 0228 2262     		str	r2, [r4, #32]
 432:Drivers/STM32F0xx_HAL_Driver/Src/stm32f0xx_ll_usb.c ****               ep->xfer_len_db = 0U;
 2974              		.loc 1 432 19 view .LVU907
 2975 022a 1E00     		movs	r6, r3
 2976 022c D1E7     		b	.L120
 2977              	.LVL320:
 2978              	.L122:
 2979              	.LBB85:
 2980              	.LBB83:
 437:Drivers/STM32F0xx_HAL_Driver/Src/stm32f0xx_ll_usb.c ****             pmabuffer = ep->pmaaddr0;
 2981              		.loc 1 437 13 is_stmt 1 discriminator 4 view .LVU908
 2982 022e 002E     		cmp	r6, #0
 2983 0230 05D1     		bne	.L125
 437:Drivers/STM32F0xx_HAL_Driver/Src/stm32f0xx_ll_usb.c ****             pmabuffer = ep->pmaaddr0;
 2984              		.loc 1 437 13 discriminator 9 view .LVU909
 2985 0232 1A88     		ldrh	r2, [r3]
 2986 0234 2A49     		ldr	r1, .L220+4
 2987 0236 0A43     		orrs	r2, r1
 2988 0238 92B2     		uxth	r2, r2
 2989 023a 1A80     		strh	r2, [r3]
 2990 023c 0BE0     		b	.L124
 2991              	.L125:
 437:Drivers/STM32F0xx_HAL_Driver/Src/stm32f0xx_ll_usb.c ****             pmabuffer = ep->pmaaddr0;
 2992              		.loc 1 437 13 discriminator 10 view .LVU910
 437:Drivers/STM32F0xx_HAL_Driver/Src/stm32f0xx_ll_usb.c ****             pmabuffer = ep->pmaaddr0;
 2993              		.loc 1 437 13 discriminator 10 view .LVU911
 2994 023e 7208     		lsrs	r2, r6, #1
 2995              	.LVL321:
 437:Drivers/STM32F0xx_HAL_Driver/Src/stm32f0xx_ll_usb.c ****             pmabuffer = ep->pmaaddr0;
 2996              		.loc 1 437 13 discriminator 10 view .LVU912
 2997 0240 F107     		lsls	r1, r6, #31
 2998 0242 00D5     		bpl	.L126
 437:Drivers/STM32F0xx_HAL_Driver/Src/stm32f0xx_ll_usb.c ****             pmabuffer = ep->pmaaddr0;
 2999              		.loc 1 437 13 discriminator 12 view .LVU913
 3000 0244 0132     		adds	r2, r2, #1
ARM GAS  C:\Users\Daniel\AppData\Local\Temp\ccnluvCc.s 			page 75


 3001              	.LVL322:
 3002              	.L126:
 437:Drivers/STM32F0xx_HAL_Driver/Src/stm32f0xx_ll_usb.c ****             pmabuffer = ep->pmaaddr0;
 3003              		.loc 1 437 13 discriminator 14 view .LVU914
 3004 0246 1988     		ldrh	r1, [r3]
 3005 0248 9202     		lsls	r2, r2, #10
 3006              	.LVL323:
 437:Drivers/STM32F0xx_HAL_Driver/Src/stm32f0xx_ll_usb.c ****             pmabuffer = ep->pmaaddr0;
 3007              		.loc 1 437 13 is_stmt 0 discriminator 14 view .LVU915
 3008 024a 92B2     		uxth	r2, r2
 3009 024c 0A43     		orrs	r2, r1
 3010 024e 1A80     		strh	r2, [r3]
 3011 0250 01E0     		b	.L124
 3012              	.LVL324:
 3013              	.L121:
 437:Drivers/STM32F0xx_HAL_Driver/Src/stm32f0xx_ll_usb.c ****             pmabuffer = ep->pmaaddr0;
 3014              		.loc 1 437 13 discriminator 14 view .LVU916
 3015              	.LBE83:
 3016              	.LBE85:
 437:Drivers/STM32F0xx_HAL_Driver/Src/stm32f0xx_ll_usb.c ****             pmabuffer = ep->pmaaddr0;
 3017              		.loc 1 437 13 is_stmt 1 discriminator 2 view .LVU917
 3018 0252 012B     		cmp	r3, #1
 3019 0254 06D0     		beq	.L215
 3020              	.L124:
 437:Drivers/STM32F0xx_HAL_Driver/Src/stm32f0xx_ll_usb.c ****             pmabuffer = ep->pmaaddr0;
 3021              		.loc 1 437 13 discriminator 18 view .LVU918
 437:Drivers/STM32F0xx_HAL_Driver/Src/stm32f0xx_ll_usb.c ****             pmabuffer = ep->pmaaddr0;
 3022              		.loc 1 437 13 discriminator 18 view .LVU919
 438:Drivers/STM32F0xx_HAL_Driver/Src/stm32f0xx_ll_usb.c **** 
 3023              		.loc 1 438 13 discriminator 18 view .LVU920
 438:Drivers/STM32F0xx_HAL_Driver/Src/stm32f0xx_ll_usb.c **** 
 3024              		.loc 1 438 23 is_stmt 0 discriminator 18 view .LVU921
 3025 0256 2289     		ldrh	r2, [r4, #8]
 3026              	.LVL325:
 441:Drivers/STM32F0xx_HAL_Driver/Src/stm32f0xx_ll_usb.c ****           }
 3027              		.loc 1 441 13 is_stmt 1 discriminator 18 view .LVU922
 3028 0258 B3B2     		uxth	r3, r6
 3029 025a 6169     		ldr	r1, [r4, #20]
 3030 025c 2800     		movs	r0, r5
 3031 025e FFF7FEFF 		bl	USB_WritePMA
 3032              	.LVL326:
 441:Drivers/STM32F0xx_HAL_Driver/Src/stm32f0xx_ll_usb.c ****           }
 3033              		.loc 1 441 13 is_stmt 0 discriminator 18 view .LVU923
 3034 0262 4EE7     		b	.L109
 3035              	.L215:
 437:Drivers/STM32F0xx_HAL_Driver/Src/stm32f0xx_ll_usb.c ****             pmabuffer = ep->pmaaddr0;
 3036              		.loc 1 437 13 is_stmt 1 discriminator 16 view .LVU924
 3037              	.LBB86:
 437:Drivers/STM32F0xx_HAL_Driver/Src/stm32f0xx_ll_usb.c ****             pmabuffer = ep->pmaaddr0;
 3038              		.loc 1 437 13 discriminator 16 view .LVU925
 3039              	.LVL327:
 437:Drivers/STM32F0xx_HAL_Driver/Src/stm32f0xx_ll_usb.c ****             pmabuffer = ep->pmaaddr0;
 3040              		.loc 1 437 13 discriminator 16 view .LVU926
 437:Drivers/STM32F0xx_HAL_Driver/Src/stm32f0xx_ll_usb.c ****             pmabuffer = ep->pmaaddr0;
 3041              		.loc 1 437 13 discriminator 16 view .LVU927
 3042 0264 4F33     		adds	r3, r3, #79
 3043 0266 EA5A     		ldrh	r2, [r5, r3]
ARM GAS  C:\Users\Daniel\AppData\Local\Temp\ccnluvCc.s 			page 76


 3044 0268 AA18     		adds	r2, r5, r2
 3045              	.LVL328:
 437:Drivers/STM32F0xx_HAL_Driver/Src/stm32f0xx_ll_usb.c ****             pmabuffer = ep->pmaaddr0;
 3046              		.loc 1 437 13 discriminator 16 view .LVU928
 3047 026a 2378     		ldrb	r3, [r4]
 3048 026c DB00     		lsls	r3, r3, #3
 3049 026e 9B18     		adds	r3, r3, r2
 3050 0270 1E4A     		ldr	r2, .L220+16
 3051              	.LVL329:
 437:Drivers/STM32F0xx_HAL_Driver/Src/stm32f0xx_ll_usb.c ****             pmabuffer = ep->pmaaddr0;
 3052              		.loc 1 437 13 is_stmt 0 discriminator 16 view .LVU929
 3053 0272 9446     		mov	ip, r2
 3054 0274 6344     		add	r3, r3, ip
 3055              	.LVL330:
 437:Drivers/STM32F0xx_HAL_Driver/Src/stm32f0xx_ll_usb.c ****             pmabuffer = ep->pmaaddr0;
 3056              		.loc 1 437 13 is_stmt 1 discriminator 16 view .LVU930
 3057 0276 B2B2     		uxth	r2, r6
 3058 0278 1A80     		strh	r2, [r3]
 3059 027a ECE7     		b	.L124
 3060              	.LVL331:
 3061              	.L112:
 437:Drivers/STM32F0xx_HAL_Driver/Src/stm32f0xx_ll_usb.c ****             pmabuffer = ep->pmaaddr0;
 3062              		.loc 1 437 13 is_stmt 0 discriminator 16 view .LVU931
 3063              	.LBE86:
 446:Drivers/STM32F0xx_HAL_Driver/Src/stm32f0xx_ll_usb.c ****             pmabuffer = ep->pmaaddr0;
 3064              		.loc 1 446 13 is_stmt 1 view .LVU932
 446:Drivers/STM32F0xx_HAL_Driver/Src/stm32f0xx_ll_usb.c ****             pmabuffer = ep->pmaaddr0;
 3065              		.loc 1 446 13 view .LVU933
 3066 027c 6278     		ldrb	r2, [r4, #1]
 3067 027e 002A     		cmp	r2, #0
 3068 0280 3CD1     		bne	.L127
 446:Drivers/STM32F0xx_HAL_Driver/Src/stm32f0xx_ll_usb.c ****             pmabuffer = ep->pmaaddr0;
 3069              		.loc 1 446 13 discriminator 1 view .LVU934
 3070              	.LBB87:
 446:Drivers/STM32F0xx_HAL_Driver/Src/stm32f0xx_ll_usb.c ****             pmabuffer = ep->pmaaddr0;
 3071              		.loc 1 446 13 discriminator 1 view .LVU935
 3072              	.LVL332:
 446:Drivers/STM32F0xx_HAL_Driver/Src/stm32f0xx_ll_usb.c ****             pmabuffer = ep->pmaaddr0;
 3073              		.loc 1 446 13 discriminator 1 view .LVU936
 446:Drivers/STM32F0xx_HAL_Driver/Src/stm32f0xx_ll_usb.c ****             pmabuffer = ep->pmaaddr0;
 3074              		.loc 1 446 13 discriminator 1 view .LVU937
 3075 0282 5032     		adds	r2, r2, #80
 3076 0284 A95A     		ldrh	r1, [r5, r2]
 3077              	.LVL333:
 446:Drivers/STM32F0xx_HAL_Driver/Src/stm32f0xx_ll_usb.c ****             pmabuffer = ep->pmaaddr0;
 3078              		.loc 1 446 13 is_stmt 0 discriminator 1 view .LVU938
 3079 0286 6918     		adds	r1, r5, r1
 3080              	.LVL334:
 446:Drivers/STM32F0xx_HAL_Driver/Src/stm32f0xx_ll_usb.c ****             pmabuffer = ep->pmaaddr0;
 3081              		.loc 1 446 13 is_stmt 1 discriminator 1 view .LVU939
 3082 0288 DA00     		lsls	r2, r3, #3
 3083 028a 5218     		adds	r2, r2, r1
 3084 028c 174B     		ldr	r3, .L220+16
 3085 028e 9C46     		mov	ip, r3
 3086 0290 6244     		add	r2, r2, ip
 3087              	.LVL335:
 446:Drivers/STM32F0xx_HAL_Driver/Src/stm32f0xx_ll_usb.c ****             pmabuffer = ep->pmaaddr0;
ARM GAS  C:\Users\Daniel\AppData\Local\Temp\ccnluvCc.s 			page 77


 3088              		.loc 1 446 13 discriminator 1 view .LVU940
 3089              	.LBB88:
 446:Drivers/STM32F0xx_HAL_Driver/Src/stm32f0xx_ll_usb.c ****             pmabuffer = ep->pmaaddr0;
 3090              		.loc 1 446 13 discriminator 1 view .LVU941
 446:Drivers/STM32F0xx_HAL_Driver/Src/stm32f0xx_ll_usb.c ****             pmabuffer = ep->pmaaddr0;
 3091              		.loc 1 446 13 discriminator 1 view .LVU942
 3092 0292 1388     		ldrh	r3, [r2]
 3093 0294 9B05     		lsls	r3, r3, #22
 3094 0296 9B0D     		lsrs	r3, r3, #22
 3095 0298 1380     		strh	r3, [r2]
 446:Drivers/STM32F0xx_HAL_Driver/Src/stm32f0xx_ll_usb.c ****             pmabuffer = ep->pmaaddr0;
 3096              		.loc 1 446 13 discriminator 1 view .LVU943
 3097 029a 3E2E     		cmp	r6, #62
 3098 029c 0CD9     		bls	.L128
 446:Drivers/STM32F0xx_HAL_Driver/Src/stm32f0xx_ll_usb.c ****             pmabuffer = ep->pmaaddr0;
 3099              		.loc 1 446 13 discriminator 3 view .LVU944
 446:Drivers/STM32F0xx_HAL_Driver/Src/stm32f0xx_ll_usb.c ****             pmabuffer = ep->pmaaddr0;
 3100              		.loc 1 446 13 discriminator 3 view .LVU945
 3101 029e 7309     		lsrs	r3, r6, #5
 3102              	.LVL336:
 446:Drivers/STM32F0xx_HAL_Driver/Src/stm32f0xx_ll_usb.c ****             pmabuffer = ep->pmaaddr0;
 3103              		.loc 1 446 13 discriminator 3 view .LVU946
 3104 02a0 F106     		lsls	r1, r6, #27
 3105 02a2 00D1     		bne	.L129
 3106              	.LVL337:
 446:Drivers/STM32F0xx_HAL_Driver/Src/stm32f0xx_ll_usb.c ****             pmabuffer = ep->pmaaddr0;
 3107              		.loc 1 446 13 discriminator 5 view .LVU947
 3108 02a4 013B     		subs	r3, r3, #1
 3109              	.LVL338:
 3110              	.L129:
 446:Drivers/STM32F0xx_HAL_Driver/Src/stm32f0xx_ll_usb.c ****             pmabuffer = ep->pmaaddr0;
 3111              		.loc 1 446 13 discriminator 7 view .LVU948
 3112 02a6 1188     		ldrh	r1, [r2]
 3113 02a8 9B02     		lsls	r3, r3, #10
 3114              	.LVL339:
 446:Drivers/STM32F0xx_HAL_Driver/Src/stm32f0xx_ll_usb.c ****             pmabuffer = ep->pmaaddr0;
 3115              		.loc 1 446 13 is_stmt 0 discriminator 7 view .LVU949
 3116 02aa 9BB2     		uxth	r3, r3
 3117 02ac 1943     		orrs	r1, r3
 3118 02ae 0C4B     		ldr	r3, .L220+4
 3119 02b0 0B43     		orrs	r3, r1
 3120 02b2 9BB2     		uxth	r3, r3
 3121 02b4 1380     		strh	r3, [r2]
 446:Drivers/STM32F0xx_HAL_Driver/Src/stm32f0xx_ll_usb.c ****             pmabuffer = ep->pmaaddr0;
 3122              		.loc 1 446 13 is_stmt 1 discriminator 7 view .LVU950
 3123 02b6 23E0     		b	.L130
 3124              	.LVL340:
 3125              	.L128:
 446:Drivers/STM32F0xx_HAL_Driver/Src/stm32f0xx_ll_usb.c ****             pmabuffer = ep->pmaaddr0;
 3126              		.loc 1 446 13 discriminator 4 view .LVU951
 3127 02b8 002E     		cmp	r6, #0
 3128 02ba 05D1     		bne	.L131
 446:Drivers/STM32F0xx_HAL_Driver/Src/stm32f0xx_ll_usb.c ****             pmabuffer = ep->pmaaddr0;
 3129              		.loc 1 446 13 discriminator 9 view .LVU952
 3130 02bc 1388     		ldrh	r3, [r2]
 3131 02be 0849     		ldr	r1, .L220+4
 3132              	.LVL341:
ARM GAS  C:\Users\Daniel\AppData\Local\Temp\ccnluvCc.s 			page 78


 446:Drivers/STM32F0xx_HAL_Driver/Src/stm32f0xx_ll_usb.c ****             pmabuffer = ep->pmaaddr0;
 3133              		.loc 1 446 13 is_stmt 0 discriminator 9 view .LVU953
 3134 02c0 0B43     		orrs	r3, r1
 3135 02c2 9BB2     		uxth	r3, r3
 3136 02c4 1380     		strh	r3, [r2]
 3137 02c6 1BE0     		b	.L130
 3138              	.LVL342:
 3139              	.L131:
 446:Drivers/STM32F0xx_HAL_Driver/Src/stm32f0xx_ll_usb.c ****             pmabuffer = ep->pmaaddr0;
 3140              		.loc 1 446 13 is_stmt 1 discriminator 10 view .LVU954
 446:Drivers/STM32F0xx_HAL_Driver/Src/stm32f0xx_ll_usb.c ****             pmabuffer = ep->pmaaddr0;
 3141              		.loc 1 446 13 discriminator 10 view .LVU955
 3142 02c8 7308     		lsrs	r3, r6, #1
 3143              	.LVL343:
 446:Drivers/STM32F0xx_HAL_Driver/Src/stm32f0xx_ll_usb.c ****             pmabuffer = ep->pmaaddr0;
 3144              		.loc 1 446 13 discriminator 10 view .LVU956
 3145 02ca F107     		lsls	r1, r6, #31
 3146 02cc 00D5     		bpl	.L132
 3147              	.LVL344:
 446:Drivers/STM32F0xx_HAL_Driver/Src/stm32f0xx_ll_usb.c ****             pmabuffer = ep->pmaaddr0;
 3148              		.loc 1 446 13 discriminator 12 view .LVU957
 3149 02ce 0133     		adds	r3, r3, #1
 3150              	.LVL345:
 3151              	.L132:
 446:Drivers/STM32F0xx_HAL_Driver/Src/stm32f0xx_ll_usb.c ****             pmabuffer = ep->pmaaddr0;
 3152              		.loc 1 446 13 discriminator 14 view .LVU958
 3153 02d0 1188     		ldrh	r1, [r2]
 3154 02d2 9B02     		lsls	r3, r3, #10
 3155              	.LVL346:
 446:Drivers/STM32F0xx_HAL_Driver/Src/stm32f0xx_ll_usb.c ****             pmabuffer = ep->pmaaddr0;
 3156              		.loc 1 446 13 is_stmt 0 discriminator 14 view .LVU959
 3157 02d4 9BB2     		uxth	r3, r3
 3158 02d6 0B43     		orrs	r3, r1
 3159 02d8 1380     		strh	r3, [r2]
 3160 02da 11E0     		b	.L130
 3161              	.L221:
 3162              		.align	2
 3163              	.L220:
 3164 02dc 06040000 		.word	1030
 3165 02e0 0080FFFF 		.word	-32768
 3166 02e4 8FBFFFFF 		.word	-16497
 3167 02e8 8080FFFF 		.word	-32640
 3168 02ec 02040000 		.word	1026
 3169 02f0 BF8FFFFF 		.word	-28737
 3170 02f4 8F8FFFFF 		.word	-28785
 3171 02f8 8081FFFF 		.word	-32384
 3172              	.LVL347:
 3173              	.L127:
 446:Drivers/STM32F0xx_HAL_Driver/Src/stm32f0xx_ll_usb.c ****             pmabuffer = ep->pmaaddr0;
 3174              		.loc 1 446 13 discriminator 14 view .LVU960
 3175              	.LBE88:
 3176              	.LBE87:
 446:Drivers/STM32F0xx_HAL_Driver/Src/stm32f0xx_ll_usb.c ****             pmabuffer = ep->pmaaddr0;
 3177              		.loc 1 446 13 is_stmt 1 discriminator 2 view .LVU961
 3178 02fc 012A     		cmp	r2, #1
 3179 02fe 2DD0     		beq	.L216
 3180              	.LVL348:
ARM GAS  C:\Users\Daniel\AppData\Local\Temp\ccnluvCc.s 			page 79


 3181              	.L130:
 446:Drivers/STM32F0xx_HAL_Driver/Src/stm32f0xx_ll_usb.c ****             pmabuffer = ep->pmaaddr0;
 3182              		.loc 1 446 13 discriminator 18 view .LVU962
 446:Drivers/STM32F0xx_HAL_Driver/Src/stm32f0xx_ll_usb.c ****             pmabuffer = ep->pmaaddr0;
 3183              		.loc 1 446 13 discriminator 18 view .LVU963
 447:Drivers/STM32F0xx_HAL_Driver/Src/stm32f0xx_ll_usb.c **** 
 3184              		.loc 1 447 13 discriminator 18 view .LVU964
 447:Drivers/STM32F0xx_HAL_Driver/Src/stm32f0xx_ll_usb.c **** 
 3185              		.loc 1 447 23 is_stmt 0 discriminator 18 view .LVU965
 3186 0300 2289     		ldrh	r2, [r4, #8]
 3187              	.LVL349:
 450:Drivers/STM32F0xx_HAL_Driver/Src/stm32f0xx_ll_usb.c ****             ep->xfer_buff += len;
 3188              		.loc 1 450 13 is_stmt 1 discriminator 18 view .LVU966
 3189 0302 B3B2     		uxth	r3, r6
 3190 0304 6169     		ldr	r1, [r4, #20]
 3191 0306 2800     		movs	r0, r5
 3192              	.LVL350:
 450:Drivers/STM32F0xx_HAL_Driver/Src/stm32f0xx_ll_usb.c ****             ep->xfer_buff += len;
 3193              		.loc 1 450 13 is_stmt 0 discriminator 18 view .LVU967
 3194 0308 FFF7FEFF 		bl	USB_WritePMA
 3195              	.LVL351:
 451:Drivers/STM32F0xx_HAL_Driver/Src/stm32f0xx_ll_usb.c **** 
 3196              		.loc 1 451 13 is_stmt 1 discriminator 18 view .LVU968
 451:Drivers/STM32F0xx_HAL_Driver/Src/stm32f0xx_ll_usb.c **** 
 3197              		.loc 1 451 15 is_stmt 0 discriminator 18 view .LVU969
 3198 030c 6369     		ldr	r3, [r4, #20]
 451:Drivers/STM32F0xx_HAL_Driver/Src/stm32f0xx_ll_usb.c **** 
 3199              		.loc 1 451 27 discriminator 18 view .LVU970
 3200 030e 9B19     		adds	r3, r3, r6
 3201 0310 6361     		str	r3, [r4, #20]
 453:Drivers/STM32F0xx_HAL_Driver/Src/stm32f0xx_ll_usb.c ****             {
 3202              		.loc 1 453 13 is_stmt 1 discriminator 18 view .LVU971
 453:Drivers/STM32F0xx_HAL_Driver/Src/stm32f0xx_ll_usb.c ****             {
 3203              		.loc 1 453 19 is_stmt 0 discriminator 18 view .LVU972
 3204 0312 236A     		ldr	r3, [r4, #32]
 453:Drivers/STM32F0xx_HAL_Driver/Src/stm32f0xx_ll_usb.c ****             {
 3205              		.loc 1 453 37 discriminator 18 view .LVU973
 3206 0314 2269     		ldr	r2, [r4, #16]
 453:Drivers/STM32F0xx_HAL_Driver/Src/stm32f0xx_ll_usb.c ****             {
 3207              		.loc 1 453 16 discriminator 18 view .LVU974
 3208 0316 9342     		cmp	r3, r2
 3209 0318 2BD9     		bls	.L133
 455:Drivers/STM32F0xx_HAL_Driver/Src/stm32f0xx_ll_usb.c ****             }
 3210              		.loc 1 455 15 is_stmt 1 view .LVU975
 455:Drivers/STM32F0xx_HAL_Driver/Src/stm32f0xx_ll_usb.c ****             }
 3211              		.loc 1 455 31 is_stmt 0 view .LVU976
 3212 031a 9B1B     		subs	r3, r3, r6
 3213 031c 2362     		str	r3, [r4, #32]
 3214              	.L134:
 464:Drivers/STM32F0xx_HAL_Driver/Src/stm32f0xx_ll_usb.c ****             pmabuffer = ep->pmaaddr1;
 3215              		.loc 1 464 13 is_stmt 1 view .LVU977
 3216              	.LBB89:
 464:Drivers/STM32F0xx_HAL_Driver/Src/stm32f0xx_ll_usb.c ****             pmabuffer = ep->pmaaddr1;
 3217              		.loc 1 464 13 view .LVU978
 3218              	.LVL352:
 464:Drivers/STM32F0xx_HAL_Driver/Src/stm32f0xx_ll_usb.c ****             pmabuffer = ep->pmaaddr1;
 3219              		.loc 1 464 13 view .LVU979
ARM GAS  C:\Users\Daniel\AppData\Local\Temp\ccnluvCc.s 			page 80


 464:Drivers/STM32F0xx_HAL_Driver/Src/stm32f0xx_ll_usb.c ****             pmabuffer = ep->pmaaddr1;
 3220              		.loc 1 464 13 view .LVU980
 3221 031e 6378     		ldrb	r3, [r4, #1]
 3222 0320 002B     		cmp	r3, #0
 3223 0322 3CD1     		bne	.L135
 464:Drivers/STM32F0xx_HAL_Driver/Src/stm32f0xx_ll_usb.c ****             pmabuffer = ep->pmaaddr1;
 3224              		.loc 1 464 13 discriminator 1 view .LVU981
 3225              	.LBB90:
 464:Drivers/STM32F0xx_HAL_Driver/Src/stm32f0xx_ll_usb.c ****             pmabuffer = ep->pmaaddr1;
 3226              		.loc 1 464 13 discriminator 1 view .LVU982
 3227              	.LVL353:
 464:Drivers/STM32F0xx_HAL_Driver/Src/stm32f0xx_ll_usb.c ****             pmabuffer = ep->pmaaddr1;
 3228              		.loc 1 464 13 discriminator 1 view .LVU983
 464:Drivers/STM32F0xx_HAL_Driver/Src/stm32f0xx_ll_usb.c ****             pmabuffer = ep->pmaaddr1;
 3229              		.loc 1 464 13 discriminator 1 view .LVU984
 3230 0324 5033     		adds	r3, r3, #80
 3231 0326 EA5A     		ldrh	r2, [r5, r3]
 3232 0328 AA18     		adds	r2, r5, r2
 3233              	.LVL354:
 464:Drivers/STM32F0xx_HAL_Driver/Src/stm32f0xx_ll_usb.c ****             pmabuffer = ep->pmaaddr1;
 3234              		.loc 1 464 13 discriminator 1 view .LVU985
 3235 032a 2378     		ldrb	r3, [r4]
 3236 032c DB00     		lsls	r3, r3, #3
 3237 032e 9B18     		adds	r3, r3, r2
 3238 0330 C04A     		ldr	r2, .L222
 3239              	.LVL355:
 464:Drivers/STM32F0xx_HAL_Driver/Src/stm32f0xx_ll_usb.c ****             pmabuffer = ep->pmaaddr1;
 3240              		.loc 1 464 13 is_stmt 0 discriminator 1 view .LVU986
 3241 0332 9446     		mov	ip, r2
 3242 0334 6344     		add	r3, r3, ip
 3243              	.LVL356:
 464:Drivers/STM32F0xx_HAL_Driver/Src/stm32f0xx_ll_usb.c ****             pmabuffer = ep->pmaaddr1;
 3244              		.loc 1 464 13 is_stmt 1 discriminator 1 view .LVU987
 3245              	.LBB91:
 464:Drivers/STM32F0xx_HAL_Driver/Src/stm32f0xx_ll_usb.c ****             pmabuffer = ep->pmaaddr1;
 3246              		.loc 1 464 13 discriminator 1 view .LVU988
 464:Drivers/STM32F0xx_HAL_Driver/Src/stm32f0xx_ll_usb.c ****             pmabuffer = ep->pmaaddr1;
 3247              		.loc 1 464 13 discriminator 1 view .LVU989
 3248 0336 1A88     		ldrh	r2, [r3]
 3249 0338 9205     		lsls	r2, r2, #22
 3250 033a 920D     		lsrs	r2, r2, #22
 3251 033c 1A80     		strh	r2, [r3]
 464:Drivers/STM32F0xx_HAL_Driver/Src/stm32f0xx_ll_usb.c ****             pmabuffer = ep->pmaaddr1;
 3252              		.loc 1 464 13 discriminator 1 view .LVU990
 3253 033e 3E2E     		cmp	r6, #62
 3254 0340 1BD9     		bls	.L136
 464:Drivers/STM32F0xx_HAL_Driver/Src/stm32f0xx_ll_usb.c ****             pmabuffer = ep->pmaaddr1;
 3255              		.loc 1 464 13 discriminator 3 view .LVU991
 464:Drivers/STM32F0xx_HAL_Driver/Src/stm32f0xx_ll_usb.c ****             pmabuffer = ep->pmaaddr1;
 3256              		.loc 1 464 13 discriminator 3 view .LVU992
 3257 0342 7209     		lsrs	r2, r6, #5
 3258              	.LVL357:
 464:Drivers/STM32F0xx_HAL_Driver/Src/stm32f0xx_ll_usb.c ****             pmabuffer = ep->pmaaddr1;
 3259              		.loc 1 464 13 discriminator 3 view .LVU993
 3260 0344 F106     		lsls	r1, r6, #27
 3261 0346 00D1     		bne	.L137
 464:Drivers/STM32F0xx_HAL_Driver/Src/stm32f0xx_ll_usb.c ****             pmabuffer = ep->pmaaddr1;
ARM GAS  C:\Users\Daniel\AppData\Local\Temp\ccnluvCc.s 			page 81


 3262              		.loc 1 464 13 discriminator 5 view .LVU994
 3263 0348 013A     		subs	r2, r2, #1
 3264              	.LVL358:
 3265              	.L137:
 464:Drivers/STM32F0xx_HAL_Driver/Src/stm32f0xx_ll_usb.c ****             pmabuffer = ep->pmaaddr1;
 3266              		.loc 1 464 13 discriminator 7 view .LVU995
 3267 034a 1988     		ldrh	r1, [r3]
 3268 034c 9202     		lsls	r2, r2, #10
 3269              	.LVL359:
 464:Drivers/STM32F0xx_HAL_Driver/Src/stm32f0xx_ll_usb.c ****             pmabuffer = ep->pmaaddr1;
 3270              		.loc 1 464 13 is_stmt 0 discriminator 7 view .LVU996
 3271 034e 92B2     		uxth	r2, r2
 3272 0350 1143     		orrs	r1, r2
 3273 0352 B94A     		ldr	r2, .L222+4
 3274 0354 0A43     		orrs	r2, r1
 3275 0356 92B2     		uxth	r2, r2
 3276 0358 1A80     		strh	r2, [r3]
 464:Drivers/STM32F0xx_HAL_Driver/Src/stm32f0xx_ll_usb.c ****             pmabuffer = ep->pmaaddr1;
 3277              		.loc 1 464 13 is_stmt 1 discriminator 7 view .LVU997
 3278 035a 22E0     		b	.L138
 3279              	.LVL360:
 3280              	.L216:
 464:Drivers/STM32F0xx_HAL_Driver/Src/stm32f0xx_ll_usb.c ****             pmabuffer = ep->pmaaddr1;
 3281              		.loc 1 464 13 is_stmt 0 discriminator 7 view .LVU998
 3282              	.LBE91:
 3283              	.LBE90:
 3284              	.LBE89:
 446:Drivers/STM32F0xx_HAL_Driver/Src/stm32f0xx_ll_usb.c ****             pmabuffer = ep->pmaaddr0;
 3285              		.loc 1 446 13 is_stmt 1 discriminator 16 view .LVU999
 3286              	.LBB94:
 446:Drivers/STM32F0xx_HAL_Driver/Src/stm32f0xx_ll_usb.c ****             pmabuffer = ep->pmaaddr0;
 3287              		.loc 1 446 13 discriminator 16 view .LVU1000
 446:Drivers/STM32F0xx_HAL_Driver/Src/stm32f0xx_ll_usb.c ****             pmabuffer = ep->pmaaddr0;
 3288              		.loc 1 446 13 discriminator 16 view .LVU1001
 446:Drivers/STM32F0xx_HAL_Driver/Src/stm32f0xx_ll_usb.c ****             pmabuffer = ep->pmaaddr0;
 3289              		.loc 1 446 13 discriminator 16 view .LVU1002
 3290 035c 4F32     		adds	r2, r2, #79
 3291 035e AA5A     		ldrh	r2, [r5, r2]
 3292 0360 AA18     		adds	r2, r5, r2
 3293              	.LVL361:
 446:Drivers/STM32F0xx_HAL_Driver/Src/stm32f0xx_ll_usb.c ****             pmabuffer = ep->pmaaddr0;
 3294              		.loc 1 446 13 discriminator 16 view .LVU1003
 3295 0362 DB00     		lsls	r3, r3, #3
 3296 0364 9B18     		adds	r3, r3, r2
 3297 0366 B54A     		ldr	r2, .L222+8
 3298              	.LVL362:
 446:Drivers/STM32F0xx_HAL_Driver/Src/stm32f0xx_ll_usb.c ****             pmabuffer = ep->pmaaddr0;
 3299              		.loc 1 446 13 is_stmt 0 discriminator 16 view .LVU1004
 3300 0368 9446     		mov	ip, r2
 3301 036a 6344     		add	r3, r3, ip
 3302              	.LVL363:
 446:Drivers/STM32F0xx_HAL_Driver/Src/stm32f0xx_ll_usb.c ****             pmabuffer = ep->pmaaddr0;
 3303              		.loc 1 446 13 is_stmt 1 discriminator 16 view .LVU1005
 3304 036c B2B2     		uxth	r2, r6
 3305 036e 1A80     		strh	r2, [r3]
 3306 0370 C6E7     		b	.L130
 3307              	.LVL364:
ARM GAS  C:\Users\Daniel\AppData\Local\Temp\ccnluvCc.s 			page 82


 3308              	.L133:
 446:Drivers/STM32F0xx_HAL_Driver/Src/stm32f0xx_ll_usb.c ****             pmabuffer = ep->pmaaddr0;
 3309              		.loc 1 446 13 is_stmt 0 discriminator 16 view .LVU1006
 3310              	.LBE94:
 459:Drivers/STM32F0xx_HAL_Driver/Src/stm32f0xx_ll_usb.c ****               ep->xfer_len_db = 0U;
 3311              		.loc 1 459 15 is_stmt 1 view .LVU1007
 460:Drivers/STM32F0xx_HAL_Driver/Src/stm32f0xx_ll_usb.c ****             }
 3312              		.loc 1 460 15 view .LVU1008
 460:Drivers/STM32F0xx_HAL_Driver/Src/stm32f0xx_ll_usb.c ****             }
 3313              		.loc 1 460 31 is_stmt 0 view .LVU1009
 3314 0372 0022     		movs	r2, #0
 3315 0374 2262     		str	r2, [r4, #32]
 459:Drivers/STM32F0xx_HAL_Driver/Src/stm32f0xx_ll_usb.c ****               ep->xfer_len_db = 0U;
 3316              		.loc 1 459 19 view .LVU1010
 3317 0376 1E00     		movs	r6, r3
 3318 0378 D1E7     		b	.L134
 3319              	.LVL365:
 3320              	.L136:
 3321              	.LBB95:
 3322              	.LBB93:
 3323              	.LBB92:
 464:Drivers/STM32F0xx_HAL_Driver/Src/stm32f0xx_ll_usb.c ****             pmabuffer = ep->pmaaddr1;
 3324              		.loc 1 464 13 is_stmt 1 discriminator 4 view .LVU1011
 3325 037a 002E     		cmp	r6, #0
 3326 037c 05D1     		bne	.L139
 464:Drivers/STM32F0xx_HAL_Driver/Src/stm32f0xx_ll_usb.c ****             pmabuffer = ep->pmaaddr1;
 3327              		.loc 1 464 13 discriminator 9 view .LVU1012
 3328 037e 1A88     		ldrh	r2, [r3]
 3329 0380 AD49     		ldr	r1, .L222+4
 3330 0382 0A43     		orrs	r2, r1
 3331 0384 92B2     		uxth	r2, r2
 3332 0386 1A80     		strh	r2, [r3]
 3333 0388 0BE0     		b	.L138
 3334              	.L139:
 464:Drivers/STM32F0xx_HAL_Driver/Src/stm32f0xx_ll_usb.c ****             pmabuffer = ep->pmaaddr1;
 3335              		.loc 1 464 13 discriminator 10 view .LVU1013
 464:Drivers/STM32F0xx_HAL_Driver/Src/stm32f0xx_ll_usb.c ****             pmabuffer = ep->pmaaddr1;
 3336              		.loc 1 464 13 discriminator 10 view .LVU1014
 3337 038a 7208     		lsrs	r2, r6, #1
 3338              	.LVL366:
 464:Drivers/STM32F0xx_HAL_Driver/Src/stm32f0xx_ll_usb.c ****             pmabuffer = ep->pmaaddr1;
 3339              		.loc 1 464 13 discriminator 10 view .LVU1015
 3340 038c F107     		lsls	r1, r6, #31
 3341 038e 00D5     		bpl	.L140
 464:Drivers/STM32F0xx_HAL_Driver/Src/stm32f0xx_ll_usb.c ****             pmabuffer = ep->pmaaddr1;
 3342              		.loc 1 464 13 discriminator 12 view .LVU1016
 3343 0390 0132     		adds	r2, r2, #1
 3344              	.LVL367:
 3345              	.L140:
 464:Drivers/STM32F0xx_HAL_Driver/Src/stm32f0xx_ll_usb.c ****             pmabuffer = ep->pmaaddr1;
 3346              		.loc 1 464 13 discriminator 14 view .LVU1017
 3347 0392 1988     		ldrh	r1, [r3]
 3348 0394 9202     		lsls	r2, r2, #10
 3349              	.LVL368:
 464:Drivers/STM32F0xx_HAL_Driver/Src/stm32f0xx_ll_usb.c ****             pmabuffer = ep->pmaaddr1;
 3350              		.loc 1 464 13 is_stmt 0 discriminator 14 view .LVU1018
 3351 0396 92B2     		uxth	r2, r2
ARM GAS  C:\Users\Daniel\AppData\Local\Temp\ccnluvCc.s 			page 83


 3352 0398 0A43     		orrs	r2, r1
 3353 039a 1A80     		strh	r2, [r3]
 3354 039c 01E0     		b	.L138
 3355              	.LVL369:
 3356              	.L135:
 464:Drivers/STM32F0xx_HAL_Driver/Src/stm32f0xx_ll_usb.c ****             pmabuffer = ep->pmaaddr1;
 3357              		.loc 1 464 13 discriminator 14 view .LVU1019
 3358              	.LBE92:
 3359              	.LBE93:
 464:Drivers/STM32F0xx_HAL_Driver/Src/stm32f0xx_ll_usb.c ****             pmabuffer = ep->pmaaddr1;
 3360              		.loc 1 464 13 is_stmt 1 discriminator 2 view .LVU1020
 3361 039e 012B     		cmp	r3, #1
 3362 03a0 06D0     		beq	.L217
 3363              	.LVL370:
 3364              	.L138:
 464:Drivers/STM32F0xx_HAL_Driver/Src/stm32f0xx_ll_usb.c ****             pmabuffer = ep->pmaaddr1;
 3365              		.loc 1 464 13 is_stmt 0 discriminator 2 view .LVU1021
 3366              	.LBE95:
 464:Drivers/STM32F0xx_HAL_Driver/Src/stm32f0xx_ll_usb.c ****             pmabuffer = ep->pmaaddr1;
 3367              		.loc 1 464 13 is_stmt 1 discriminator 18 view .LVU1022
 465:Drivers/STM32F0xx_HAL_Driver/Src/stm32f0xx_ll_usb.c **** 
 3368              		.loc 1 465 13 discriminator 18 view .LVU1023
 465:Drivers/STM32F0xx_HAL_Driver/Src/stm32f0xx_ll_usb.c **** 
 3369              		.loc 1 465 23 is_stmt 0 discriminator 18 view .LVU1024
 3370 03a2 6289     		ldrh	r2, [r4, #10]
 3371              	.LVL371:
 468:Drivers/STM32F0xx_HAL_Driver/Src/stm32f0xx_ll_usb.c ****           }
 3372              		.loc 1 468 13 is_stmt 1 discriminator 18 view .LVU1025
 3373 03a4 B3B2     		uxth	r3, r6
 3374 03a6 6169     		ldr	r1, [r4, #20]
 3375 03a8 2800     		movs	r0, r5
 3376 03aa FFF7FEFF 		bl	USB_WritePMA
 3377              	.LVL372:
 468:Drivers/STM32F0xx_HAL_Driver/Src/stm32f0xx_ll_usb.c ****           }
 3378              		.loc 1 468 13 is_stmt 0 discriminator 18 view .LVU1026
 3379 03ae A8E6     		b	.L109
 3380              	.LVL373:
 3381              	.L217:
 3382              	.LBB96:
 464:Drivers/STM32F0xx_HAL_Driver/Src/stm32f0xx_ll_usb.c ****             pmabuffer = ep->pmaaddr1;
 3383              		.loc 1 464 13 is_stmt 1 discriminator 16 view .LVU1027
 3384 03b0 4F33     		adds	r3, r3, #79
 3385 03b2 EA5A     		ldrh	r2, [r5, r3]
 3386 03b4 AA18     		adds	r2, r5, r2
 3387              	.LVL374:
 464:Drivers/STM32F0xx_HAL_Driver/Src/stm32f0xx_ll_usb.c ****             pmabuffer = ep->pmaaddr1;
 3388              		.loc 1 464 13 discriminator 16 view .LVU1028
 3389 03b6 2378     		ldrb	r3, [r4]
 3390 03b8 DB00     		lsls	r3, r3, #3
 3391 03ba 9B18     		adds	r3, r3, r2
 3392 03bc 9D4A     		ldr	r2, .L222
 3393              	.LVL375:
 464:Drivers/STM32F0xx_HAL_Driver/Src/stm32f0xx_ll_usb.c ****             pmabuffer = ep->pmaaddr1;
 3394              		.loc 1 464 13 is_stmt 0 discriminator 16 view .LVU1029
 3395 03be 9446     		mov	ip, r2
 3396 03c0 6344     		add	r3, r3, ip
 3397              	.LVL376:
ARM GAS  C:\Users\Daniel\AppData\Local\Temp\ccnluvCc.s 			page 84


 464:Drivers/STM32F0xx_HAL_Driver/Src/stm32f0xx_ll_usb.c ****             pmabuffer = ep->pmaaddr1;
 3398              		.loc 1 464 13 is_stmt 1 discriminator 16 view .LVU1030
 3399 03c2 B2B2     		uxth	r2, r6
 3400 03c4 1A80     		strh	r2, [r3]
 3401 03c6 ECE7     		b	.L138
 3402              	.LVL377:
 3403              	.L111:
 464:Drivers/STM32F0xx_HAL_Driver/Src/stm32f0xx_ll_usb.c ****             pmabuffer = ep->pmaaddr1;
 3404              		.loc 1 464 13 is_stmt 0 discriminator 16 view .LVU1031
 3405              	.LBE96:
 474:Drivers/STM32F0xx_HAL_Driver/Src/stm32f0xx_ll_usb.c **** 
 3406              		.loc 1 474 11 is_stmt 1 view .LVU1032
 477:Drivers/STM32F0xx_HAL_Driver/Src/stm32f0xx_ll_usb.c **** 
 3407              		.loc 1 477 11 view .LVU1033
 3408              	.LBB97:
 477:Drivers/STM32F0xx_HAL_Driver/Src/stm32f0xx_ll_usb.c **** 
 3409              		.loc 1 477 11 view .LVU1034
 477:Drivers/STM32F0xx_HAL_Driver/Src/stm32f0xx_ll_usb.c **** 
 3410              		.loc 1 477 11 view .LVU1035
 3411 03c8 2278     		ldrb	r2, [r4]
 3412 03ca 9200     		lsls	r2, r2, #2
 3413 03cc AA18     		adds	r2, r5, r2
 3414 03ce 1088     		ldrh	r0, [r2]
 3415              	.LVL378:
 477:Drivers/STM32F0xx_HAL_Driver/Src/stm32f0xx_ll_usb.c **** 
 3416              		.loc 1 477 11 is_stmt 0 view .LVU1036
 3417 03d0 9B49     		ldr	r1, .L222+12
 3418 03d2 0840     		ands	r0, r1
 3419              	.LVL379:
 477:Drivers/STM32F0xx_HAL_Driver/Src/stm32f0xx_ll_usb.c **** 
 3420              		.loc 1 477 11 is_stmt 1 view .LVU1037
 3421 03d4 9B49     		ldr	r1, .L222+16
 3422 03d6 0143     		orrs	r1, r0
 3423 03d8 89B2     		uxth	r1, r1
 3424 03da 1180     		strh	r1, [r2]
 3425              	.LBE97:
 477:Drivers/STM32F0xx_HAL_Driver/Src/stm32f0xx_ll_usb.c **** 
 3426              		.loc 1 477 11 view .LVU1038
 480:Drivers/STM32F0xx_HAL_Driver/Src/stm32f0xx_ll_usb.c ****           pmabuffer = ep->pmaaddr0;
 3427              		.loc 1 480 11 view .LVU1039
 3428              	.LBB98:
 480:Drivers/STM32F0xx_HAL_Driver/Src/stm32f0xx_ll_usb.c ****           pmabuffer = ep->pmaaddr0;
 3429              		.loc 1 480 11 view .LVU1040
 3430              	.LVL380:
 480:Drivers/STM32F0xx_HAL_Driver/Src/stm32f0xx_ll_usb.c ****           pmabuffer = ep->pmaaddr0;
 3431              		.loc 1 480 11 view .LVU1041
 480:Drivers/STM32F0xx_HAL_Driver/Src/stm32f0xx_ll_usb.c ****           pmabuffer = ep->pmaaddr0;
 3432              		.loc 1 480 11 view .LVU1042
 3433 03dc 5022     		movs	r2, #80
 3434 03de A95A     		ldrh	r1, [r5, r2]
 3435 03e0 6918     		adds	r1, r5, r1
 3436              	.LVL381:
 480:Drivers/STM32F0xx_HAL_Driver/Src/stm32f0xx_ll_usb.c ****           pmabuffer = ep->pmaaddr0;
 3437              		.loc 1 480 11 view .LVU1043
 3438 03e2 2278     		ldrb	r2, [r4]
 3439 03e4 D200     		lsls	r2, r2, #3
 3440 03e6 5218     		adds	r2, r2, r1
ARM GAS  C:\Users\Daniel\AppData\Local\Temp\ccnluvCc.s 			page 85


 3441 03e8 9449     		ldr	r1, .L222+8
 3442              	.LVL382:
 480:Drivers/STM32F0xx_HAL_Driver/Src/stm32f0xx_ll_usb.c ****           pmabuffer = ep->pmaaddr0;
 3443              		.loc 1 480 11 is_stmt 0 view .LVU1044
 3444 03ea 8C46     		mov	ip, r1
 3445 03ec 6244     		add	r2, r2, ip
 3446              	.LVL383:
 480:Drivers/STM32F0xx_HAL_Driver/Src/stm32f0xx_ll_usb.c ****           pmabuffer = ep->pmaaddr0;
 3447              		.loc 1 480 11 is_stmt 1 view .LVU1045
 3448 03ee 9BB2     		uxth	r3, r3
 3449              	.LVL384:
 480:Drivers/STM32F0xx_HAL_Driver/Src/stm32f0xx_ll_usb.c ****           pmabuffer = ep->pmaaddr0;
 3450              		.loc 1 480 11 is_stmt 0 view .LVU1046
 3451 03f0 1380     		strh	r3, [r2]
 3452              	.LBE98:
 480:Drivers/STM32F0xx_HAL_Driver/Src/stm32f0xx_ll_usb.c ****           pmabuffer = ep->pmaaddr0;
 3453              		.loc 1 480 11 is_stmt 1 view .LVU1047
 481:Drivers/STM32F0xx_HAL_Driver/Src/stm32f0xx_ll_usb.c **** 
 3454              		.loc 1 481 11 view .LVU1048
 481:Drivers/STM32F0xx_HAL_Driver/Src/stm32f0xx_ll_usb.c **** 
 3455              		.loc 1 481 21 is_stmt 0 view .LVU1049
 3456 03f2 2289     		ldrh	r2, [r4, #8]
 3457              	.LVL385:
 484:Drivers/STM32F0xx_HAL_Driver/Src/stm32f0xx_ll_usb.c ****         }
 3458              		.loc 1 484 11 is_stmt 1 view .LVU1050
 3459 03f4 6169     		ldr	r1, [r4, #20]
 3460 03f6 2800     		movs	r0, r5
 3461              	.LVL386:
 484:Drivers/STM32F0xx_HAL_Driver/Src/stm32f0xx_ll_usb.c ****         }
 3462              		.loc 1 484 11 is_stmt 0 view .LVU1051
 3463 03f8 FFF7FEFF 		bl	USB_WritePMA
 3464              	.LVL387:
 484:Drivers/STM32F0xx_HAL_Driver/Src/stm32f0xx_ll_usb.c ****         }
 3465              		.loc 1 484 11 view .LVU1052
 3466 03fc 81E6     		b	.L109
 3467              	.LVL388:
 3468              	.L143:
 3469              	.LBB99:
 3470              	.LBB74:
 3471              	.LBB73:
 496:Drivers/STM32F0xx_HAL_Driver/Src/stm32f0xx_ll_usb.c ****           pmabuffer = ep->pmaaddr1;
 3472              		.loc 1 496 11 is_stmt 1 discriminator 4 view .LVU1053
 3473 03fe 002E     		cmp	r6, #0
 3474 0400 05D1     		bne	.L146
 496:Drivers/STM32F0xx_HAL_Driver/Src/stm32f0xx_ll_usb.c ****           pmabuffer = ep->pmaaddr1;
 3475              		.loc 1 496 11 discriminator 9 view .LVU1054
 3476 0402 1A88     		ldrh	r2, [r3]
 3477 0404 8C49     		ldr	r1, .L222+4
 3478 0406 0A43     		orrs	r2, r1
 3479 0408 92B2     		uxth	r2, r2
 3480 040a 1A80     		strh	r2, [r3]
 3481 040c 13E0     		b	.L145
 3482              	.L146:
 496:Drivers/STM32F0xx_HAL_Driver/Src/stm32f0xx_ll_usb.c ****           pmabuffer = ep->pmaaddr1;
 3483              		.loc 1 496 11 discriminator 10 view .LVU1055
 496:Drivers/STM32F0xx_HAL_Driver/Src/stm32f0xx_ll_usb.c ****           pmabuffer = ep->pmaaddr1;
 3484              		.loc 1 496 11 discriminator 10 view .LVU1056
ARM GAS  C:\Users\Daniel\AppData\Local\Temp\ccnluvCc.s 			page 86


 3485 040e 7208     		lsrs	r2, r6, #1
 3486              	.LVL389:
 496:Drivers/STM32F0xx_HAL_Driver/Src/stm32f0xx_ll_usb.c ****           pmabuffer = ep->pmaaddr1;
 3487              		.loc 1 496 11 discriminator 10 view .LVU1057
 3488 0410 F107     		lsls	r1, r6, #31
 3489 0412 00D5     		bpl	.L147
 496:Drivers/STM32F0xx_HAL_Driver/Src/stm32f0xx_ll_usb.c ****           pmabuffer = ep->pmaaddr1;
 3490              		.loc 1 496 11 discriminator 12 view .LVU1058
 3491 0414 0132     		adds	r2, r2, #1
 3492              	.LVL390:
 3493              	.L147:
 496:Drivers/STM32F0xx_HAL_Driver/Src/stm32f0xx_ll_usb.c ****           pmabuffer = ep->pmaaddr1;
 3494              		.loc 1 496 11 discriminator 14 view .LVU1059
 3495 0416 1988     		ldrh	r1, [r3]
 3496 0418 9202     		lsls	r2, r2, #10
 3497              	.LVL391:
 496:Drivers/STM32F0xx_HAL_Driver/Src/stm32f0xx_ll_usb.c ****           pmabuffer = ep->pmaaddr1;
 3498              		.loc 1 496 11 is_stmt 0 discriminator 14 view .LVU1060
 3499 041a 92B2     		uxth	r2, r2
 3500 041c 0A43     		orrs	r2, r1
 3501 041e 1A80     		strh	r2, [r3]
 3502 0420 09E0     		b	.L145
 3503              	.LVL392:
 3504              	.L142:
 496:Drivers/STM32F0xx_HAL_Driver/Src/stm32f0xx_ll_usb.c ****           pmabuffer = ep->pmaaddr1;
 3505              		.loc 1 496 11 discriminator 14 view .LVU1061
 3506              	.LBE73:
 3507              	.LBE74:
 496:Drivers/STM32F0xx_HAL_Driver/Src/stm32f0xx_ll_usb.c ****           pmabuffer = ep->pmaaddr1;
 3508              		.loc 1 496 11 is_stmt 1 discriminator 16 view .LVU1062
 496:Drivers/STM32F0xx_HAL_Driver/Src/stm32f0xx_ll_usb.c ****           pmabuffer = ep->pmaaddr1;
 3509              		.loc 1 496 11 discriminator 16 view .LVU1063
 3510 0422 5022     		movs	r2, #80
 3511 0424 AA5A     		ldrh	r2, [r5, r2]
 3512 0426 AA18     		adds	r2, r5, r2
 3513              	.LVL393:
 496:Drivers/STM32F0xx_HAL_Driver/Src/stm32f0xx_ll_usb.c ****           pmabuffer = ep->pmaaddr1;
 3514              		.loc 1 496 11 discriminator 16 view .LVU1064
 3515 0428 DB00     		lsls	r3, r3, #3
 3516 042a 9B18     		adds	r3, r3, r2
 3517 042c 814A     		ldr	r2, .L222
 3518              	.LVL394:
 496:Drivers/STM32F0xx_HAL_Driver/Src/stm32f0xx_ll_usb.c ****           pmabuffer = ep->pmaaddr1;
 3519              		.loc 1 496 11 is_stmt 0 discriminator 16 view .LVU1065
 3520 042e 9446     		mov	ip, r2
 3521 0430 6344     		add	r3, r3, ip
 3522              	.LVL395:
 496:Drivers/STM32F0xx_HAL_Driver/Src/stm32f0xx_ll_usb.c ****           pmabuffer = ep->pmaaddr1;
 3523              		.loc 1 496 11 is_stmt 1 discriminator 16 view .LVU1066
 3524 0432 B2B2     		uxth	r2, r6
 3525 0434 1A80     		strh	r2, [r3]
 3526              	.LVL396:
 3527              	.L145:
 496:Drivers/STM32F0xx_HAL_Driver/Src/stm32f0xx_ll_usb.c ****           pmabuffer = ep->pmaaddr1;
 3528              		.loc 1 496 11 is_stmt 0 discriminator 16 view .LVU1067
 3529              	.LBE99:
 496:Drivers/STM32F0xx_HAL_Driver/Src/stm32f0xx_ll_usb.c ****           pmabuffer = ep->pmaaddr1;
ARM GAS  C:\Users\Daniel\AppData\Local\Temp\ccnluvCc.s 			page 87


 3530              		.loc 1 496 11 is_stmt 1 discriminator 18 view .LVU1068
 497:Drivers/STM32F0xx_HAL_Driver/Src/stm32f0xx_ll_usb.c **** 
 3531              		.loc 1 497 11 discriminator 18 view .LVU1069
 497:Drivers/STM32F0xx_HAL_Driver/Src/stm32f0xx_ll_usb.c **** 
 3532              		.loc 1 497 21 is_stmt 0 discriminator 18 view .LVU1070
 3533 0436 6289     		ldrh	r2, [r4, #10]
 3534              	.LVL397:
 500:Drivers/STM32F0xx_HAL_Driver/Src/stm32f0xx_ll_usb.c ****         }
 3535              		.loc 1 500 11 is_stmt 1 discriminator 18 view .LVU1071
 3536 0438 B3B2     		uxth	r3, r6
 3537 043a 6169     		ldr	r1, [r4, #20]
 3538 043c 2800     		movs	r0, r5
 3539              	.LVL398:
 500:Drivers/STM32F0xx_HAL_Driver/Src/stm32f0xx_ll_usb.c ****         }
 3540              		.loc 1 500 11 is_stmt 0 discriminator 18 view .LVU1072
 3541 043e FFF7FEFF 		bl	USB_WritePMA
 3542              	.LVL399:
 500:Drivers/STM32F0xx_HAL_Driver/Src/stm32f0xx_ll_usb.c ****         }
 3543              		.loc 1 500 11 discriminator 18 view .LVU1073
 3544 0442 5EE6     		b	.L109
 3545              	.LVL400:
 3546              	.L141:
 505:Drivers/STM32F0xx_HAL_Driver/Src/stm32f0xx_ll_usb.c ****           pmabuffer = ep->pmaaddr0;
 3547              		.loc 1 505 11 is_stmt 1 view .LVU1074
 505:Drivers/STM32F0xx_HAL_Driver/Src/stm32f0xx_ll_usb.c ****           pmabuffer = ep->pmaaddr0;
 3548              		.loc 1 505 11 view .LVU1075
 3549 0444 002A     		cmp	r2, #0
 3550 0446 2CD1     		bne	.L148
 505:Drivers/STM32F0xx_HAL_Driver/Src/stm32f0xx_ll_usb.c ****           pmabuffer = ep->pmaaddr0;
 3551              		.loc 1 505 11 discriminator 1 view .LVU1076
 3552              	.LBB100:
 505:Drivers/STM32F0xx_HAL_Driver/Src/stm32f0xx_ll_usb.c ****           pmabuffer = ep->pmaaddr0;
 3553              		.loc 1 505 11 discriminator 1 view .LVU1077
 3554              	.LVL401:
 505:Drivers/STM32F0xx_HAL_Driver/Src/stm32f0xx_ll_usb.c ****           pmabuffer = ep->pmaaddr0;
 3555              		.loc 1 505 11 discriminator 1 view .LVU1078
 505:Drivers/STM32F0xx_HAL_Driver/Src/stm32f0xx_ll_usb.c ****           pmabuffer = ep->pmaaddr0;
 3556              		.loc 1 505 11 discriminator 1 view .LVU1079
 3557 0448 5032     		adds	r2, r2, #80
 3558 044a AA5A     		ldrh	r2, [r5, r2]
 3559 044c AA18     		adds	r2, r5, r2
 3560              	.LVL402:
 505:Drivers/STM32F0xx_HAL_Driver/Src/stm32f0xx_ll_usb.c ****           pmabuffer = ep->pmaaddr0;
 3561              		.loc 1 505 11 discriminator 1 view .LVU1080
 3562 044e DB00     		lsls	r3, r3, #3
 3563 0450 9B18     		adds	r3, r3, r2
 3564 0452 7A4A     		ldr	r2, .L222+8
 3565              	.LVL403:
 505:Drivers/STM32F0xx_HAL_Driver/Src/stm32f0xx_ll_usb.c ****           pmabuffer = ep->pmaaddr0;
 3566              		.loc 1 505 11 is_stmt 0 discriminator 1 view .LVU1081
 3567 0454 9446     		mov	ip, r2
 3568 0456 6344     		add	r3, r3, ip
 3569              	.LVL404:
 505:Drivers/STM32F0xx_HAL_Driver/Src/stm32f0xx_ll_usb.c ****           pmabuffer = ep->pmaaddr0;
 3570              		.loc 1 505 11 is_stmt 1 discriminator 1 view .LVU1082
 3571              	.LBB101:
 505:Drivers/STM32F0xx_HAL_Driver/Src/stm32f0xx_ll_usb.c ****           pmabuffer = ep->pmaaddr0;
ARM GAS  C:\Users\Daniel\AppData\Local\Temp\ccnluvCc.s 			page 88


 3572              		.loc 1 505 11 discriminator 1 view .LVU1083
 505:Drivers/STM32F0xx_HAL_Driver/Src/stm32f0xx_ll_usb.c ****           pmabuffer = ep->pmaaddr0;
 3573              		.loc 1 505 11 discriminator 1 view .LVU1084
 3574 0458 1A88     		ldrh	r2, [r3]
 3575 045a 9205     		lsls	r2, r2, #22
 3576 045c 920D     		lsrs	r2, r2, #22
 3577 045e 1A80     		strh	r2, [r3]
 505:Drivers/STM32F0xx_HAL_Driver/Src/stm32f0xx_ll_usb.c ****           pmabuffer = ep->pmaaddr0;
 3578              		.loc 1 505 11 discriminator 1 view .LVU1085
 3579 0460 3E2E     		cmp	r6, #62
 3580 0462 0CD9     		bls	.L149
 505:Drivers/STM32F0xx_HAL_Driver/Src/stm32f0xx_ll_usb.c ****           pmabuffer = ep->pmaaddr0;
 3581              		.loc 1 505 11 discriminator 3 view .LVU1086
 505:Drivers/STM32F0xx_HAL_Driver/Src/stm32f0xx_ll_usb.c ****           pmabuffer = ep->pmaaddr0;
 3582              		.loc 1 505 11 discriminator 3 view .LVU1087
 3583 0464 7209     		lsrs	r2, r6, #5
 3584              	.LVL405:
 505:Drivers/STM32F0xx_HAL_Driver/Src/stm32f0xx_ll_usb.c ****           pmabuffer = ep->pmaaddr0;
 3585              		.loc 1 505 11 discriminator 3 view .LVU1088
 3586 0466 F106     		lsls	r1, r6, #27
 3587 0468 00D1     		bne	.L150
 505:Drivers/STM32F0xx_HAL_Driver/Src/stm32f0xx_ll_usb.c ****           pmabuffer = ep->pmaaddr0;
 3588              		.loc 1 505 11 discriminator 5 view .LVU1089
 3589 046a 013A     		subs	r2, r2, #1
 3590              	.LVL406:
 3591              	.L150:
 505:Drivers/STM32F0xx_HAL_Driver/Src/stm32f0xx_ll_usb.c ****           pmabuffer = ep->pmaaddr0;
 3592              		.loc 1 505 11 discriminator 7 view .LVU1090
 3593 046c 1988     		ldrh	r1, [r3]
 3594 046e 9202     		lsls	r2, r2, #10
 3595              	.LVL407:
 505:Drivers/STM32F0xx_HAL_Driver/Src/stm32f0xx_ll_usb.c ****           pmabuffer = ep->pmaaddr0;
 3596              		.loc 1 505 11 is_stmt 0 discriminator 7 view .LVU1091
 3597 0470 92B2     		uxth	r2, r2
 3598 0472 1143     		orrs	r1, r2
 3599 0474 704A     		ldr	r2, .L222+4
 3600 0476 0A43     		orrs	r2, r1
 3601 0478 92B2     		uxth	r2, r2
 3602 047a 1A80     		strh	r2, [r3]
 505:Drivers/STM32F0xx_HAL_Driver/Src/stm32f0xx_ll_usb.c ****           pmabuffer = ep->pmaaddr0;
 3603              		.loc 1 505 11 is_stmt 1 discriminator 7 view .LVU1092
 3604 047c 1BE0     		b	.L151
 3605              	.LVL408:
 3606              	.L149:
 505:Drivers/STM32F0xx_HAL_Driver/Src/stm32f0xx_ll_usb.c ****           pmabuffer = ep->pmaaddr0;
 3607              		.loc 1 505 11 discriminator 4 view .LVU1093
 3608 047e 002E     		cmp	r6, #0
 3609 0480 05D1     		bne	.L152
 505:Drivers/STM32F0xx_HAL_Driver/Src/stm32f0xx_ll_usb.c ****           pmabuffer = ep->pmaaddr0;
 3610              		.loc 1 505 11 discriminator 9 view .LVU1094
 3611 0482 1A88     		ldrh	r2, [r3]
 3612 0484 6C49     		ldr	r1, .L222+4
 3613 0486 0A43     		orrs	r2, r1
 3614 0488 92B2     		uxth	r2, r2
 3615 048a 1A80     		strh	r2, [r3]
 3616 048c 13E0     		b	.L151
 3617              	.L152:
ARM GAS  C:\Users\Daniel\AppData\Local\Temp\ccnluvCc.s 			page 89


 505:Drivers/STM32F0xx_HAL_Driver/Src/stm32f0xx_ll_usb.c ****           pmabuffer = ep->pmaaddr0;
 3618              		.loc 1 505 11 discriminator 10 view .LVU1095
 505:Drivers/STM32F0xx_HAL_Driver/Src/stm32f0xx_ll_usb.c ****           pmabuffer = ep->pmaaddr0;
 3619              		.loc 1 505 11 discriminator 10 view .LVU1096
 3620 048e 7208     		lsrs	r2, r6, #1
 3621              	.LVL409:
 505:Drivers/STM32F0xx_HAL_Driver/Src/stm32f0xx_ll_usb.c ****           pmabuffer = ep->pmaaddr0;
 3622              		.loc 1 505 11 discriminator 10 view .LVU1097
 3623 0490 F107     		lsls	r1, r6, #31
 3624 0492 00D5     		bpl	.L153
 505:Drivers/STM32F0xx_HAL_Driver/Src/stm32f0xx_ll_usb.c ****           pmabuffer = ep->pmaaddr0;
 3625              		.loc 1 505 11 discriminator 12 view .LVU1098
 3626 0494 0132     		adds	r2, r2, #1
 3627              	.LVL410:
 3628              	.L153:
 505:Drivers/STM32F0xx_HAL_Driver/Src/stm32f0xx_ll_usb.c ****           pmabuffer = ep->pmaaddr0;
 3629              		.loc 1 505 11 discriminator 14 view .LVU1099
 3630 0496 1988     		ldrh	r1, [r3]
 3631 0498 9202     		lsls	r2, r2, #10
 3632              	.LVL411:
 505:Drivers/STM32F0xx_HAL_Driver/Src/stm32f0xx_ll_usb.c ****           pmabuffer = ep->pmaaddr0;
 3633              		.loc 1 505 11 is_stmt 0 discriminator 14 view .LVU1100
 3634 049a 92B2     		uxth	r2, r2
 3635 049c 0A43     		orrs	r2, r1
 3636 049e 1A80     		strh	r2, [r3]
 3637 04a0 09E0     		b	.L151
 3638              	.LVL412:
 3639              	.L148:
 505:Drivers/STM32F0xx_HAL_Driver/Src/stm32f0xx_ll_usb.c ****           pmabuffer = ep->pmaaddr0;
 3640              		.loc 1 505 11 discriminator 14 view .LVU1101
 3641              	.LBE101:
 3642              	.LBE100:
 505:Drivers/STM32F0xx_HAL_Driver/Src/stm32f0xx_ll_usb.c ****           pmabuffer = ep->pmaaddr0;
 3643              		.loc 1 505 11 is_stmt 1 discriminator 16 view .LVU1102
 505:Drivers/STM32F0xx_HAL_Driver/Src/stm32f0xx_ll_usb.c ****           pmabuffer = ep->pmaaddr0;
 3644              		.loc 1 505 11 discriminator 16 view .LVU1103
 3645              	.LBB102:
 505:Drivers/STM32F0xx_HAL_Driver/Src/stm32f0xx_ll_usb.c ****           pmabuffer = ep->pmaaddr0;
 3646              		.loc 1 505 11 discriminator 16 view .LVU1104
 505:Drivers/STM32F0xx_HAL_Driver/Src/stm32f0xx_ll_usb.c ****           pmabuffer = ep->pmaaddr0;
 3647              		.loc 1 505 11 discriminator 16 view .LVU1105
 505:Drivers/STM32F0xx_HAL_Driver/Src/stm32f0xx_ll_usb.c ****           pmabuffer = ep->pmaaddr0;
 3648              		.loc 1 505 11 discriminator 16 view .LVU1106
 3649 04a2 5022     		movs	r2, #80
 3650 04a4 AA5A     		ldrh	r2, [r5, r2]
 3651 04a6 AA18     		adds	r2, r5, r2
 3652              	.LVL413:
 505:Drivers/STM32F0xx_HAL_Driver/Src/stm32f0xx_ll_usb.c ****           pmabuffer = ep->pmaaddr0;
 3653              		.loc 1 505 11 discriminator 16 view .LVU1107
 3654 04a8 DB00     		lsls	r3, r3, #3
 3655 04aa 9B18     		adds	r3, r3, r2
 3656 04ac 634A     		ldr	r2, .L222+8
 3657              	.LVL414:
 505:Drivers/STM32F0xx_HAL_Driver/Src/stm32f0xx_ll_usb.c ****           pmabuffer = ep->pmaaddr0;
 3658              		.loc 1 505 11 is_stmt 0 discriminator 16 view .LVU1108
 3659 04ae 9446     		mov	ip, r2
 3660 04b0 6344     		add	r3, r3, ip
ARM GAS  C:\Users\Daniel\AppData\Local\Temp\ccnluvCc.s 			page 90


 3661              	.LVL415:
 505:Drivers/STM32F0xx_HAL_Driver/Src/stm32f0xx_ll_usb.c ****           pmabuffer = ep->pmaaddr0;
 3662              		.loc 1 505 11 is_stmt 1 discriminator 16 view .LVU1109
 3663 04b2 B2B2     		uxth	r2, r6
 3664 04b4 1A80     		strh	r2, [r3]
 3665              	.LVL416:
 3666              	.L151:
 505:Drivers/STM32F0xx_HAL_Driver/Src/stm32f0xx_ll_usb.c ****           pmabuffer = ep->pmaaddr0;
 3667              		.loc 1 505 11 is_stmt 0 discriminator 16 view .LVU1110
 3668              	.LBE102:
 505:Drivers/STM32F0xx_HAL_Driver/Src/stm32f0xx_ll_usb.c ****           pmabuffer = ep->pmaaddr0;
 3669              		.loc 1 505 11 is_stmt 1 discriminator 18 view .LVU1111
 505:Drivers/STM32F0xx_HAL_Driver/Src/stm32f0xx_ll_usb.c ****           pmabuffer = ep->pmaaddr0;
 3670              		.loc 1 505 11 discriminator 18 view .LVU1112
 506:Drivers/STM32F0xx_HAL_Driver/Src/stm32f0xx_ll_usb.c **** 
 3671              		.loc 1 506 11 discriminator 18 view .LVU1113
 506:Drivers/STM32F0xx_HAL_Driver/Src/stm32f0xx_ll_usb.c **** 
 3672              		.loc 1 506 21 is_stmt 0 discriminator 18 view .LVU1114
 3673 04b6 2289     		ldrh	r2, [r4, #8]
 3674              	.LVL417:
 509:Drivers/STM32F0xx_HAL_Driver/Src/stm32f0xx_ll_usb.c ****         }
 3675              		.loc 1 509 11 is_stmt 1 discriminator 18 view .LVU1115
 3676 04b8 B3B2     		uxth	r3, r6
 3677 04ba 6169     		ldr	r1, [r4, #20]
 3678 04bc 2800     		movs	r0, r5
 3679              	.LVL418:
 509:Drivers/STM32F0xx_HAL_Driver/Src/stm32f0xx_ll_usb.c ****         }
 3680              		.loc 1 509 11 is_stmt 0 discriminator 18 view .LVU1116
 3681 04be FFF7FEFF 		bl	USB_WritePMA
 3682              	.LVL419:
 509:Drivers/STM32F0xx_HAL_Driver/Src/stm32f0xx_ll_usb.c ****         }
 3683              		.loc 1 509 11 discriminator 18 view .LVU1117
 3684 04c2 1EE6     		b	.L109
 3685              	.LVL420:
 3686              	.L156:
 529:Drivers/STM32F0xx_HAL_Driver/Src/stm32f0xx_ll_usb.c ****         ep->xfer_len = 0U;
 3687              		.loc 1 529 9 is_stmt 1 view .LVU1118
 530:Drivers/STM32F0xx_HAL_Driver/Src/stm32f0xx_ll_usb.c ****       }
 3688              		.loc 1 530 9 view .LVU1119
 530:Drivers/STM32F0xx_HAL_Driver/Src/stm32f0xx_ll_usb.c ****       }
 3689              		.loc 1 530 22 is_stmt 0 view .LVU1120
 3690 04c4 0022     		movs	r2, #0
 3691 04c6 A261     		str	r2, [r4, #24]
 529:Drivers/STM32F0xx_HAL_Driver/Src/stm32f0xx_ll_usb.c ****         ep->xfer_len = 0U;
 3692              		.loc 1 529 13 view .LVU1121
 3693 04c8 1900     		movs	r1, r3
 3694 04ca AAE5     		b	.L157
 3695              	.LVL421:
 3696              	.L158:
 3697              	.LBB103:
 3698              	.LBB68:
 533:Drivers/STM32F0xx_HAL_Driver/Src/stm32f0xx_ll_usb.c ****     }
 3699              		.loc 1 533 7 is_stmt 1 discriminator 2 view .LVU1122
 3700 04cc 0029     		cmp	r1, #0
 3701 04ce 05D1     		bne	.L161
 533:Drivers/STM32F0xx_HAL_Driver/Src/stm32f0xx_ll_usb.c ****     }
 3702              		.loc 1 533 7 discriminator 7 view .LVU1123
ARM GAS  C:\Users\Daniel\AppData\Local\Temp\ccnluvCc.s 			page 91


 3703 04d0 1A88     		ldrh	r2, [r3]
 3704 04d2 5949     		ldr	r1, .L222+4
 3705              	.LVL422:
 533:Drivers/STM32F0xx_HAL_Driver/Src/stm32f0xx_ll_usb.c ****     }
 3706              		.loc 1 533 7 is_stmt 0 discriminator 7 view .LVU1124
 3707 04d4 0A43     		orrs	r2, r1
 3708 04d6 92B2     		uxth	r2, r2
 3709 04d8 1A80     		strh	r2, [r3]
 3710 04da BEE5     		b	.L160
 3711              	.LVL423:
 3712              	.L161:
 533:Drivers/STM32F0xx_HAL_Driver/Src/stm32f0xx_ll_usb.c ****     }
 3713              		.loc 1 533 7 is_stmt 1 discriminator 8 view .LVU1125
 533:Drivers/STM32F0xx_HAL_Driver/Src/stm32f0xx_ll_usb.c ****     }
 3714              		.loc 1 533 7 discriminator 8 view .LVU1126
 3715 04dc 4A08     		lsrs	r2, r1, #1
 3716              	.LVL424:
 533:Drivers/STM32F0xx_HAL_Driver/Src/stm32f0xx_ll_usb.c ****     }
 3717              		.loc 1 533 7 discriminator 8 view .LVU1127
 3718 04de C907     		lsls	r1, r1, #31
 3719 04e0 00D5     		bpl	.L162
 3720              	.LVL425:
 533:Drivers/STM32F0xx_HAL_Driver/Src/stm32f0xx_ll_usb.c ****     }
 3721              		.loc 1 533 7 discriminator 10 view .LVU1128
 3722 04e2 0132     		adds	r2, r2, #1
 3723              	.LVL426:
 3724              	.L162:
 533:Drivers/STM32F0xx_HAL_Driver/Src/stm32f0xx_ll_usb.c ****     }
 3725              		.loc 1 533 7 discriminator 12 view .LVU1129
 3726 04e4 1988     		ldrh	r1, [r3]
 3727 04e6 9202     		lsls	r2, r2, #10
 3728              	.LVL427:
 533:Drivers/STM32F0xx_HAL_Driver/Src/stm32f0xx_ll_usb.c ****     }
 3729              		.loc 1 533 7 is_stmt 0 discriminator 12 view .LVU1130
 3730 04e8 92B2     		uxth	r2, r2
 3731 04ea 0A43     		orrs	r2, r1
 3732 04ec 1A80     		strh	r2, [r3]
 3733 04ee B4E5     		b	.L160
 3734              	.LVL428:
 3735              	.L155:
 533:Drivers/STM32F0xx_HAL_Driver/Src/stm32f0xx_ll_usb.c ****     }
 3736              		.loc 1 533 7 discriminator 12 view .LVU1131
 3737              	.LBE68:
 3738              	.LBE103:
 540:Drivers/STM32F0xx_HAL_Driver/Src/stm32f0xx_ll_usb.c ****       {
 3739              		.loc 1 540 7 is_stmt 1 view .LVU1132
 540:Drivers/STM32F0xx_HAL_Driver/Src/stm32f0xx_ll_usb.c ****       {
 3740              		.loc 1 540 13 is_stmt 0 view .LVU1133
 3741 04f0 CB78     		ldrb	r3, [r1, #3]
 540:Drivers/STM32F0xx_HAL_Driver/Src/stm32f0xx_ll_usb.c ****       {
 3742              		.loc 1 540 10 view .LVU1134
 3743 04f2 022B     		cmp	r3, #2
 3744 04f4 48D0     		beq	.L218
 559:Drivers/STM32F0xx_HAL_Driver/Src/stm32f0xx_ll_usb.c ****       {
 3745              		.loc 1 559 12 is_stmt 1 view .LVU1135
 559:Drivers/STM32F0xx_HAL_Driver/Src/stm32f0xx_ll_usb.c ****       {
 3746              		.loc 1 559 15 is_stmt 0 view .LVU1136
ARM GAS  C:\Users\Daniel\AppData\Local\Temp\ccnluvCc.s 			page 92


 3747 04f6 012B     		cmp	r3, #1
 3748 04f8 00D0     		beq	.LCB4074
 3749 04fa 0BE1     		b	.L188	@long jump
 3750              	.LCB4074:
 562:Drivers/STM32F0xx_HAL_Driver/Src/stm32f0xx_ll_usb.c ****         {
 3751              		.loc 1 562 9 is_stmt 1 view .LVU1137
 562:Drivers/STM32F0xx_HAL_Driver/Src/stm32f0xx_ll_usb.c ****         {
 3752              		.loc 1 562 15 is_stmt 0 view .LVU1138
 3753 04fc 8969     		ldr	r1, [r1, #24]
 3754              	.LVL429:
 562:Drivers/STM32F0xx_HAL_Driver/Src/stm32f0xx_ll_usb.c ****         {
 3755              		.loc 1 562 30 view .LVU1139
 3756 04fe 2369     		ldr	r3, [r4, #16]
 562:Drivers/STM32F0xx_HAL_Driver/Src/stm32f0xx_ll_usb.c ****         {
 3757              		.loc 1 562 12 view .LVU1140
 3758 0500 9942     		cmp	r1, r3
 3759 0502 00D8     		bhi	.LCB4080
 3760 0504 CFE0     		b	.L176	@long jump
 3761              	.LCB4080:
 564:Drivers/STM32F0xx_HAL_Driver/Src/stm32f0xx_ll_usb.c ****           ep->xfer_len -= len;
 3762              		.loc 1 564 11 is_stmt 1 view .LVU1141
 3763              	.LVL430:
 565:Drivers/STM32F0xx_HAL_Driver/Src/stm32f0xx_ll_usb.c ****         }
 3764              		.loc 1 565 11 view .LVU1142
 565:Drivers/STM32F0xx_HAL_Driver/Src/stm32f0xx_ll_usb.c ****         }
 3765              		.loc 1 565 24 is_stmt 0 view .LVU1143
 3766 0506 C91A     		subs	r1, r1, r3
 3767 0508 A161     		str	r1, [r4, #24]
 3768              	.L177:
 572:Drivers/STM32F0xx_HAL_Driver/Src/stm32f0xx_ll_usb.c ****       }
 3769              		.loc 1 572 9 is_stmt 1 view .LVU1144
 572:Drivers/STM32F0xx_HAL_Driver/Src/stm32f0xx_ll_usb.c ****       }
 3770              		.loc 1 572 9 view .LVU1145
 572:Drivers/STM32F0xx_HAL_Driver/Src/stm32f0xx_ll_usb.c ****       }
 3771              		.loc 1 572 9 view .LVU1146
 3772 050a 002A     		cmp	r2, #0
 3773 050c 1BD1     		bne	.L178
 572:Drivers/STM32F0xx_HAL_Driver/Src/stm32f0xx_ll_usb.c ****       }
 3774              		.loc 1 572 9 discriminator 1 view .LVU1147
 3775              	.LBB104:
 572:Drivers/STM32F0xx_HAL_Driver/Src/stm32f0xx_ll_usb.c ****       }
 3776              		.loc 1 572 9 discriminator 1 view .LVU1148
 3777              	.LVL431:
 572:Drivers/STM32F0xx_HAL_Driver/Src/stm32f0xx_ll_usb.c ****       }
 3778              		.loc 1 572 9 discriminator 1 view .LVU1149
 572:Drivers/STM32F0xx_HAL_Driver/Src/stm32f0xx_ll_usb.c ****       }
 3779              		.loc 1 572 9 discriminator 1 view .LVU1150
 3780 050e 5032     		adds	r2, r2, #80
 3781 0510 A95A     		ldrh	r1, [r5, r2]
 3782 0512 6918     		adds	r1, r5, r1
 3783              	.LVL432:
 572:Drivers/STM32F0xx_HAL_Driver/Src/stm32f0xx_ll_usb.c ****       }
 3784              		.loc 1 572 9 discriminator 1 view .LVU1151
 3785 0514 2278     		ldrb	r2, [r4]
 3786 0516 D200     		lsls	r2, r2, #3
 3787 0518 5218     		adds	r2, r2, r1
 3788 051a 4849     		ldr	r1, .L222+8
ARM GAS  C:\Users\Daniel\AppData\Local\Temp\ccnluvCc.s 			page 93


 3789              	.LVL433:
 572:Drivers/STM32F0xx_HAL_Driver/Src/stm32f0xx_ll_usb.c ****       }
 3790              		.loc 1 572 9 is_stmt 0 discriminator 1 view .LVU1152
 3791 051c 8C46     		mov	ip, r1
 3792 051e 6244     		add	r2, r2, ip
 3793              	.LVL434:
 572:Drivers/STM32F0xx_HAL_Driver/Src/stm32f0xx_ll_usb.c ****       }
 3794              		.loc 1 572 9 is_stmt 1 discriminator 1 view .LVU1153
 3795              	.LBB105:
 572:Drivers/STM32F0xx_HAL_Driver/Src/stm32f0xx_ll_usb.c ****       }
 3796              		.loc 1 572 9 discriminator 1 view .LVU1154
 572:Drivers/STM32F0xx_HAL_Driver/Src/stm32f0xx_ll_usb.c ****       }
 3797              		.loc 1 572 9 discriminator 1 view .LVU1155
 3798 0520 1188     		ldrh	r1, [r2]
 3799 0522 8905     		lsls	r1, r1, #22
 3800 0524 890D     		lsrs	r1, r1, #22
 3801 0526 1180     		strh	r1, [r2]
 572:Drivers/STM32F0xx_HAL_Driver/Src/stm32f0xx_ll_usb.c ****       }
 3802              		.loc 1 572 9 discriminator 1 view .LVU1156
 3803 0528 3E2B     		cmp	r3, #62
 3804 052a 00D8     		bhi	.LCB4128
 3805 052c BFE0     		b	.L179	@long jump
 3806              	.LCB4128:
 572:Drivers/STM32F0xx_HAL_Driver/Src/stm32f0xx_ll_usb.c ****       }
 3807              		.loc 1 572 9 discriminator 3 view .LVU1157
 572:Drivers/STM32F0xx_HAL_Driver/Src/stm32f0xx_ll_usb.c ****       }
 3808              		.loc 1 572 9 discriminator 3 view .LVU1158
 3809 052e 5909     		lsrs	r1, r3, #5
 3810              	.LVL435:
 572:Drivers/STM32F0xx_HAL_Driver/Src/stm32f0xx_ll_usb.c ****       }
 3811              		.loc 1 572 9 discriminator 3 view .LVU1159
 3812 0530 D806     		lsls	r0, r3, #27
 3813 0532 00D1     		bne	.L180
 3814              	.LVL436:
 572:Drivers/STM32F0xx_HAL_Driver/Src/stm32f0xx_ll_usb.c ****       }
 3815              		.loc 1 572 9 discriminator 5 view .LVU1160
 3816 0534 0139     		subs	r1, r1, #1
 3817              	.LVL437:
 3818              	.L180:
 572:Drivers/STM32F0xx_HAL_Driver/Src/stm32f0xx_ll_usb.c ****       }
 3819              		.loc 1 572 9 discriminator 7 view .LVU1161
 3820 0536 1088     		ldrh	r0, [r2]
 3821 0538 8902     		lsls	r1, r1, #10
 3822              	.LVL438:
 572:Drivers/STM32F0xx_HAL_Driver/Src/stm32f0xx_ll_usb.c ****       }
 3823              		.loc 1 572 9 is_stmt 0 discriminator 7 view .LVU1162
 3824 053a 89B2     		uxth	r1, r1
 3825 053c 0843     		orrs	r0, r1
 3826 053e 3E49     		ldr	r1, .L222+4
 3827 0540 0143     		orrs	r1, r0
 3828 0542 89B2     		uxth	r1, r1
 3829 0544 1180     		strh	r1, [r2]
 572:Drivers/STM32F0xx_HAL_Driver/Src/stm32f0xx_ll_usb.c ****       }
 3830              		.loc 1 572 9 is_stmt 1 discriminator 7 view .LVU1163
 3831              	.LVL439:
 3832              	.L178:
 572:Drivers/STM32F0xx_HAL_Driver/Src/stm32f0xx_ll_usb.c ****       }
ARM GAS  C:\Users\Daniel\AppData\Local\Temp\ccnluvCc.s 			page 94


 3833              		.loc 1 572 9 is_stmt 0 discriminator 7 view .LVU1164
 3834              	.LBE105:
 3835              	.LBE104:
 572:Drivers/STM32F0xx_HAL_Driver/Src/stm32f0xx_ll_usb.c ****       }
 3836              		.loc 1 572 9 is_stmt 1 discriminator 18 view .LVU1165
 572:Drivers/STM32F0xx_HAL_Driver/Src/stm32f0xx_ll_usb.c ****       }
 3837              		.loc 1 572 9 discriminator 18 view .LVU1166
 572:Drivers/STM32F0xx_HAL_Driver/Src/stm32f0xx_ll_usb.c ****       }
 3838              		.loc 1 572 9 discriminator 18 view .LVU1167
 3839              	.LBB107:
 572:Drivers/STM32F0xx_HAL_Driver/Src/stm32f0xx_ll_usb.c ****       }
 3840              		.loc 1 572 9 discriminator 18 view .LVU1168
 572:Drivers/STM32F0xx_HAL_Driver/Src/stm32f0xx_ll_usb.c ****       }
 3841              		.loc 1 572 9 discriminator 18 view .LVU1169
 572:Drivers/STM32F0xx_HAL_Driver/Src/stm32f0xx_ll_usb.c ****       }
 3842              		.loc 1 572 9 discriminator 18 view .LVU1170
 3843 0546 6278     		ldrb	r2, [r4, #1]
 3844 0548 002A     		cmp	r2, #0
 3845 054a 00D0     		beq	.LCB4179
 3846 054c D3E0     		b	.L183	@long jump
 3847              	.LCB4179:
 572:Drivers/STM32F0xx_HAL_Driver/Src/stm32f0xx_ll_usb.c ****       }
 3848              		.loc 1 572 9 discriminator 19 view .LVU1171
 3849              	.LBB108:
 572:Drivers/STM32F0xx_HAL_Driver/Src/stm32f0xx_ll_usb.c ****       }
 3850              		.loc 1 572 9 discriminator 19 view .LVU1172
 3851              	.LVL440:
 572:Drivers/STM32F0xx_HAL_Driver/Src/stm32f0xx_ll_usb.c ****       }
 3852              		.loc 1 572 9 discriminator 19 view .LVU1173
 572:Drivers/STM32F0xx_HAL_Driver/Src/stm32f0xx_ll_usb.c ****       }
 3853              		.loc 1 572 9 discriminator 19 view .LVU1174
 3854 054e 5032     		adds	r2, r2, #80
 3855 0550 A95A     		ldrh	r1, [r5, r2]
 3856 0552 6918     		adds	r1, r5, r1
 3857              	.LVL441:
 572:Drivers/STM32F0xx_HAL_Driver/Src/stm32f0xx_ll_usb.c ****       }
 3858              		.loc 1 572 9 discriminator 19 view .LVU1175
 3859 0554 2278     		ldrb	r2, [r4]
 3860 0556 D200     		lsls	r2, r2, #3
 3861 0558 5218     		adds	r2, r2, r1
 3862 055a 3649     		ldr	r1, .L222
 3863              	.LVL442:
 572:Drivers/STM32F0xx_HAL_Driver/Src/stm32f0xx_ll_usb.c ****       }
 3864              		.loc 1 572 9 is_stmt 0 discriminator 19 view .LVU1176
 3865 055c 8C46     		mov	ip, r1
 3866 055e 6244     		add	r2, r2, ip
 3867              	.LVL443:
 572:Drivers/STM32F0xx_HAL_Driver/Src/stm32f0xx_ll_usb.c ****       }
 3868              		.loc 1 572 9 is_stmt 1 discriminator 19 view .LVU1177
 3869              	.LBB109:
 572:Drivers/STM32F0xx_HAL_Driver/Src/stm32f0xx_ll_usb.c ****       }
 3870              		.loc 1 572 9 discriminator 19 view .LVU1178
 572:Drivers/STM32F0xx_HAL_Driver/Src/stm32f0xx_ll_usb.c ****       }
 3871              		.loc 1 572 9 discriminator 19 view .LVU1179
 3872 0560 1188     		ldrh	r1, [r2]
 3873 0562 8905     		lsls	r1, r1, #22
 3874 0564 890D     		lsrs	r1, r1, #22
ARM GAS  C:\Users\Daniel\AppData\Local\Temp\ccnluvCc.s 			page 95


 3875 0566 1180     		strh	r1, [r2]
 572:Drivers/STM32F0xx_HAL_Driver/Src/stm32f0xx_ll_usb.c ****       }
 3876              		.loc 1 572 9 discriminator 19 view .LVU1180
 3877 0568 3E2B     		cmp	r3, #62
 3878 056a 00D8     		bhi	.LCB4212
 3879 056c B1E0     		b	.L184	@long jump
 3880              	.LCB4212:
 572:Drivers/STM32F0xx_HAL_Driver/Src/stm32f0xx_ll_usb.c ****       }
 3881              		.loc 1 572 9 discriminator 21 view .LVU1181
 572:Drivers/STM32F0xx_HAL_Driver/Src/stm32f0xx_ll_usb.c ****       }
 3882              		.loc 1 572 9 discriminator 21 view .LVU1182
 3883 056e 5909     		lsrs	r1, r3, #5
 3884              	.LVL444:
 572:Drivers/STM32F0xx_HAL_Driver/Src/stm32f0xx_ll_usb.c ****       }
 3885              		.loc 1 572 9 discriminator 21 view .LVU1183
 3886 0570 DB06     		lsls	r3, r3, #27
 3887 0572 00D1     		bne	.L185
 3888              	.LVL445:
 572:Drivers/STM32F0xx_HAL_Driver/Src/stm32f0xx_ll_usb.c ****       }
 3889              		.loc 1 572 9 discriminator 23 view .LVU1184
 3890 0574 0139     		subs	r1, r1, #1
 3891              	.LVL446:
 3892              	.L185:
 572:Drivers/STM32F0xx_HAL_Driver/Src/stm32f0xx_ll_usb.c ****       }
 3893              		.loc 1 572 9 discriminator 25 view .LVU1185
 3894 0576 1388     		ldrh	r3, [r2]
 3895 0578 8902     		lsls	r1, r1, #10
 3896              	.LVL447:
 572:Drivers/STM32F0xx_HAL_Driver/Src/stm32f0xx_ll_usb.c ****       }
 3897              		.loc 1 572 9 is_stmt 0 discriminator 25 view .LVU1186
 3898 057a 89B2     		uxth	r1, r1
 3899 057c 1943     		orrs	r1, r3
 3900 057e 2E4B     		ldr	r3, .L222+4
 3901 0580 0B43     		orrs	r3, r1
 3902 0582 9BB2     		uxth	r3, r3
 3903 0584 1380     		strh	r3, [r2]
 572:Drivers/STM32F0xx_HAL_Driver/Src/stm32f0xx_ll_usb.c ****       }
 3904              		.loc 1 572 9 is_stmt 1 discriminator 25 view .LVU1187
 3905 0586 68E5     		b	.L160
 3906              	.LVL448:
 3907              	.L218:
 572:Drivers/STM32F0xx_HAL_Driver/Src/stm32f0xx_ll_usb.c ****       }
 3908              		.loc 1 572 9 is_stmt 0 discriminator 25 view .LVU1188
 3909              	.LBE109:
 3910              	.LBE108:
 3911              	.LBE107:
 542:Drivers/STM32F0xx_HAL_Driver/Src/stm32f0xx_ll_usb.c **** 
 3912              		.loc 1 542 9 is_stmt 1 view .LVU1189
 542:Drivers/STM32F0xx_HAL_Driver/Src/stm32f0xx_ll_usb.c **** 
 3913              		.loc 1 542 9 view .LVU1190
 542:Drivers/STM32F0xx_HAL_Driver/Src/stm32f0xx_ll_usb.c **** 
 3914              		.loc 1 542 9 view .LVU1191
 3915 0588 002A     		cmp	r2, #0
 3916 058a 1AD1     		bne	.L164
 542:Drivers/STM32F0xx_HAL_Driver/Src/stm32f0xx_ll_usb.c **** 
 3917              		.loc 1 542 9 discriminator 1 view .LVU1192
 3918              	.LBB112:
ARM GAS  C:\Users\Daniel\AppData\Local\Temp\ccnluvCc.s 			page 96


 542:Drivers/STM32F0xx_HAL_Driver/Src/stm32f0xx_ll_usb.c **** 
 3919              		.loc 1 542 9 discriminator 1 view .LVU1193
 3920              	.LVL449:
 542:Drivers/STM32F0xx_HAL_Driver/Src/stm32f0xx_ll_usb.c **** 
 3921              		.loc 1 542 9 discriminator 1 view .LVU1194
 542:Drivers/STM32F0xx_HAL_Driver/Src/stm32f0xx_ll_usb.c **** 
 3922              		.loc 1 542 9 discriminator 1 view .LVU1195
 3923 058c 4E33     		adds	r3, r3, #78
 3924 058e C25A     		ldrh	r2, [r0, r3]
 3925 0590 8218     		adds	r2, r0, r2
 3926              	.LVL450:
 542:Drivers/STM32F0xx_HAL_Driver/Src/stm32f0xx_ll_usb.c **** 
 3927              		.loc 1 542 9 discriminator 1 view .LVU1196
 3928 0592 0B78     		ldrb	r3, [r1]
 3929 0594 DB00     		lsls	r3, r3, #3
 3930 0596 9B18     		adds	r3, r3, r2
 3931 0598 284A     		ldr	r2, .L222+8
 3932              	.LVL451:
 542:Drivers/STM32F0xx_HAL_Driver/Src/stm32f0xx_ll_usb.c **** 
 3933              		.loc 1 542 9 is_stmt 0 discriminator 1 view .LVU1197
 3934 059a 9918     		adds	r1, r3, r2
 3935              	.LVL452:
 542:Drivers/STM32F0xx_HAL_Driver/Src/stm32f0xx_ll_usb.c **** 
 3936              		.loc 1 542 9 is_stmt 1 discriminator 1 view .LVU1198
 3937              	.LBB113:
 542:Drivers/STM32F0xx_HAL_Driver/Src/stm32f0xx_ll_usb.c **** 
 3938              		.loc 1 542 9 discriminator 1 view .LVU1199
 542:Drivers/STM32F0xx_HAL_Driver/Src/stm32f0xx_ll_usb.c **** 
 3939              		.loc 1 542 9 discriminator 1 view .LVU1200
 3940 059c 0B88     		ldrh	r3, [r1]
 3941 059e 9B05     		lsls	r3, r3, #22
 3942 05a0 9B0D     		lsrs	r3, r3, #22
 3943 05a2 0B80     		strh	r3, [r1]
 542:Drivers/STM32F0xx_HAL_Driver/Src/stm32f0xx_ll_usb.c **** 
 3944              		.loc 1 542 9 discriminator 1 view .LVU1201
 3945 05a4 2269     		ldr	r2, [r4, #16]
 3946 05a6 3E2A     		cmp	r2, #62
 3947 05a8 2AD9     		bls	.L165
 542:Drivers/STM32F0xx_HAL_Driver/Src/stm32f0xx_ll_usb.c **** 
 3948              		.loc 1 542 9 discriminator 3 view .LVU1202
 542:Drivers/STM32F0xx_HAL_Driver/Src/stm32f0xx_ll_usb.c **** 
 3949              		.loc 1 542 9 discriminator 3 view .LVU1203
 3950 05aa 5309     		lsrs	r3, r2, #5
 3951              	.LVL453:
 542:Drivers/STM32F0xx_HAL_Driver/Src/stm32f0xx_ll_usb.c **** 
 3952              		.loc 1 542 9 discriminator 3 view .LVU1204
 3953 05ac D206     		lsls	r2, r2, #27
 3954 05ae 00D1     		bne	.L166
 542:Drivers/STM32F0xx_HAL_Driver/Src/stm32f0xx_ll_usb.c **** 
 3955              		.loc 1 542 9 discriminator 5 view .LVU1205
 3956 05b0 013B     		subs	r3, r3, #1
 3957              	.LVL454:
 3958              	.L166:
 542:Drivers/STM32F0xx_HAL_Driver/Src/stm32f0xx_ll_usb.c **** 
 3959              		.loc 1 542 9 discriminator 7 view .LVU1206
 3960 05b2 0A88     		ldrh	r2, [r1]
 3961 05b4 9B02     		lsls	r3, r3, #10
ARM GAS  C:\Users\Daniel\AppData\Local\Temp\ccnluvCc.s 			page 97


 3962              	.LVL455:
 542:Drivers/STM32F0xx_HAL_Driver/Src/stm32f0xx_ll_usb.c **** 
 3963              		.loc 1 542 9 is_stmt 0 discriminator 7 view .LVU1207
 3964 05b6 9BB2     		uxth	r3, r3
 3965 05b8 1A43     		orrs	r2, r3
 3966 05ba 1F4B     		ldr	r3, .L222+4
 3967 05bc 1343     		orrs	r3, r2
 3968 05be 9BB2     		uxth	r3, r3
 3969 05c0 0B80     		strh	r3, [r1]
 542:Drivers/STM32F0xx_HAL_Driver/Src/stm32f0xx_ll_usb.c **** 
 3970              		.loc 1 542 9 is_stmt 1 discriminator 7 view .LVU1208
 3971              	.LVL456:
 3972              	.L164:
 542:Drivers/STM32F0xx_HAL_Driver/Src/stm32f0xx_ll_usb.c **** 
 3973              		.loc 1 542 9 is_stmt 0 discriminator 7 view .LVU1209
 3974              	.LBE113:
 3975              	.LBE112:
 542:Drivers/STM32F0xx_HAL_Driver/Src/stm32f0xx_ll_usb.c **** 
 3976              		.loc 1 542 9 is_stmt 1 discriminator 18 view .LVU1210
 542:Drivers/STM32F0xx_HAL_Driver/Src/stm32f0xx_ll_usb.c **** 
 3977              		.loc 1 542 9 discriminator 18 view .LVU1211
 542:Drivers/STM32F0xx_HAL_Driver/Src/stm32f0xx_ll_usb.c **** 
 3978              		.loc 1 542 9 discriminator 18 view .LVU1212
 3979              	.LBB115:
 542:Drivers/STM32F0xx_HAL_Driver/Src/stm32f0xx_ll_usb.c **** 
 3980              		.loc 1 542 9 discriminator 18 view .LVU1213
 542:Drivers/STM32F0xx_HAL_Driver/Src/stm32f0xx_ll_usb.c **** 
 3981              		.loc 1 542 9 discriminator 18 view .LVU1214
 542:Drivers/STM32F0xx_HAL_Driver/Src/stm32f0xx_ll_usb.c **** 
 3982              		.loc 1 542 9 discriminator 18 view .LVU1215
 3983 05c2 6378     		ldrb	r3, [r4, #1]
 3984 05c4 002B     		cmp	r3, #0
 3985 05c6 49D1     		bne	.L169
 542:Drivers/STM32F0xx_HAL_Driver/Src/stm32f0xx_ll_usb.c **** 
 3986              		.loc 1 542 9 discriminator 19 view .LVU1216
 3987              	.LBB116:
 542:Drivers/STM32F0xx_HAL_Driver/Src/stm32f0xx_ll_usb.c **** 
 3988              		.loc 1 542 9 discriminator 19 view .LVU1217
 3989              	.LVL457:
 542:Drivers/STM32F0xx_HAL_Driver/Src/stm32f0xx_ll_usb.c **** 
 3990              		.loc 1 542 9 discriminator 19 view .LVU1218
 542:Drivers/STM32F0xx_HAL_Driver/Src/stm32f0xx_ll_usb.c **** 
 3991              		.loc 1 542 9 discriminator 19 view .LVU1219
 3992 05c8 5033     		adds	r3, r3, #80
 3993 05ca EA5A     		ldrh	r2, [r5, r3]
 3994 05cc AA18     		adds	r2, r5, r2
 3995              	.LVL458:
 542:Drivers/STM32F0xx_HAL_Driver/Src/stm32f0xx_ll_usb.c **** 
 3996              		.loc 1 542 9 discriminator 19 view .LVU1220
 3997 05ce 2378     		ldrb	r3, [r4]
 3998 05d0 DB00     		lsls	r3, r3, #3
 3999 05d2 9B18     		adds	r3, r3, r2
 4000 05d4 174A     		ldr	r2, .L222
 4001              	.LVL459:
 542:Drivers/STM32F0xx_HAL_Driver/Src/stm32f0xx_ll_usb.c **** 
 4002              		.loc 1 542 9 is_stmt 0 discriminator 19 view .LVU1221
 4003 05d6 9918     		adds	r1, r3, r2
ARM GAS  C:\Users\Daniel\AppData\Local\Temp\ccnluvCc.s 			page 98


 4004              	.LVL460:
 542:Drivers/STM32F0xx_HAL_Driver/Src/stm32f0xx_ll_usb.c **** 
 4005              		.loc 1 542 9 is_stmt 1 discriminator 19 view .LVU1222
 4006              	.LBB117:
 542:Drivers/STM32F0xx_HAL_Driver/Src/stm32f0xx_ll_usb.c **** 
 4007              		.loc 1 542 9 discriminator 19 view .LVU1223
 542:Drivers/STM32F0xx_HAL_Driver/Src/stm32f0xx_ll_usb.c **** 
 4008              		.loc 1 542 9 discriminator 19 view .LVU1224
 4009 05d8 0B88     		ldrh	r3, [r1]
 4010 05da 9B05     		lsls	r3, r3, #22
 4011 05dc 9B0D     		lsrs	r3, r3, #22
 4012 05de 0B80     		strh	r3, [r1]
 542:Drivers/STM32F0xx_HAL_Driver/Src/stm32f0xx_ll_usb.c **** 
 4013              		.loc 1 542 9 discriminator 19 view .LVU1225
 4014 05e0 2269     		ldr	r2, [r4, #16]
 4015 05e2 3E2A     		cmp	r2, #62
 4016 05e4 1ED9     		bls	.L170
 542:Drivers/STM32F0xx_HAL_Driver/Src/stm32f0xx_ll_usb.c **** 
 4017              		.loc 1 542 9 discriminator 21 view .LVU1226
 542:Drivers/STM32F0xx_HAL_Driver/Src/stm32f0xx_ll_usb.c **** 
 4018              		.loc 1 542 9 discriminator 21 view .LVU1227
 4019 05e6 5309     		lsrs	r3, r2, #5
 4020              	.LVL461:
 542:Drivers/STM32F0xx_HAL_Driver/Src/stm32f0xx_ll_usb.c **** 
 4021              		.loc 1 542 9 discriminator 21 view .LVU1228
 4022 05e8 D206     		lsls	r2, r2, #27
 4023 05ea 00D1     		bne	.L171
 542:Drivers/STM32F0xx_HAL_Driver/Src/stm32f0xx_ll_usb.c **** 
 4024              		.loc 1 542 9 discriminator 23 view .LVU1229
 4025 05ec 013B     		subs	r3, r3, #1
 4026              	.LVL462:
 4027              	.L171:
 542:Drivers/STM32F0xx_HAL_Driver/Src/stm32f0xx_ll_usb.c **** 
 4028              		.loc 1 542 9 discriminator 25 view .LVU1230
 4029 05ee 0A88     		ldrh	r2, [r1]
 4030 05f0 9B02     		lsls	r3, r3, #10
 4031              	.LVL463:
 542:Drivers/STM32F0xx_HAL_Driver/Src/stm32f0xx_ll_usb.c **** 
 4032              		.loc 1 542 9 is_stmt 0 discriminator 25 view .LVU1231
 4033 05f2 9BB2     		uxth	r3, r3
 4034 05f4 1A43     		orrs	r2, r3
 4035 05f6 104B     		ldr	r3, .L222+4
 4036 05f8 1343     		orrs	r3, r2
 4037 05fa 9BB2     		uxth	r3, r3
 4038 05fc 0B80     		strh	r3, [r1]
 542:Drivers/STM32F0xx_HAL_Driver/Src/stm32f0xx_ll_usb.c **** 
 4039              		.loc 1 542 9 is_stmt 1 discriminator 25 view .LVU1232
 4040 05fe 2FE0     		b	.L172
 4041              	.LVL464:
 4042              	.L165:
 542:Drivers/STM32F0xx_HAL_Driver/Src/stm32f0xx_ll_usb.c **** 
 4043              		.loc 1 542 9 is_stmt 0 discriminator 25 view .LVU1233
 4044              	.LBE117:
 4045              	.LBE116:
 4046              	.LBE115:
 4047              	.LBB120:
 4048              	.LBB114:
ARM GAS  C:\Users\Daniel\AppData\Local\Temp\ccnluvCc.s 			page 99


 542:Drivers/STM32F0xx_HAL_Driver/Src/stm32f0xx_ll_usb.c **** 
 4049              		.loc 1 542 9 is_stmt 1 discriminator 4 view .LVU1234
 4050 0600 002A     		cmp	r2, #0
 4051 0602 05D1     		bne	.L167
 542:Drivers/STM32F0xx_HAL_Driver/Src/stm32f0xx_ll_usb.c **** 
 4052              		.loc 1 542 9 discriminator 9 view .LVU1235
 4053 0604 0B88     		ldrh	r3, [r1]
 4054 0606 0C4A     		ldr	r2, .L222+4
 4055 0608 1343     		orrs	r3, r2
 4056 060a 9BB2     		uxth	r3, r3
 4057 060c 0B80     		strh	r3, [r1]
 4058 060e D8E7     		b	.L164
 4059              	.L167:
 542:Drivers/STM32F0xx_HAL_Driver/Src/stm32f0xx_ll_usb.c **** 
 4060              		.loc 1 542 9 discriminator 10 view .LVU1236
 542:Drivers/STM32F0xx_HAL_Driver/Src/stm32f0xx_ll_usb.c **** 
 4061              		.loc 1 542 9 discriminator 10 view .LVU1237
 4062 0610 5308     		lsrs	r3, r2, #1
 4063              	.LVL465:
 542:Drivers/STM32F0xx_HAL_Driver/Src/stm32f0xx_ll_usb.c **** 
 4064              		.loc 1 542 9 discriminator 10 view .LVU1238
 4065 0612 D207     		lsls	r2, r2, #31
 4066 0614 00D5     		bpl	.L168
 542:Drivers/STM32F0xx_HAL_Driver/Src/stm32f0xx_ll_usb.c **** 
 4067              		.loc 1 542 9 discriminator 12 view .LVU1239
 4068 0616 0133     		adds	r3, r3, #1
 4069              	.LVL466:
 4070              	.L168:
 542:Drivers/STM32F0xx_HAL_Driver/Src/stm32f0xx_ll_usb.c **** 
 4071              		.loc 1 542 9 discriminator 14 view .LVU1240
 4072 0618 0A88     		ldrh	r2, [r1]
 4073 061a 9B02     		lsls	r3, r3, #10
 4074              	.LVL467:
 542:Drivers/STM32F0xx_HAL_Driver/Src/stm32f0xx_ll_usb.c **** 
 4075              		.loc 1 542 9 is_stmt 0 discriminator 14 view .LVU1241
 4076 061c 9BB2     		uxth	r3, r3
 4077 061e 1343     		orrs	r3, r2
 4078 0620 0B80     		strh	r3, [r1]
 4079 0622 CEE7     		b	.L164
 4080              	.LVL468:
 4081              	.L170:
 542:Drivers/STM32F0xx_HAL_Driver/Src/stm32f0xx_ll_usb.c **** 
 4082              		.loc 1 542 9 discriminator 14 view .LVU1242
 4083              	.LBE114:
 4084              	.LBE120:
 4085              	.LBB121:
 4086              	.LBB119:
 4087              	.LBB118:
 542:Drivers/STM32F0xx_HAL_Driver/Src/stm32f0xx_ll_usb.c **** 
 4088              		.loc 1 542 9 is_stmt 1 discriminator 22 view .LVU1243
 4089 0624 002A     		cmp	r2, #0
 4090 0626 0FD1     		bne	.L173
 542:Drivers/STM32F0xx_HAL_Driver/Src/stm32f0xx_ll_usb.c **** 
 4091              		.loc 1 542 9 discriminator 27 view .LVU1244
 4092 0628 0B88     		ldrh	r3, [r1]
 4093 062a 034A     		ldr	r2, .L222+4
 4094 062c 1343     		orrs	r3, r2
ARM GAS  C:\Users\Daniel\AppData\Local\Temp\ccnluvCc.s 			page 100


 4095 062e 9BB2     		uxth	r3, r3
 4096 0630 0B80     		strh	r3, [r1]
 4097 0632 15E0     		b	.L172
 4098              	.L223:
 4099              		.align	2
 4100              	.L222:
 4101 0634 06040000 		.word	1030
 4102 0638 0080FFFF 		.word	-32768
 4103 063c 02040000 		.word	1026
 4104 0640 8F8EFFFF 		.word	-29041
 4105 0644 8080FFFF 		.word	-32640
 4106              	.L173:
 542:Drivers/STM32F0xx_HAL_Driver/Src/stm32f0xx_ll_usb.c **** 
 4107              		.loc 1 542 9 discriminator 28 view .LVU1245
 542:Drivers/STM32F0xx_HAL_Driver/Src/stm32f0xx_ll_usb.c **** 
 4108              		.loc 1 542 9 discriminator 28 view .LVU1246
 4109 0648 5308     		lsrs	r3, r2, #1
 4110              	.LVL469:
 542:Drivers/STM32F0xx_HAL_Driver/Src/stm32f0xx_ll_usb.c **** 
 4111              		.loc 1 542 9 discriminator 28 view .LVU1247
 4112 064a D207     		lsls	r2, r2, #31
 4113 064c 00D5     		bpl	.L174
 542:Drivers/STM32F0xx_HAL_Driver/Src/stm32f0xx_ll_usb.c **** 
 4114              		.loc 1 542 9 discriminator 30 view .LVU1248
 4115 064e 0133     		adds	r3, r3, #1
 4116              	.LVL470:
 4117              	.L174:
 542:Drivers/STM32F0xx_HAL_Driver/Src/stm32f0xx_ll_usb.c **** 
 4118              		.loc 1 542 9 discriminator 32 view .LVU1249
 4119 0650 0A88     		ldrh	r2, [r1]
 4120 0652 9B02     		lsls	r3, r3, #10
 4121              	.LVL471:
 542:Drivers/STM32F0xx_HAL_Driver/Src/stm32f0xx_ll_usb.c **** 
 4122              		.loc 1 542 9 is_stmt 0 discriminator 32 view .LVU1250
 4123 0654 9BB2     		uxth	r3, r3
 4124 0656 1343     		orrs	r3, r2
 4125 0658 0B80     		strh	r3, [r1]
 4126 065a 01E0     		b	.L172
 4127              	.LVL472:
 4128              	.L169:
 542:Drivers/STM32F0xx_HAL_Driver/Src/stm32f0xx_ll_usb.c **** 
 4129              		.loc 1 542 9 discriminator 32 view .LVU1251
 4130              	.LBE118:
 4131              	.LBE119:
 542:Drivers/STM32F0xx_HAL_Driver/Src/stm32f0xx_ll_usb.c **** 
 4132              		.loc 1 542 9 is_stmt 1 discriminator 20 view .LVU1252
 4133 065c 012B     		cmp	r3, #1
 4134 065e 16D0     		beq	.L219
 4135              	.LVL473:
 4136              	.L172:
 542:Drivers/STM32F0xx_HAL_Driver/Src/stm32f0xx_ll_usb.c **** 
 4137              		.loc 1 542 9 is_stmt 0 discriminator 20 view .LVU1253
 4138              	.LBE121:
 542:Drivers/STM32F0xx_HAL_Driver/Src/stm32f0xx_ll_usb.c **** 
 4139              		.loc 1 542 9 is_stmt 1 discriminator 36 view .LVU1254
 542:Drivers/STM32F0xx_HAL_Driver/Src/stm32f0xx_ll_usb.c **** 
 4140              		.loc 1 542 9 discriminator 36 view .LVU1255
ARM GAS  C:\Users\Daniel\AppData\Local\Temp\ccnluvCc.s 			page 101


 545:Drivers/STM32F0xx_HAL_Driver/Src/stm32f0xx_ll_usb.c ****         {
 4141              		.loc 1 545 9 discriminator 36 view .LVU1256
 545:Drivers/STM32F0xx_HAL_Driver/Src/stm32f0xx_ll_usb.c ****         {
 4142              		.loc 1 545 15 is_stmt 0 discriminator 36 view .LVU1257
 4143 0660 E369     		ldr	r3, [r4, #28]
 545:Drivers/STM32F0xx_HAL_Driver/Src/stm32f0xx_ll_usb.c ****         {
 4144              		.loc 1 545 12 discriminator 36 view .LVU1258
 4145 0662 002B     		cmp	r3, #0
 4146 0664 00D1     		bne	.LCB4557
 4147 0666 F8E4     		b	.L160	@long jump
 4148              	.LCB4557:
 548:Drivers/STM32F0xx_HAL_Driver/Src/stm32f0xx_ll_usb.c **** 
 4149              		.loc 1 548 11 is_stmt 1 view .LVU1259
 548:Drivers/STM32F0xx_HAL_Driver/Src/stm32f0xx_ll_usb.c **** 
 4150              		.loc 1 548 20 is_stmt 0 view .LVU1260
 4151 0668 2378     		ldrb	r3, [r4]
 4152 066a 9B00     		lsls	r3, r3, #2
 4153 066c EB18     		adds	r3, r5, r3
 548:Drivers/STM32F0xx_HAL_Driver/Src/stm32f0xx_ll_usb.c **** 
 4154              		.loc 1 548 18 view .LVU1261
 4155 066e 1A88     		ldrh	r2, [r3]
 4156              	.LVL474:
 551:Drivers/STM32F0xx_HAL_Driver/Src/stm32f0xx_ll_usb.c ****               (((wEPVal & USB_EP_DTOG_RX) == 0U) && ((wEPVal & USB_EP_DTOG_TX) == 0U)))
 4157              		.loc 1 551 11 is_stmt 1 view .LVU1262
 4158 0670 2949     		ldr	r1, .L224
 4159 0672 0A40     		ands	r2, r1
 4160              	.LVL475:
 551:Drivers/STM32F0xx_HAL_Driver/Src/stm32f0xx_ll_usb.c ****               (((wEPVal & USB_EP_DTOG_RX) == 0U) && ((wEPVal & USB_EP_DTOG_TX) == 0U)))
 4161              		.loc 1 551 14 is_stmt 0 view .LVU1263
 4162 0674 8A42     		cmp	r2, r1
 4163 0676 02D0     		beq	.L175
 551:Drivers/STM32F0xx_HAL_Driver/Src/stm32f0xx_ll_usb.c ****               (((wEPVal & USB_EP_DTOG_RX) == 0U) && ((wEPVal & USB_EP_DTOG_TX) == 0U)))
 4164              		.loc 1 551 88 discriminator 1 view .LVU1264
 4165 0678 002A     		cmp	r2, #0
 4166 067a 00D0     		beq	.LCB4573
 4167 067c EDE4     		b	.L160	@long jump
 4168              	.LCB4573:
 4169              	.L175:
 554:Drivers/STM32F0xx_HAL_Driver/Src/stm32f0xx_ll_usb.c ****           }
 4170              		.loc 1 554 13 is_stmt 1 discriminator 1 view .LVU1265
 554:Drivers/STM32F0xx_HAL_Driver/Src/stm32f0xx_ll_usb.c ****           }
 4171              		.loc 1 554 13 discriminator 1 view .LVU1266
 554:Drivers/STM32F0xx_HAL_Driver/Src/stm32f0xx_ll_usb.c ****           }
 4172              		.loc 1 554 13 discriminator 1 view .LVU1267
 4173              	.LBB122:
 554:Drivers/STM32F0xx_HAL_Driver/Src/stm32f0xx_ll_usb.c ****           }
 4174              		.loc 1 554 13 discriminator 1 view .LVU1268
 554:Drivers/STM32F0xx_HAL_Driver/Src/stm32f0xx_ll_usb.c ****           }
 4175              		.loc 1 554 13 discriminator 1 view .LVU1269
 4176 067e 1988     		ldrh	r1, [r3]
 4177 0680 264A     		ldr	r2, .L224+4
 4178 0682 1140     		ands	r1, r2
 4179              	.LVL476:
 554:Drivers/STM32F0xx_HAL_Driver/Src/stm32f0xx_ll_usb.c ****           }
 4180              		.loc 1 554 13 discriminator 1 view .LVU1270
 4181 0684 264A     		ldr	r2, .L224+8
 4182 0686 0A43     		orrs	r2, r1
ARM GAS  C:\Users\Daniel\AppData\Local\Temp\ccnluvCc.s 			page 102


 4183 0688 92B2     		uxth	r2, r2
 4184 068a 1A80     		strh	r2, [r3]
 4185              	.LBE122:
 554:Drivers/STM32F0xx_HAL_Driver/Src/stm32f0xx_ll_usb.c ****           }
 4186              		.loc 1 554 13 discriminator 1 view .LVU1271
 4187 068c E5E4     		b	.L160
 4188              	.LVL477:
 4189              	.L219:
 4190              	.LBB123:
 542:Drivers/STM32F0xx_HAL_Driver/Src/stm32f0xx_ll_usb.c **** 
 4191              		.loc 1 542 9 discriminator 34 view .LVU1272
 4192 068e 4F33     		adds	r3, r3, #79
 4193 0690 EA5A     		ldrh	r2, [r5, r3]
 4194 0692 AA18     		adds	r2, r5, r2
 4195              	.LVL478:
 542:Drivers/STM32F0xx_HAL_Driver/Src/stm32f0xx_ll_usb.c **** 
 4196              		.loc 1 542 9 discriminator 34 view .LVU1273
 4197 0694 2378     		ldrb	r3, [r4]
 4198 0696 DB00     		lsls	r3, r3, #3
 4199 0698 9B18     		adds	r3, r3, r2
 4200 069a 224A     		ldr	r2, .L224+12
 4201              	.LVL479:
 542:Drivers/STM32F0xx_HAL_Driver/Src/stm32f0xx_ll_usb.c **** 
 4202              		.loc 1 542 9 is_stmt 0 discriminator 34 view .LVU1274
 4203 069c 9446     		mov	ip, r2
 4204 069e 6344     		add	r3, r3, ip
 4205              	.LVL480:
 542:Drivers/STM32F0xx_HAL_Driver/Src/stm32f0xx_ll_usb.c **** 
 4206              		.loc 1 542 9 is_stmt 1 discriminator 34 view .LVU1275
 4207 06a0 228A     		ldrh	r2, [r4, #16]
 4208 06a2 1A80     		strh	r2, [r3]
 4209 06a4 DCE7     		b	.L172
 4210              	.LVL481:
 4211              	.L176:
 542:Drivers/STM32F0xx_HAL_Driver/Src/stm32f0xx_ll_usb.c **** 
 4212              		.loc 1 542 9 is_stmt 0 discriminator 34 view .LVU1276
 4213              	.LBE123:
 569:Drivers/STM32F0xx_HAL_Driver/Src/stm32f0xx_ll_usb.c ****           ep->xfer_len = 0U;
 4214              		.loc 1 569 11 is_stmt 1 view .LVU1277
 570:Drivers/STM32F0xx_HAL_Driver/Src/stm32f0xx_ll_usb.c ****         }
 4215              		.loc 1 570 11 view .LVU1278
 570:Drivers/STM32F0xx_HAL_Driver/Src/stm32f0xx_ll_usb.c ****         }
 4216              		.loc 1 570 24 is_stmt 0 view .LVU1279
 4217 06a6 0023     		movs	r3, #0
 4218 06a8 A361     		str	r3, [r4, #24]
 569:Drivers/STM32F0xx_HAL_Driver/Src/stm32f0xx_ll_usb.c ****           ep->xfer_len = 0U;
 4219              		.loc 1 569 15 view .LVU1280
 4220 06aa 0B00     		movs	r3, r1
 4221 06ac 2DE7     		b	.L177
 4222              	.LVL482:
 4223              	.L179:
 4224              	.LBB124:
 4225              	.LBB106:
 572:Drivers/STM32F0xx_HAL_Driver/Src/stm32f0xx_ll_usb.c ****       }
 4226              		.loc 1 572 9 is_stmt 1 discriminator 4 view .LVU1281
 4227 06ae 002B     		cmp	r3, #0
 4228 06b0 05D1     		bne	.L181
ARM GAS  C:\Users\Daniel\AppData\Local\Temp\ccnluvCc.s 			page 103


 572:Drivers/STM32F0xx_HAL_Driver/Src/stm32f0xx_ll_usb.c ****       }
 4229              		.loc 1 572 9 discriminator 9 view .LVU1282
 4230 06b2 1188     		ldrh	r1, [r2]
 4231 06b4 1C48     		ldr	r0, .L224+16
 4232              	.LVL483:
 572:Drivers/STM32F0xx_HAL_Driver/Src/stm32f0xx_ll_usb.c ****       }
 4233              		.loc 1 572 9 is_stmt 0 discriminator 9 view .LVU1283
 4234 06b6 0143     		orrs	r1, r0
 4235 06b8 89B2     		uxth	r1, r1
 4236 06ba 1180     		strh	r1, [r2]
 4237 06bc 43E7     		b	.L178
 4238              	.LVL484:
 4239              	.L181:
 572:Drivers/STM32F0xx_HAL_Driver/Src/stm32f0xx_ll_usb.c ****       }
 4240              		.loc 1 572 9 is_stmt 1 discriminator 10 view .LVU1284
 572:Drivers/STM32F0xx_HAL_Driver/Src/stm32f0xx_ll_usb.c ****       }
 4241              		.loc 1 572 9 discriminator 10 view .LVU1285
 4242 06be 5908     		lsrs	r1, r3, #1
 4243              	.LVL485:
 572:Drivers/STM32F0xx_HAL_Driver/Src/stm32f0xx_ll_usb.c ****       }
 4244              		.loc 1 572 9 discriminator 10 view .LVU1286
 4245 06c0 D807     		lsls	r0, r3, #31
 4246 06c2 00D5     		bpl	.L182
 4247              	.LVL486:
 572:Drivers/STM32F0xx_HAL_Driver/Src/stm32f0xx_ll_usb.c ****       }
 4248              		.loc 1 572 9 discriminator 12 view .LVU1287
 4249 06c4 0131     		adds	r1, r1, #1
 4250              	.LVL487:
 4251              	.L182:
 572:Drivers/STM32F0xx_HAL_Driver/Src/stm32f0xx_ll_usb.c ****       }
 4252              		.loc 1 572 9 discriminator 14 view .LVU1288
 4253 06c6 1088     		ldrh	r0, [r2]
 4254 06c8 8902     		lsls	r1, r1, #10
 4255              	.LVL488:
 572:Drivers/STM32F0xx_HAL_Driver/Src/stm32f0xx_ll_usb.c ****       }
 4256              		.loc 1 572 9 is_stmt 0 discriminator 14 view .LVU1289
 4257 06ca 89B2     		uxth	r1, r1
 4258 06cc 0143     		orrs	r1, r0
 4259 06ce 1180     		strh	r1, [r2]
 4260 06d0 39E7     		b	.L178
 4261              	.LVL489:
 4262              	.L184:
 572:Drivers/STM32F0xx_HAL_Driver/Src/stm32f0xx_ll_usb.c ****       }
 4263              		.loc 1 572 9 discriminator 14 view .LVU1290
 4264              	.LBE106:
 4265              	.LBE124:
 4266              	.LBB125:
 4267              	.LBB111:
 4268              	.LBB110:
 572:Drivers/STM32F0xx_HAL_Driver/Src/stm32f0xx_ll_usb.c ****       }
 4269              		.loc 1 572 9 is_stmt 1 discriminator 22 view .LVU1291
 4270 06d2 002B     		cmp	r3, #0
 4271 06d4 05D1     		bne	.L186
 572:Drivers/STM32F0xx_HAL_Driver/Src/stm32f0xx_ll_usb.c ****       }
 4272              		.loc 1 572 9 discriminator 27 view .LVU1292
 4273 06d6 1388     		ldrh	r3, [r2]
 4274              	.LVL490:
ARM GAS  C:\Users\Daniel\AppData\Local\Temp\ccnluvCc.s 			page 104


 572:Drivers/STM32F0xx_HAL_Driver/Src/stm32f0xx_ll_usb.c ****       }
 4275              		.loc 1 572 9 is_stmt 0 discriminator 27 view .LVU1293
 4276 06d8 1349     		ldr	r1, .L224+16
 4277 06da 0B43     		orrs	r3, r1
 4278 06dc 9BB2     		uxth	r3, r3
 4279 06de 1380     		strh	r3, [r2]
 4280 06e0 BBE4     		b	.L160
 4281              	.LVL491:
 4282              	.L186:
 572:Drivers/STM32F0xx_HAL_Driver/Src/stm32f0xx_ll_usb.c ****       }
 4283              		.loc 1 572 9 is_stmt 1 discriminator 28 view .LVU1294
 572:Drivers/STM32F0xx_HAL_Driver/Src/stm32f0xx_ll_usb.c ****       }
 4284              		.loc 1 572 9 discriminator 28 view .LVU1295
 4285 06e2 5908     		lsrs	r1, r3, #1
 4286              	.LVL492:
 572:Drivers/STM32F0xx_HAL_Driver/Src/stm32f0xx_ll_usb.c ****       }
 4287              		.loc 1 572 9 discriminator 28 view .LVU1296
 4288 06e4 DB07     		lsls	r3, r3, #31
 4289 06e6 00D5     		bpl	.L187
 4290              	.LVL493:
 572:Drivers/STM32F0xx_HAL_Driver/Src/stm32f0xx_ll_usb.c ****       }
 4291              		.loc 1 572 9 discriminator 30 view .LVU1297
 4292 06e8 0131     		adds	r1, r1, #1
 4293              	.LVL494:
 4294              	.L187:
 572:Drivers/STM32F0xx_HAL_Driver/Src/stm32f0xx_ll_usb.c ****       }
 4295              		.loc 1 572 9 discriminator 32 view .LVU1298
 4296 06ea 1388     		ldrh	r3, [r2]
 4297 06ec 8902     		lsls	r1, r1, #10
 4298              	.LVL495:
 572:Drivers/STM32F0xx_HAL_Driver/Src/stm32f0xx_ll_usb.c ****       }
 4299              		.loc 1 572 9 is_stmt 0 discriminator 32 view .LVU1299
 4300 06ee 89B2     		uxth	r1, r1
 4301 06f0 0B43     		orrs	r3, r1
 4302 06f2 1380     		strh	r3, [r2]
 4303 06f4 B1E4     		b	.L160
 4304              	.LVL496:
 4305              	.L183:
 572:Drivers/STM32F0xx_HAL_Driver/Src/stm32f0xx_ll_usb.c ****       }
 4306              		.loc 1 572 9 discriminator 32 view .LVU1300
 4307              	.LBE110:
 4308              	.LBE111:
 572:Drivers/STM32F0xx_HAL_Driver/Src/stm32f0xx_ll_usb.c ****       }
 4309              		.loc 1 572 9 is_stmt 1 discriminator 20 view .LVU1301
 4310 06f6 012A     		cmp	r2, #1
 4311 06f8 00D0     		beq	.LCB4771
 4312 06fa AEE4     		b	.L160	@long jump
 4313              	.LCB4771:
 572:Drivers/STM32F0xx_HAL_Driver/Src/stm32f0xx_ll_usb.c ****       }
 4314              		.loc 1 572 9 discriminator 34 view .LVU1302
 4315 06fc 4F32     		adds	r2, r2, #79
 4316 06fe A95A     		ldrh	r1, [r5, r2]
 4317 0700 6918     		adds	r1, r5, r1
 4318              	.LVL497:
 572:Drivers/STM32F0xx_HAL_Driver/Src/stm32f0xx_ll_usb.c ****       }
 4319              		.loc 1 572 9 discriminator 34 view .LVU1303
 4320 0702 2278     		ldrb	r2, [r4]
ARM GAS  C:\Users\Daniel\AppData\Local\Temp\ccnluvCc.s 			page 105


 4321 0704 D200     		lsls	r2, r2, #3
 4322 0706 5218     		adds	r2, r2, r1
 4323 0708 0649     		ldr	r1, .L224+12
 4324              	.LVL498:
 572:Drivers/STM32F0xx_HAL_Driver/Src/stm32f0xx_ll_usb.c ****       }
 4325              		.loc 1 572 9 is_stmt 0 discriminator 34 view .LVU1304
 4326 070a 8C46     		mov	ip, r1
 4327 070c 6244     		add	r2, r2, ip
 4328              	.LVL499:
 572:Drivers/STM32F0xx_HAL_Driver/Src/stm32f0xx_ll_usb.c ****       }
 4329              		.loc 1 572 9 is_stmt 1 discriminator 34 view .LVU1305
 4330 070e 9BB2     		uxth	r3, r3
 4331              	.LVL500:
 572:Drivers/STM32F0xx_HAL_Driver/Src/stm32f0xx_ll_usb.c ****       }
 4332              		.loc 1 572 9 is_stmt 0 discriminator 34 view .LVU1306
 4333 0710 1380     		strh	r3, [r2]
 4334 0712 A2E4     		b	.L160
 4335              	.LVL501:
 4336              	.L188:
 572:Drivers/STM32F0xx_HAL_Driver/Src/stm32f0xx_ll_usb.c ****       }
 4337              		.loc 1 572 9 discriminator 34 view .LVU1307
 4338              	.LBE125:
 576:Drivers/STM32F0xx_HAL_Driver/Src/stm32f0xx_ll_usb.c ****       }
 4339              		.loc 1 576 16 view .LVU1308
 4340 0714 0120     		movs	r0, #1
 4341              	.LVL502:
 576:Drivers/STM32F0xx_HAL_Driver/Src/stm32f0xx_ll_usb.c ****       }
 4342              		.loc 1 576 16 view .LVU1309
 4343 0716 AEE4     		b	.L154
 4344              	.L225:
 4345              		.align	2
 4346              	.L224:
 4347 0718 40400000 		.word	16448
 4348 071c 8F8FFFFF 		.word	-28785
 4349 0720 C080FFFF 		.word	-32576
 4350 0724 06040000 		.word	1030
 4351 0728 0080FFFF 		.word	-32768
 4352              		.cfi_endproc
 4353              	.LFE47:
 4355              		.section	.text.USB_ReadPMA,"ax",%progbits
 4356              		.align	1
 4357              		.global	USB_ReadPMA
 4358              		.syntax unified
 4359              		.code	16
 4360              		.thumb_func
 4362              	USB_ReadPMA:
 4363              	.LVL503:
 4364              	.LFB59:
 820:Drivers/STM32F0xx_HAL_Driver/Src/stm32f0xx_ll_usb.c **** 
 821:Drivers/STM32F0xx_HAL_Driver/Src/stm32f0xx_ll_usb.c **** /**
 822:Drivers/STM32F0xx_HAL_Driver/Src/stm32f0xx_ll_usb.c ****   * @brief Copy data from packet memory area (PMA) to user memory buffer
 823:Drivers/STM32F0xx_HAL_Driver/Src/stm32f0xx_ll_usb.c ****   * @param   USBx USB peripheral instance register address.
 824:Drivers/STM32F0xx_HAL_Driver/Src/stm32f0xx_ll_usb.c ****   * @param   pbUsrBuf pointer to user memory area.
 825:Drivers/STM32F0xx_HAL_Driver/Src/stm32f0xx_ll_usb.c ****   * @param   wPMABufAddr address into PMA.
 826:Drivers/STM32F0xx_HAL_Driver/Src/stm32f0xx_ll_usb.c ****   * @param   wNBytes no. of bytes to be copied.
 827:Drivers/STM32F0xx_HAL_Driver/Src/stm32f0xx_ll_usb.c ****   * @retval None
 828:Drivers/STM32F0xx_HAL_Driver/Src/stm32f0xx_ll_usb.c ****   */
ARM GAS  C:\Users\Daniel\AppData\Local\Temp\ccnluvCc.s 			page 106


 829:Drivers/STM32F0xx_HAL_Driver/Src/stm32f0xx_ll_usb.c **** void USB_ReadPMA(USB_TypeDef *USBx, uint8_t *pbUsrBuf, uint16_t wPMABufAddr, uint16_t wNBytes)
 830:Drivers/STM32F0xx_HAL_Driver/Src/stm32f0xx_ll_usb.c **** {
 4365              		.loc 1 830 1 is_stmt 1 view -0
 4366              		.cfi_startproc
 4367              		@ args = 0, pretend = 0, frame = 0
 4368              		@ frame_needed = 0, uses_anonymous_args = 0
 4369              		.loc 1 830 1 is_stmt 0 view .LVU1311
 4370 0000 10B5     		push	{r4, lr}
 4371              		.cfi_def_cfa_offset 8
 4372              		.cfi_offset 4, -8
 4373              		.cfi_offset 14, -4
 831:Drivers/STM32F0xx_HAL_Driver/Src/stm32f0xx_ll_usb.c ****   uint32_t n = (uint32_t)wNBytes >> 1;
 4374              		.loc 1 831 3 is_stmt 1 view .LVU1312
 4375              		.loc 1 831 34 is_stmt 0 view .LVU1313
 4376 0002 5C08     		lsrs	r4, r3, #1
 4377              	.LVL504:
 832:Drivers/STM32F0xx_HAL_Driver/Src/stm32f0xx_ll_usb.c ****   uint32_t BaseAddr = (uint32_t)USBx;
 4378              		.loc 1 832 3 is_stmt 1 view .LVU1314
 833:Drivers/STM32F0xx_HAL_Driver/Src/stm32f0xx_ll_usb.c ****   uint32_t count;
 4379              		.loc 1 833 3 view .LVU1315
 834:Drivers/STM32F0xx_HAL_Driver/Src/stm32f0xx_ll_usb.c ****   uint32_t RdVal;
 4380              		.loc 1 834 3 view .LVU1316
 835:Drivers/STM32F0xx_HAL_Driver/Src/stm32f0xx_ll_usb.c ****   __IO uint16_t *pdwVal;
 4381              		.loc 1 835 3 view .LVU1317
 836:Drivers/STM32F0xx_HAL_Driver/Src/stm32f0xx_ll_usb.c ****   uint8_t *pBuf = pbUsrBuf;
 4382              		.loc 1 836 3 view .LVU1318
 837:Drivers/STM32F0xx_HAL_Driver/Src/stm32f0xx_ll_usb.c **** 
 838:Drivers/STM32F0xx_HAL_Driver/Src/stm32f0xx_ll_usb.c ****   pdwVal = (__IO uint16_t *)(BaseAddr + 0x400U + ((uint32_t)wPMABufAddr * PMA_ACCESS));
 4383              		.loc 1 838 3 view .LVU1319
 4384              		.loc 1 838 48 is_stmt 0 view .LVU1320
 4385 0004 1218     		adds	r2, r2, r0
 4386              	.LVL505:
 4387              		.loc 1 838 48 view .LVU1321
 4388 0006 8020     		movs	r0, #128
 4389              	.LVL506:
 4390              		.loc 1 838 48 view .LVU1322
 4391 0008 C000     		lsls	r0, r0, #3
 4392 000a 8446     		mov	ip, r0
 4393 000c 6244     		add	r2, r2, ip
 4394              	.LVL507:
 839:Drivers/STM32F0xx_HAL_Driver/Src/stm32f0xx_ll_usb.c **** 
 840:Drivers/STM32F0xx_HAL_Driver/Src/stm32f0xx_ll_usb.c ****   for (count = n; count != 0U; count--)
 4395              		.loc 1 840 3 is_stmt 1 view .LVU1323
 4396              		.loc 1 840 3 is_stmt 0 view .LVU1324
 4397 000e 06E0     		b	.L227
 4398              	.LVL508:
 4399              	.L228:
 841:Drivers/STM32F0xx_HAL_Driver/Src/stm32f0xx_ll_usb.c ****   {
 842:Drivers/STM32F0xx_HAL_Driver/Src/stm32f0xx_ll_usb.c ****     RdVal = *(__IO uint16_t *)pdwVal;
 4400              		.loc 1 842 5 is_stmt 1 discriminator 3 view .LVU1325
 4401              		.loc 1 842 13 is_stmt 0 discriminator 3 view .LVU1326
 4402 0010 1088     		ldrh	r0, [r2]
 4403              	.LVL509:
 843:Drivers/STM32F0xx_HAL_Driver/Src/stm32f0xx_ll_usb.c ****     pdwVal++;
 4404              		.loc 1 843 5 is_stmt 1 discriminator 3 view .LVU1327
 4405              		.loc 1 843 11 is_stmt 0 discriminator 3 view .LVU1328
 4406 0012 0232     		adds	r2, r2, #2
ARM GAS  C:\Users\Daniel\AppData\Local\Temp\ccnluvCc.s 			page 107


 4407              	.LVL510:
 844:Drivers/STM32F0xx_HAL_Driver/Src/stm32f0xx_ll_usb.c ****     *pBuf = (uint8_t)((RdVal >> 0) & 0xFFU);
 4408              		.loc 1 844 5 is_stmt 1 discriminator 3 view .LVU1329
 4409              		.loc 1 844 11 is_stmt 0 discriminator 3 view .LVU1330
 4410 0014 0870     		strb	r0, [r1]
 845:Drivers/STM32F0xx_HAL_Driver/Src/stm32f0xx_ll_usb.c ****     pBuf++;
 4411              		.loc 1 845 5 is_stmt 1 discriminator 3 view .LVU1331
 4412              	.LVL511:
 846:Drivers/STM32F0xx_HAL_Driver/Src/stm32f0xx_ll_usb.c ****     *pBuf = (uint8_t)((RdVal >> 8) & 0xFFU);
 4413              		.loc 1 846 5 discriminator 3 view .LVU1332
 4414              		.loc 1 846 13 is_stmt 0 discriminator 3 view .LVU1333
 4415 0016 000A     		lsrs	r0, r0, #8
 4416              	.LVL512:
 4417              		.loc 1 846 11 discriminator 3 view .LVU1334
 4418 0018 4870     		strb	r0, [r1, #1]
 847:Drivers/STM32F0xx_HAL_Driver/Src/stm32f0xx_ll_usb.c ****     pBuf++;
 4419              		.loc 1 847 5 is_stmt 1 discriminator 3 view .LVU1335
 4420              		.loc 1 847 9 is_stmt 0 discriminator 3 view .LVU1336
 4421 001a 0231     		adds	r1, r1, #2
 4422              	.LVL513:
 840:Drivers/STM32F0xx_HAL_Driver/Src/stm32f0xx_ll_usb.c ****   {
 4423              		.loc 1 840 37 is_stmt 1 discriminator 3 view .LVU1337
 4424 001c 013C     		subs	r4, r4, #1
 4425              	.LVL514:
 4426              	.L227:
 840:Drivers/STM32F0xx_HAL_Driver/Src/stm32f0xx_ll_usb.c ****   {
 4427              		.loc 1 840 25 discriminator 1 view .LVU1338
 4428 001e 002C     		cmp	r4, #0
 4429 0020 F6D1     		bne	.L228
 848:Drivers/STM32F0xx_HAL_Driver/Src/stm32f0xx_ll_usb.c **** 
 849:Drivers/STM32F0xx_HAL_Driver/Src/stm32f0xx_ll_usb.c **** #if PMA_ACCESS > 1U
 850:Drivers/STM32F0xx_HAL_Driver/Src/stm32f0xx_ll_usb.c ****     pdwVal++;
 851:Drivers/STM32F0xx_HAL_Driver/Src/stm32f0xx_ll_usb.c **** #endif /* PMA_ACCESS */
 852:Drivers/STM32F0xx_HAL_Driver/Src/stm32f0xx_ll_usb.c ****   }
 853:Drivers/STM32F0xx_HAL_Driver/Src/stm32f0xx_ll_usb.c **** 
 854:Drivers/STM32F0xx_HAL_Driver/Src/stm32f0xx_ll_usb.c ****   if ((wNBytes % 2U) != 0U)
 4430              		.loc 1 854 3 view .LVU1339
 4431              		.loc 1 854 6 is_stmt 0 view .LVU1340
 4432 0022 DB07     		lsls	r3, r3, #31
 4433 0024 01D5     		bpl	.L226
 4434              	.LVL515:
 855:Drivers/STM32F0xx_HAL_Driver/Src/stm32f0xx_ll_usb.c ****   {
 856:Drivers/STM32F0xx_HAL_Driver/Src/stm32f0xx_ll_usb.c ****     RdVal = *pdwVal;
 4435              		.loc 1 856 5 is_stmt 1 view .LVU1341
 4436              		.loc 1 856 13 is_stmt 0 view .LVU1342
 4437 0026 1388     		ldrh	r3, [r2]
 4438              	.LVL516:
 857:Drivers/STM32F0xx_HAL_Driver/Src/stm32f0xx_ll_usb.c ****     *pBuf = (uint8_t)((RdVal >> 0) & 0xFFU);
 4439              		.loc 1 857 5 is_stmt 1 view .LVU1343
 4440              		.loc 1 857 11 is_stmt 0 view .LVU1344
 4441 0028 0B70     		strb	r3, [r1]
 4442              	.LVL517:
 4443              	.L226:
 858:Drivers/STM32F0xx_HAL_Driver/Src/stm32f0xx_ll_usb.c ****   }
 859:Drivers/STM32F0xx_HAL_Driver/Src/stm32f0xx_ll_usb.c **** }
 4444              		.loc 1 859 1 view .LVU1345
 4445              		@ sp needed
ARM GAS  C:\Users\Daniel\AppData\Local\Temp\ccnluvCc.s 			page 108


 4446              	.LVL518:
 4447              		.loc 1 859 1 view .LVU1346
 4448 002a 10BD     		pop	{r4, pc}
 4449              		.cfi_endproc
 4450              	.LFE59:
 4452              		.text
 4453              	.Letext0:
 4454              		.file 2 "c:\\users\\daniel\\appdata\\roaming\\code\\user\\globalstorage\\bmd.stm32-for-vscode\\@xp
 4455              		.file 3 "c:\\users\\daniel\\appdata\\roaming\\code\\user\\globalstorage\\bmd.stm32-for-vscode\\@xp
 4456              		.file 4 "Drivers/CMSIS/Device/ST/STM32F0xx/Include/stm32f042x6.h"
 4457              		.file 5 "Drivers/STM32F0xx_HAL_Driver/Inc/stm32f0xx_hal_def.h"
 4458              		.file 6 "Drivers/STM32F0xx_HAL_Driver/Inc/stm32f0xx_ll_usb.h"
ARM GAS  C:\Users\Daniel\AppData\Local\Temp\ccnluvCc.s 			page 109


DEFINED SYMBOLS
                            *ABS*:00000000 stm32f0xx_ll_usb.c
C:\Users\Daniel\AppData\Local\Temp\ccnluvCc.s:19     .text.USB_CoreInit:00000000 $t
C:\Users\Daniel\AppData\Local\Temp\ccnluvCc.s:25     .text.USB_CoreInit:00000000 USB_CoreInit
C:\Users\Daniel\AppData\Local\Temp\ccnluvCc.s:53     .text.USB_EnableGlobalInt:00000000 $t
C:\Users\Daniel\AppData\Local\Temp\ccnluvCc.s:59     .text.USB_EnableGlobalInt:00000000 USB_EnableGlobalInt
C:\Users\Daniel\AppData\Local\Temp\ccnluvCc.s:90     .text.USB_EnableGlobalInt:00000010 $d
C:\Users\Daniel\AppData\Local\Temp\ccnluvCc.s:95     .text.USB_DisableGlobalInt:00000000 $t
C:\Users\Daniel\AppData\Local\Temp\ccnluvCc.s:101    .text.USB_DisableGlobalInt:00000000 USB_DisableGlobalInt
C:\Users\Daniel\AppData\Local\Temp\ccnluvCc.s:129    .text.USB_DisableGlobalInt:00000010 $d
C:\Users\Daniel\AppData\Local\Temp\ccnluvCc.s:134    .text.USB_SetCurrentMode:00000000 $t
C:\Users\Daniel\AppData\Local\Temp\ccnluvCc.s:140    .text.USB_SetCurrentMode:00000000 USB_SetCurrentMode
C:\Users\Daniel\AppData\Local\Temp\ccnluvCc.s:161    .text.USB_DevInit:00000000 $t
C:\Users\Daniel\AppData\Local\Temp\ccnluvCc.s:167    .text.USB_DevInit:00000000 USB_DevInit
C:\Users\Daniel\AppData\Local\Temp\ccnluvCc.s:211    .text.USB_ActivateEndpoint:00000000 $t
C:\Users\Daniel\AppData\Local\Temp\ccnluvCc.s:217    .text.USB_ActivateEndpoint:00000000 USB_ActivateEndpoint
C:\Users\Daniel\AppData\Local\Temp\ccnluvCc.s:1113   .text.USB_ActivateEndpoint:000002f4 $d
C:\Users\Daniel\AppData\Local\Temp\ccnluvCc.s:1130   .text.USB_DeactivateEndpoint:00000000 $t
C:\Users\Daniel\AppData\Local\Temp\ccnluvCc.s:1136   .text.USB_DeactivateEndpoint:00000000 USB_DeactivateEndpoint
C:\Users\Daniel\AppData\Local\Temp\ccnluvCc.s:1556   .text.USB_DeactivateEndpoint:00000158 $d
C:\Users\Daniel\AppData\Local\Temp\ccnluvCc.s:1567   .text.USB_EPSetStall:00000000 $t
C:\Users\Daniel\AppData\Local\Temp\ccnluvCc.s:1573   .text.USB_EPSetStall:00000000 USB_EPSetStall
C:\Users\Daniel\AppData\Local\Temp\ccnluvCc.s:1657   .text.USB_EPSetStall:00000040 $d
C:\Users\Daniel\AppData\Local\Temp\ccnluvCc.s:1665   .text.USB_EPClearStall:00000000 $t
C:\Users\Daniel\AppData\Local\Temp\ccnluvCc.s:1671   .text.USB_EPClearStall:00000000 USB_EPClearStall
C:\Users\Daniel\AppData\Local\Temp\ccnluvCc.s:1840   .text.USB_EPClearStall:00000084 $d
C:\Users\Daniel\AppData\Local\Temp\ccnluvCc.s:1850   .text.USB_EPStopXfer:00000000 $t
C:\Users\Daniel\AppData\Local\Temp\ccnluvCc.s:1856   .text.USB_EPStopXfer:00000000 USB_EPStopXfer
C:\Users\Daniel\AppData\Local\Temp\ccnluvCc.s:2014   .text.USB_EPStopXfer:00000084 $d
C:\Users\Daniel\AppData\Local\Temp\ccnluvCc.s:2022   .text.USB_StopDevice:00000000 $t
C:\Users\Daniel\AppData\Local\Temp\ccnluvCc.s:2028   .text.USB_StopDevice:00000000 USB_StopDevice
C:\Users\Daniel\AppData\Local\Temp\ccnluvCc.s:2061   .text.USB_SetDevAddress:00000000 $t
C:\Users\Daniel\AppData\Local\Temp\ccnluvCc.s:2067   .text.USB_SetDevAddress:00000000 USB_SetDevAddress
C:\Users\Daniel\AppData\Local\Temp\ccnluvCc.s:2096   .text.USB_DevConnect:00000000 $t
C:\Users\Daniel\AppData\Local\Temp\ccnluvCc.s:2102   .text.USB_DevConnect:00000000 USB_DevConnect
C:\Users\Daniel\AppData\Local\Temp\ccnluvCc.s:2129   .text.USB_DevConnect:00000010 $d
C:\Users\Daniel\AppData\Local\Temp\ccnluvCc.s:2134   .text.USB_DevDisconnect:00000000 $t
C:\Users\Daniel\AppData\Local\Temp\ccnluvCc.s:2140   .text.USB_DevDisconnect:00000000 USB_DevDisconnect
C:\Users\Daniel\AppData\Local\Temp\ccnluvCc.s:2167   .text.USB_ReadInterrupts:00000000 $t
C:\Users\Daniel\AppData\Local\Temp\ccnluvCc.s:2173   .text.USB_ReadInterrupts:00000000 USB_ReadInterrupts
C:\Users\Daniel\AppData\Local\Temp\ccnluvCc.s:2198   .text.USB_ActivateRemoteWakeup:00000000 $t
C:\Users\Daniel\AppData\Local\Temp\ccnluvCc.s:2204   .text.USB_ActivateRemoteWakeup:00000000 USB_ActivateRemoteWakeup
C:\Users\Daniel\AppData\Local\Temp\ccnluvCc.s:2232   .text.USB_DeActivateRemoteWakeup:00000000 $t
C:\Users\Daniel\AppData\Local\Temp\ccnluvCc.s:2238   .text.USB_DeActivateRemoteWakeup:00000000 USB_DeActivateRemoteWakeup
C:\Users\Daniel\AppData\Local\Temp\ccnluvCc.s:2265   .text.USB_WritePMA:00000000 $t
C:\Users\Daniel\AppData\Local\Temp\ccnluvCc.s:2271   .text.USB_WritePMA:00000000 USB_WritePMA
C:\Users\Daniel\AppData\Local\Temp\ccnluvCc.s:2350   .text.USB_EPStartXfer:00000000 $t
C:\Users\Daniel\AppData\Local\Temp\ccnluvCc.s:2356   .text.USB_EPStartXfer:00000000 USB_EPStartXfer
C:\Users\Daniel\AppData\Local\Temp\ccnluvCc.s:3164   .text.USB_EPStartXfer:000002dc $d
C:\Users\Daniel\AppData\Local\Temp\ccnluvCc.s:3178   .text.USB_EPStartXfer:000002fc $t
C:\Users\Daniel\AppData\Local\Temp\ccnluvCc.s:4101   .text.USB_EPStartXfer:00000634 $d
C:\Users\Daniel\AppData\Local\Temp\ccnluvCc.s:4109   .text.USB_EPStartXfer:00000648 $t
C:\Users\Daniel\AppData\Local\Temp\ccnluvCc.s:4347   .text.USB_EPStartXfer:00000718 $d
C:\Users\Daniel\AppData\Local\Temp\ccnluvCc.s:4356   .text.USB_ReadPMA:00000000 $t
C:\Users\Daniel\AppData\Local\Temp\ccnluvCc.s:4362   .text.USB_ReadPMA:00000000 USB_ReadPMA

NO UNDEFINED SYMBOLS
ARM GAS  C:\Users\Daniel\AppData\Local\Temp\ccnluvCc.s 			page 110


