ARM GAS  C:\Users\Daniel\AppData\Local\Temp\ccTSPUfT.s 			page 1


   1              		.cpu cortex-m0
   2              		.arch armv6s-m
   3              		.fpu softvfp
   4              		.eabi_attribute 20, 1
   5              		.eabi_attribute 21, 1
   6              		.eabi_attribute 23, 3
   7              		.eabi_attribute 24, 1
   8              		.eabi_attribute 25, 1
   9              		.eabi_attribute 26, 1
  10              		.eabi_attribute 30, 1
  11              		.eabi_attribute 34, 0
  12              		.eabi_attribute 18, 4
  13              		.file	"usbd_ctlreq.c"
  14              		.text
  15              	.Ltext0:
  16              		.cfi_sections	.debug_frame
  17              		.file 1 "Middlewares/ST/STM32_USB_Device_Library/Core/Src/usbd_ctlreq.c"
  18              		.section	.text.USBD_GetLen,"ax",%progbits
  19              		.align	1
  20              		.syntax unified
  21              		.code	16
  22              		.thumb_func
  24              	USBD_GetLen:
  25              	.LVL0:
  26              	.LFB56:
   1:Middlewares/ST/STM32_USB_Device_Library/Core/Src/usbd_ctlreq.c **** /**
   2:Middlewares/ST/STM32_USB_Device_Library/Core/Src/usbd_ctlreq.c ****   ******************************************************************************
   3:Middlewares/ST/STM32_USB_Device_Library/Core/Src/usbd_ctlreq.c ****   * @file    usbd_req.c
   4:Middlewares/ST/STM32_USB_Device_Library/Core/Src/usbd_ctlreq.c ****   * @author  MCD Application Team
   5:Middlewares/ST/STM32_USB_Device_Library/Core/Src/usbd_ctlreq.c ****   * @brief   This file provides the standard USB requests following chapter 9.
   6:Middlewares/ST/STM32_USB_Device_Library/Core/Src/usbd_ctlreq.c ****   ******************************************************************************
   7:Middlewares/ST/STM32_USB_Device_Library/Core/Src/usbd_ctlreq.c ****   * @attention
   8:Middlewares/ST/STM32_USB_Device_Library/Core/Src/usbd_ctlreq.c ****   *
   9:Middlewares/ST/STM32_USB_Device_Library/Core/Src/usbd_ctlreq.c ****   * <h2><center>&copy; Copyright (c) 2015 STMicroelectronics.
  10:Middlewares/ST/STM32_USB_Device_Library/Core/Src/usbd_ctlreq.c ****   * All rights reserved.</center></h2>
  11:Middlewares/ST/STM32_USB_Device_Library/Core/Src/usbd_ctlreq.c ****   *
  12:Middlewares/ST/STM32_USB_Device_Library/Core/Src/usbd_ctlreq.c ****   * This software component is licensed by ST under Ultimate Liberty license
  13:Middlewares/ST/STM32_USB_Device_Library/Core/Src/usbd_ctlreq.c ****   * SLA0044, the "License"; You may not use this file except in compliance with
  14:Middlewares/ST/STM32_USB_Device_Library/Core/Src/usbd_ctlreq.c ****   * the License. You may obtain a copy of the License at:
  15:Middlewares/ST/STM32_USB_Device_Library/Core/Src/usbd_ctlreq.c ****   *                      www.st.com/SLA0044
  16:Middlewares/ST/STM32_USB_Device_Library/Core/Src/usbd_ctlreq.c ****   *
  17:Middlewares/ST/STM32_USB_Device_Library/Core/Src/usbd_ctlreq.c ****   ******************************************************************************
  18:Middlewares/ST/STM32_USB_Device_Library/Core/Src/usbd_ctlreq.c ****   */
  19:Middlewares/ST/STM32_USB_Device_Library/Core/Src/usbd_ctlreq.c **** 
  20:Middlewares/ST/STM32_USB_Device_Library/Core/Src/usbd_ctlreq.c **** /* Includes ------------------------------------------------------------------*/
  21:Middlewares/ST/STM32_USB_Device_Library/Core/Src/usbd_ctlreq.c **** #include "usbd_ctlreq.h"
  22:Middlewares/ST/STM32_USB_Device_Library/Core/Src/usbd_ctlreq.c **** #include "usbd_ioreq.h"
  23:Middlewares/ST/STM32_USB_Device_Library/Core/Src/usbd_ctlreq.c **** 
  24:Middlewares/ST/STM32_USB_Device_Library/Core/Src/usbd_ctlreq.c **** 
  25:Middlewares/ST/STM32_USB_Device_Library/Core/Src/usbd_ctlreq.c **** /** @addtogroup STM32_USBD_STATE_DEVICE_LIBRARY
  26:Middlewares/ST/STM32_USB_Device_Library/Core/Src/usbd_ctlreq.c ****   * @{
  27:Middlewares/ST/STM32_USB_Device_Library/Core/Src/usbd_ctlreq.c ****   */
  28:Middlewares/ST/STM32_USB_Device_Library/Core/Src/usbd_ctlreq.c **** 
  29:Middlewares/ST/STM32_USB_Device_Library/Core/Src/usbd_ctlreq.c **** 
  30:Middlewares/ST/STM32_USB_Device_Library/Core/Src/usbd_ctlreq.c **** /** @defgroup USBD_REQ
  31:Middlewares/ST/STM32_USB_Device_Library/Core/Src/usbd_ctlreq.c ****   * @brief USB standard requests module
  32:Middlewares/ST/STM32_USB_Device_Library/Core/Src/usbd_ctlreq.c ****   * @{
ARM GAS  C:\Users\Daniel\AppData\Local\Temp\ccTSPUfT.s 			page 2


  33:Middlewares/ST/STM32_USB_Device_Library/Core/Src/usbd_ctlreq.c ****   */
  34:Middlewares/ST/STM32_USB_Device_Library/Core/Src/usbd_ctlreq.c **** 
  35:Middlewares/ST/STM32_USB_Device_Library/Core/Src/usbd_ctlreq.c **** /** @defgroup USBD_REQ_Private_TypesDefinitions
  36:Middlewares/ST/STM32_USB_Device_Library/Core/Src/usbd_ctlreq.c ****   * @{
  37:Middlewares/ST/STM32_USB_Device_Library/Core/Src/usbd_ctlreq.c ****   */
  38:Middlewares/ST/STM32_USB_Device_Library/Core/Src/usbd_ctlreq.c **** 
  39:Middlewares/ST/STM32_USB_Device_Library/Core/Src/usbd_ctlreq.c **** /**
  40:Middlewares/ST/STM32_USB_Device_Library/Core/Src/usbd_ctlreq.c ****   * @}
  41:Middlewares/ST/STM32_USB_Device_Library/Core/Src/usbd_ctlreq.c ****   */
  42:Middlewares/ST/STM32_USB_Device_Library/Core/Src/usbd_ctlreq.c **** 
  43:Middlewares/ST/STM32_USB_Device_Library/Core/Src/usbd_ctlreq.c **** 
  44:Middlewares/ST/STM32_USB_Device_Library/Core/Src/usbd_ctlreq.c **** /** @defgroup USBD_REQ_Private_Defines
  45:Middlewares/ST/STM32_USB_Device_Library/Core/Src/usbd_ctlreq.c ****   * @{
  46:Middlewares/ST/STM32_USB_Device_Library/Core/Src/usbd_ctlreq.c ****   */
  47:Middlewares/ST/STM32_USB_Device_Library/Core/Src/usbd_ctlreq.c **** 
  48:Middlewares/ST/STM32_USB_Device_Library/Core/Src/usbd_ctlreq.c **** /**
  49:Middlewares/ST/STM32_USB_Device_Library/Core/Src/usbd_ctlreq.c ****   * @}
  50:Middlewares/ST/STM32_USB_Device_Library/Core/Src/usbd_ctlreq.c ****   */
  51:Middlewares/ST/STM32_USB_Device_Library/Core/Src/usbd_ctlreq.c **** 
  52:Middlewares/ST/STM32_USB_Device_Library/Core/Src/usbd_ctlreq.c **** 
  53:Middlewares/ST/STM32_USB_Device_Library/Core/Src/usbd_ctlreq.c **** /** @defgroup USBD_REQ_Private_Macros
  54:Middlewares/ST/STM32_USB_Device_Library/Core/Src/usbd_ctlreq.c ****   * @{
  55:Middlewares/ST/STM32_USB_Device_Library/Core/Src/usbd_ctlreq.c ****   */
  56:Middlewares/ST/STM32_USB_Device_Library/Core/Src/usbd_ctlreq.c **** 
  57:Middlewares/ST/STM32_USB_Device_Library/Core/Src/usbd_ctlreq.c **** /**
  58:Middlewares/ST/STM32_USB_Device_Library/Core/Src/usbd_ctlreq.c ****   * @}
  59:Middlewares/ST/STM32_USB_Device_Library/Core/Src/usbd_ctlreq.c ****   */
  60:Middlewares/ST/STM32_USB_Device_Library/Core/Src/usbd_ctlreq.c **** 
  61:Middlewares/ST/STM32_USB_Device_Library/Core/Src/usbd_ctlreq.c **** 
  62:Middlewares/ST/STM32_USB_Device_Library/Core/Src/usbd_ctlreq.c **** /** @defgroup USBD_REQ_Private_Variables
  63:Middlewares/ST/STM32_USB_Device_Library/Core/Src/usbd_ctlreq.c ****   * @{
  64:Middlewares/ST/STM32_USB_Device_Library/Core/Src/usbd_ctlreq.c ****   */
  65:Middlewares/ST/STM32_USB_Device_Library/Core/Src/usbd_ctlreq.c **** 
  66:Middlewares/ST/STM32_USB_Device_Library/Core/Src/usbd_ctlreq.c **** /**
  67:Middlewares/ST/STM32_USB_Device_Library/Core/Src/usbd_ctlreq.c ****   * @}
  68:Middlewares/ST/STM32_USB_Device_Library/Core/Src/usbd_ctlreq.c ****   */
  69:Middlewares/ST/STM32_USB_Device_Library/Core/Src/usbd_ctlreq.c **** 
  70:Middlewares/ST/STM32_USB_Device_Library/Core/Src/usbd_ctlreq.c **** 
  71:Middlewares/ST/STM32_USB_Device_Library/Core/Src/usbd_ctlreq.c **** /** @defgroup USBD_REQ_Private_FunctionPrototypes
  72:Middlewares/ST/STM32_USB_Device_Library/Core/Src/usbd_ctlreq.c ****   * @{
  73:Middlewares/ST/STM32_USB_Device_Library/Core/Src/usbd_ctlreq.c ****   */
  74:Middlewares/ST/STM32_USB_Device_Library/Core/Src/usbd_ctlreq.c **** static void USBD_GetDescriptor(USBD_HandleTypeDef *pdev,
  75:Middlewares/ST/STM32_USB_Device_Library/Core/Src/usbd_ctlreq.c ****                                USBD_SetupReqTypedef *req);
  76:Middlewares/ST/STM32_USB_Device_Library/Core/Src/usbd_ctlreq.c **** 
  77:Middlewares/ST/STM32_USB_Device_Library/Core/Src/usbd_ctlreq.c **** static void USBD_SetAddress(USBD_HandleTypeDef *pdev,
  78:Middlewares/ST/STM32_USB_Device_Library/Core/Src/usbd_ctlreq.c ****                             USBD_SetupReqTypedef *req);
  79:Middlewares/ST/STM32_USB_Device_Library/Core/Src/usbd_ctlreq.c **** 
  80:Middlewares/ST/STM32_USB_Device_Library/Core/Src/usbd_ctlreq.c **** static void USBD_SetConfig(USBD_HandleTypeDef *pdev,
  81:Middlewares/ST/STM32_USB_Device_Library/Core/Src/usbd_ctlreq.c ****                            USBD_SetupReqTypedef *req);
  82:Middlewares/ST/STM32_USB_Device_Library/Core/Src/usbd_ctlreq.c **** 
  83:Middlewares/ST/STM32_USB_Device_Library/Core/Src/usbd_ctlreq.c **** static void USBD_GetConfig(USBD_HandleTypeDef *pdev,
  84:Middlewares/ST/STM32_USB_Device_Library/Core/Src/usbd_ctlreq.c ****                            USBD_SetupReqTypedef *req);
  85:Middlewares/ST/STM32_USB_Device_Library/Core/Src/usbd_ctlreq.c **** 
  86:Middlewares/ST/STM32_USB_Device_Library/Core/Src/usbd_ctlreq.c **** static void USBD_GetStatus(USBD_HandleTypeDef *pdev,
  87:Middlewares/ST/STM32_USB_Device_Library/Core/Src/usbd_ctlreq.c ****                            USBD_SetupReqTypedef *req);
  88:Middlewares/ST/STM32_USB_Device_Library/Core/Src/usbd_ctlreq.c **** 
  89:Middlewares/ST/STM32_USB_Device_Library/Core/Src/usbd_ctlreq.c **** static void USBD_SetFeature(USBD_HandleTypeDef *pdev,
ARM GAS  C:\Users\Daniel\AppData\Local\Temp\ccTSPUfT.s 			page 3


  90:Middlewares/ST/STM32_USB_Device_Library/Core/Src/usbd_ctlreq.c ****                             USBD_SetupReqTypedef *req);
  91:Middlewares/ST/STM32_USB_Device_Library/Core/Src/usbd_ctlreq.c **** 
  92:Middlewares/ST/STM32_USB_Device_Library/Core/Src/usbd_ctlreq.c **** static void USBD_ClrFeature(USBD_HandleTypeDef *pdev,
  93:Middlewares/ST/STM32_USB_Device_Library/Core/Src/usbd_ctlreq.c ****                             USBD_SetupReqTypedef *req);
  94:Middlewares/ST/STM32_USB_Device_Library/Core/Src/usbd_ctlreq.c **** 
  95:Middlewares/ST/STM32_USB_Device_Library/Core/Src/usbd_ctlreq.c **** static uint8_t USBD_GetLen(uint8_t *buf);
  96:Middlewares/ST/STM32_USB_Device_Library/Core/Src/usbd_ctlreq.c **** 
  97:Middlewares/ST/STM32_USB_Device_Library/Core/Src/usbd_ctlreq.c **** /**
  98:Middlewares/ST/STM32_USB_Device_Library/Core/Src/usbd_ctlreq.c ****   * @}
  99:Middlewares/ST/STM32_USB_Device_Library/Core/Src/usbd_ctlreq.c ****   */
 100:Middlewares/ST/STM32_USB_Device_Library/Core/Src/usbd_ctlreq.c **** 
 101:Middlewares/ST/STM32_USB_Device_Library/Core/Src/usbd_ctlreq.c **** 
 102:Middlewares/ST/STM32_USB_Device_Library/Core/Src/usbd_ctlreq.c **** /** @defgroup USBD_REQ_Private_Functions
 103:Middlewares/ST/STM32_USB_Device_Library/Core/Src/usbd_ctlreq.c ****   * @{
 104:Middlewares/ST/STM32_USB_Device_Library/Core/Src/usbd_ctlreq.c ****   */
 105:Middlewares/ST/STM32_USB_Device_Library/Core/Src/usbd_ctlreq.c **** 
 106:Middlewares/ST/STM32_USB_Device_Library/Core/Src/usbd_ctlreq.c **** 
 107:Middlewares/ST/STM32_USB_Device_Library/Core/Src/usbd_ctlreq.c **** /**
 108:Middlewares/ST/STM32_USB_Device_Library/Core/Src/usbd_ctlreq.c **** * @brief  USBD_StdDevReq
 109:Middlewares/ST/STM32_USB_Device_Library/Core/Src/usbd_ctlreq.c **** *         Handle standard usb device requests
 110:Middlewares/ST/STM32_USB_Device_Library/Core/Src/usbd_ctlreq.c **** * @param  pdev: device instance
 111:Middlewares/ST/STM32_USB_Device_Library/Core/Src/usbd_ctlreq.c **** * @param  req: usb request
 112:Middlewares/ST/STM32_USB_Device_Library/Core/Src/usbd_ctlreq.c **** * @retval status
 113:Middlewares/ST/STM32_USB_Device_Library/Core/Src/usbd_ctlreq.c **** */
 114:Middlewares/ST/STM32_USB_Device_Library/Core/Src/usbd_ctlreq.c **** USBD_StatusTypeDef  USBD_StdDevReq(USBD_HandleTypeDef *pdev,
 115:Middlewares/ST/STM32_USB_Device_Library/Core/Src/usbd_ctlreq.c ****                                    USBD_SetupReqTypedef *req)
 116:Middlewares/ST/STM32_USB_Device_Library/Core/Src/usbd_ctlreq.c **** {
 117:Middlewares/ST/STM32_USB_Device_Library/Core/Src/usbd_ctlreq.c ****   USBD_StatusTypeDef ret = USBD_OK;
 118:Middlewares/ST/STM32_USB_Device_Library/Core/Src/usbd_ctlreq.c **** 
 119:Middlewares/ST/STM32_USB_Device_Library/Core/Src/usbd_ctlreq.c ****   switch (req->bmRequest & USB_REQ_TYPE_MASK)
 120:Middlewares/ST/STM32_USB_Device_Library/Core/Src/usbd_ctlreq.c ****   {
 121:Middlewares/ST/STM32_USB_Device_Library/Core/Src/usbd_ctlreq.c ****     case USB_REQ_TYPE_CLASS:
 122:Middlewares/ST/STM32_USB_Device_Library/Core/Src/usbd_ctlreq.c ****     case USB_REQ_TYPE_VENDOR:
 123:Middlewares/ST/STM32_USB_Device_Library/Core/Src/usbd_ctlreq.c ****       pdev->pClass->Setup(pdev, req);
 124:Middlewares/ST/STM32_USB_Device_Library/Core/Src/usbd_ctlreq.c ****       break;
 125:Middlewares/ST/STM32_USB_Device_Library/Core/Src/usbd_ctlreq.c **** 
 126:Middlewares/ST/STM32_USB_Device_Library/Core/Src/usbd_ctlreq.c ****     case USB_REQ_TYPE_STANDARD:
 127:Middlewares/ST/STM32_USB_Device_Library/Core/Src/usbd_ctlreq.c ****       switch (req->bRequest)
 128:Middlewares/ST/STM32_USB_Device_Library/Core/Src/usbd_ctlreq.c ****       {
 129:Middlewares/ST/STM32_USB_Device_Library/Core/Src/usbd_ctlreq.c ****         case USB_REQ_GET_DESCRIPTOR:
 130:Middlewares/ST/STM32_USB_Device_Library/Core/Src/usbd_ctlreq.c ****           USBD_GetDescriptor(pdev, req);
 131:Middlewares/ST/STM32_USB_Device_Library/Core/Src/usbd_ctlreq.c ****           break;
 132:Middlewares/ST/STM32_USB_Device_Library/Core/Src/usbd_ctlreq.c **** 
 133:Middlewares/ST/STM32_USB_Device_Library/Core/Src/usbd_ctlreq.c ****         case USB_REQ_SET_ADDRESS:
 134:Middlewares/ST/STM32_USB_Device_Library/Core/Src/usbd_ctlreq.c ****           USBD_SetAddress(pdev, req);
 135:Middlewares/ST/STM32_USB_Device_Library/Core/Src/usbd_ctlreq.c ****           break;
 136:Middlewares/ST/STM32_USB_Device_Library/Core/Src/usbd_ctlreq.c **** 
 137:Middlewares/ST/STM32_USB_Device_Library/Core/Src/usbd_ctlreq.c ****         case USB_REQ_SET_CONFIGURATION:
 138:Middlewares/ST/STM32_USB_Device_Library/Core/Src/usbd_ctlreq.c ****           USBD_SetConfig(pdev, req);
 139:Middlewares/ST/STM32_USB_Device_Library/Core/Src/usbd_ctlreq.c ****           break;
 140:Middlewares/ST/STM32_USB_Device_Library/Core/Src/usbd_ctlreq.c **** 
 141:Middlewares/ST/STM32_USB_Device_Library/Core/Src/usbd_ctlreq.c ****         case USB_REQ_GET_CONFIGURATION:
 142:Middlewares/ST/STM32_USB_Device_Library/Core/Src/usbd_ctlreq.c ****           USBD_GetConfig(pdev, req);
 143:Middlewares/ST/STM32_USB_Device_Library/Core/Src/usbd_ctlreq.c ****           break;
 144:Middlewares/ST/STM32_USB_Device_Library/Core/Src/usbd_ctlreq.c **** 
 145:Middlewares/ST/STM32_USB_Device_Library/Core/Src/usbd_ctlreq.c ****         case USB_REQ_GET_STATUS:
 146:Middlewares/ST/STM32_USB_Device_Library/Core/Src/usbd_ctlreq.c ****           USBD_GetStatus(pdev, req);
ARM GAS  C:\Users\Daniel\AppData\Local\Temp\ccTSPUfT.s 			page 4


 147:Middlewares/ST/STM32_USB_Device_Library/Core/Src/usbd_ctlreq.c ****           break;
 148:Middlewares/ST/STM32_USB_Device_Library/Core/Src/usbd_ctlreq.c **** 
 149:Middlewares/ST/STM32_USB_Device_Library/Core/Src/usbd_ctlreq.c ****         case USB_REQ_SET_FEATURE:
 150:Middlewares/ST/STM32_USB_Device_Library/Core/Src/usbd_ctlreq.c ****           USBD_SetFeature(pdev, req);
 151:Middlewares/ST/STM32_USB_Device_Library/Core/Src/usbd_ctlreq.c ****           break;
 152:Middlewares/ST/STM32_USB_Device_Library/Core/Src/usbd_ctlreq.c **** 
 153:Middlewares/ST/STM32_USB_Device_Library/Core/Src/usbd_ctlreq.c ****         case USB_REQ_CLEAR_FEATURE:
 154:Middlewares/ST/STM32_USB_Device_Library/Core/Src/usbd_ctlreq.c ****           USBD_ClrFeature(pdev, req);
 155:Middlewares/ST/STM32_USB_Device_Library/Core/Src/usbd_ctlreq.c ****           break;
 156:Middlewares/ST/STM32_USB_Device_Library/Core/Src/usbd_ctlreq.c **** 
 157:Middlewares/ST/STM32_USB_Device_Library/Core/Src/usbd_ctlreq.c ****         default:
 158:Middlewares/ST/STM32_USB_Device_Library/Core/Src/usbd_ctlreq.c ****           USBD_CtlError(pdev, req);
 159:Middlewares/ST/STM32_USB_Device_Library/Core/Src/usbd_ctlreq.c ****           break;
 160:Middlewares/ST/STM32_USB_Device_Library/Core/Src/usbd_ctlreq.c ****       }
 161:Middlewares/ST/STM32_USB_Device_Library/Core/Src/usbd_ctlreq.c ****       break;
 162:Middlewares/ST/STM32_USB_Device_Library/Core/Src/usbd_ctlreq.c **** 
 163:Middlewares/ST/STM32_USB_Device_Library/Core/Src/usbd_ctlreq.c ****     default:
 164:Middlewares/ST/STM32_USB_Device_Library/Core/Src/usbd_ctlreq.c ****       USBD_CtlError(pdev, req);
 165:Middlewares/ST/STM32_USB_Device_Library/Core/Src/usbd_ctlreq.c ****       break;
 166:Middlewares/ST/STM32_USB_Device_Library/Core/Src/usbd_ctlreq.c ****   }
 167:Middlewares/ST/STM32_USB_Device_Library/Core/Src/usbd_ctlreq.c **** 
 168:Middlewares/ST/STM32_USB_Device_Library/Core/Src/usbd_ctlreq.c ****   return ret;
 169:Middlewares/ST/STM32_USB_Device_Library/Core/Src/usbd_ctlreq.c **** }
 170:Middlewares/ST/STM32_USB_Device_Library/Core/Src/usbd_ctlreq.c **** 
 171:Middlewares/ST/STM32_USB_Device_Library/Core/Src/usbd_ctlreq.c **** /**
 172:Middlewares/ST/STM32_USB_Device_Library/Core/Src/usbd_ctlreq.c **** * @brief  USBD_StdItfReq
 173:Middlewares/ST/STM32_USB_Device_Library/Core/Src/usbd_ctlreq.c **** *         Handle standard usb interface requests
 174:Middlewares/ST/STM32_USB_Device_Library/Core/Src/usbd_ctlreq.c **** * @param  pdev: device instance
 175:Middlewares/ST/STM32_USB_Device_Library/Core/Src/usbd_ctlreq.c **** * @param  req: usb request
 176:Middlewares/ST/STM32_USB_Device_Library/Core/Src/usbd_ctlreq.c **** * @retval status
 177:Middlewares/ST/STM32_USB_Device_Library/Core/Src/usbd_ctlreq.c **** */
 178:Middlewares/ST/STM32_USB_Device_Library/Core/Src/usbd_ctlreq.c **** USBD_StatusTypeDef  USBD_StdItfReq(USBD_HandleTypeDef *pdev,
 179:Middlewares/ST/STM32_USB_Device_Library/Core/Src/usbd_ctlreq.c ****                                    USBD_SetupReqTypedef  *req)
 180:Middlewares/ST/STM32_USB_Device_Library/Core/Src/usbd_ctlreq.c **** {
 181:Middlewares/ST/STM32_USB_Device_Library/Core/Src/usbd_ctlreq.c ****   USBD_StatusTypeDef ret = USBD_OK;
 182:Middlewares/ST/STM32_USB_Device_Library/Core/Src/usbd_ctlreq.c **** 
 183:Middlewares/ST/STM32_USB_Device_Library/Core/Src/usbd_ctlreq.c ****   switch (req->bmRequest & USB_REQ_TYPE_MASK)
 184:Middlewares/ST/STM32_USB_Device_Library/Core/Src/usbd_ctlreq.c ****   {
 185:Middlewares/ST/STM32_USB_Device_Library/Core/Src/usbd_ctlreq.c ****     case USB_REQ_TYPE_CLASS:
 186:Middlewares/ST/STM32_USB_Device_Library/Core/Src/usbd_ctlreq.c ****     case USB_REQ_TYPE_VENDOR:
 187:Middlewares/ST/STM32_USB_Device_Library/Core/Src/usbd_ctlreq.c ****     case USB_REQ_TYPE_STANDARD:
 188:Middlewares/ST/STM32_USB_Device_Library/Core/Src/usbd_ctlreq.c ****       switch (pdev->dev_state)
 189:Middlewares/ST/STM32_USB_Device_Library/Core/Src/usbd_ctlreq.c ****       {
 190:Middlewares/ST/STM32_USB_Device_Library/Core/Src/usbd_ctlreq.c ****         case USBD_STATE_DEFAULT:
 191:Middlewares/ST/STM32_USB_Device_Library/Core/Src/usbd_ctlreq.c ****         case USBD_STATE_ADDRESSED:
 192:Middlewares/ST/STM32_USB_Device_Library/Core/Src/usbd_ctlreq.c ****         case USBD_STATE_CONFIGURED:
 193:Middlewares/ST/STM32_USB_Device_Library/Core/Src/usbd_ctlreq.c **** 
 194:Middlewares/ST/STM32_USB_Device_Library/Core/Src/usbd_ctlreq.c ****           if (LOBYTE(req->wIndex) <= USBD_MAX_NUM_INTERFACES)
 195:Middlewares/ST/STM32_USB_Device_Library/Core/Src/usbd_ctlreq.c ****           {
 196:Middlewares/ST/STM32_USB_Device_Library/Core/Src/usbd_ctlreq.c ****             ret = (USBD_StatusTypeDef)pdev->pClass->Setup(pdev, req);
 197:Middlewares/ST/STM32_USB_Device_Library/Core/Src/usbd_ctlreq.c **** 
 198:Middlewares/ST/STM32_USB_Device_Library/Core/Src/usbd_ctlreq.c ****             if ((req->wLength == 0U) && (ret == USBD_OK))
 199:Middlewares/ST/STM32_USB_Device_Library/Core/Src/usbd_ctlreq.c ****             {
 200:Middlewares/ST/STM32_USB_Device_Library/Core/Src/usbd_ctlreq.c ****               USBD_CtlSendStatus(pdev);
 201:Middlewares/ST/STM32_USB_Device_Library/Core/Src/usbd_ctlreq.c ****             }
 202:Middlewares/ST/STM32_USB_Device_Library/Core/Src/usbd_ctlreq.c ****           }
 203:Middlewares/ST/STM32_USB_Device_Library/Core/Src/usbd_ctlreq.c ****           else
ARM GAS  C:\Users\Daniel\AppData\Local\Temp\ccTSPUfT.s 			page 5


 204:Middlewares/ST/STM32_USB_Device_Library/Core/Src/usbd_ctlreq.c ****           {
 205:Middlewares/ST/STM32_USB_Device_Library/Core/Src/usbd_ctlreq.c ****             USBD_CtlError(pdev, req);
 206:Middlewares/ST/STM32_USB_Device_Library/Core/Src/usbd_ctlreq.c ****           }
 207:Middlewares/ST/STM32_USB_Device_Library/Core/Src/usbd_ctlreq.c ****           break;
 208:Middlewares/ST/STM32_USB_Device_Library/Core/Src/usbd_ctlreq.c **** 
 209:Middlewares/ST/STM32_USB_Device_Library/Core/Src/usbd_ctlreq.c ****         default:
 210:Middlewares/ST/STM32_USB_Device_Library/Core/Src/usbd_ctlreq.c ****           USBD_CtlError(pdev, req);
 211:Middlewares/ST/STM32_USB_Device_Library/Core/Src/usbd_ctlreq.c ****           break;
 212:Middlewares/ST/STM32_USB_Device_Library/Core/Src/usbd_ctlreq.c ****       }
 213:Middlewares/ST/STM32_USB_Device_Library/Core/Src/usbd_ctlreq.c ****       break;
 214:Middlewares/ST/STM32_USB_Device_Library/Core/Src/usbd_ctlreq.c **** 
 215:Middlewares/ST/STM32_USB_Device_Library/Core/Src/usbd_ctlreq.c ****     default:
 216:Middlewares/ST/STM32_USB_Device_Library/Core/Src/usbd_ctlreq.c ****       USBD_CtlError(pdev, req);
 217:Middlewares/ST/STM32_USB_Device_Library/Core/Src/usbd_ctlreq.c ****       break;
 218:Middlewares/ST/STM32_USB_Device_Library/Core/Src/usbd_ctlreq.c ****   }
 219:Middlewares/ST/STM32_USB_Device_Library/Core/Src/usbd_ctlreq.c **** 
 220:Middlewares/ST/STM32_USB_Device_Library/Core/Src/usbd_ctlreq.c ****   return USBD_OK;
 221:Middlewares/ST/STM32_USB_Device_Library/Core/Src/usbd_ctlreq.c **** }
 222:Middlewares/ST/STM32_USB_Device_Library/Core/Src/usbd_ctlreq.c **** 
 223:Middlewares/ST/STM32_USB_Device_Library/Core/Src/usbd_ctlreq.c **** /**
 224:Middlewares/ST/STM32_USB_Device_Library/Core/Src/usbd_ctlreq.c **** * @brief  USBD_StdEPReq
 225:Middlewares/ST/STM32_USB_Device_Library/Core/Src/usbd_ctlreq.c **** *         Handle standard usb endpoint requests
 226:Middlewares/ST/STM32_USB_Device_Library/Core/Src/usbd_ctlreq.c **** * @param  pdev: device instance
 227:Middlewares/ST/STM32_USB_Device_Library/Core/Src/usbd_ctlreq.c **** * @param  req: usb request
 228:Middlewares/ST/STM32_USB_Device_Library/Core/Src/usbd_ctlreq.c **** * @retval status
 229:Middlewares/ST/STM32_USB_Device_Library/Core/Src/usbd_ctlreq.c **** */
 230:Middlewares/ST/STM32_USB_Device_Library/Core/Src/usbd_ctlreq.c **** USBD_StatusTypeDef  USBD_StdEPReq(USBD_HandleTypeDef *pdev,
 231:Middlewares/ST/STM32_USB_Device_Library/Core/Src/usbd_ctlreq.c ****                                   USBD_SetupReqTypedef  *req)
 232:Middlewares/ST/STM32_USB_Device_Library/Core/Src/usbd_ctlreq.c **** {
 233:Middlewares/ST/STM32_USB_Device_Library/Core/Src/usbd_ctlreq.c ****   USBD_EndpointTypeDef *pep;
 234:Middlewares/ST/STM32_USB_Device_Library/Core/Src/usbd_ctlreq.c ****   uint8_t   ep_addr;
 235:Middlewares/ST/STM32_USB_Device_Library/Core/Src/usbd_ctlreq.c ****   USBD_StatusTypeDef ret = USBD_OK;
 236:Middlewares/ST/STM32_USB_Device_Library/Core/Src/usbd_ctlreq.c ****   ep_addr  = LOBYTE(req->wIndex);
 237:Middlewares/ST/STM32_USB_Device_Library/Core/Src/usbd_ctlreq.c **** 
 238:Middlewares/ST/STM32_USB_Device_Library/Core/Src/usbd_ctlreq.c ****   switch (req->bmRequest & USB_REQ_TYPE_MASK)
 239:Middlewares/ST/STM32_USB_Device_Library/Core/Src/usbd_ctlreq.c ****   {
 240:Middlewares/ST/STM32_USB_Device_Library/Core/Src/usbd_ctlreq.c ****     case USB_REQ_TYPE_CLASS:
 241:Middlewares/ST/STM32_USB_Device_Library/Core/Src/usbd_ctlreq.c ****     case USB_REQ_TYPE_VENDOR:
 242:Middlewares/ST/STM32_USB_Device_Library/Core/Src/usbd_ctlreq.c ****       pdev->pClass->Setup(pdev, req);
 243:Middlewares/ST/STM32_USB_Device_Library/Core/Src/usbd_ctlreq.c ****       break;
 244:Middlewares/ST/STM32_USB_Device_Library/Core/Src/usbd_ctlreq.c **** 
 245:Middlewares/ST/STM32_USB_Device_Library/Core/Src/usbd_ctlreq.c ****     case USB_REQ_TYPE_STANDARD:
 246:Middlewares/ST/STM32_USB_Device_Library/Core/Src/usbd_ctlreq.c ****       /* Check if it is a class request */
 247:Middlewares/ST/STM32_USB_Device_Library/Core/Src/usbd_ctlreq.c ****       if ((req->bmRequest & 0x60U) == 0x20U)
 248:Middlewares/ST/STM32_USB_Device_Library/Core/Src/usbd_ctlreq.c ****       {
 249:Middlewares/ST/STM32_USB_Device_Library/Core/Src/usbd_ctlreq.c ****         ret = (USBD_StatusTypeDef)pdev->pClass->Setup(pdev, req);
 250:Middlewares/ST/STM32_USB_Device_Library/Core/Src/usbd_ctlreq.c **** 
 251:Middlewares/ST/STM32_USB_Device_Library/Core/Src/usbd_ctlreq.c ****         return ret;
 252:Middlewares/ST/STM32_USB_Device_Library/Core/Src/usbd_ctlreq.c ****       }
 253:Middlewares/ST/STM32_USB_Device_Library/Core/Src/usbd_ctlreq.c **** 
 254:Middlewares/ST/STM32_USB_Device_Library/Core/Src/usbd_ctlreq.c ****       switch (req->bRequest)
 255:Middlewares/ST/STM32_USB_Device_Library/Core/Src/usbd_ctlreq.c ****       {
 256:Middlewares/ST/STM32_USB_Device_Library/Core/Src/usbd_ctlreq.c ****         case USB_REQ_SET_FEATURE:
 257:Middlewares/ST/STM32_USB_Device_Library/Core/Src/usbd_ctlreq.c ****           switch (pdev->dev_state)
 258:Middlewares/ST/STM32_USB_Device_Library/Core/Src/usbd_ctlreq.c ****           {
 259:Middlewares/ST/STM32_USB_Device_Library/Core/Src/usbd_ctlreq.c ****             case USBD_STATE_ADDRESSED:
 260:Middlewares/ST/STM32_USB_Device_Library/Core/Src/usbd_ctlreq.c ****               if ((ep_addr != 0x00U) && (ep_addr != 0x80U))
ARM GAS  C:\Users\Daniel\AppData\Local\Temp\ccTSPUfT.s 			page 6


 261:Middlewares/ST/STM32_USB_Device_Library/Core/Src/usbd_ctlreq.c ****               {
 262:Middlewares/ST/STM32_USB_Device_Library/Core/Src/usbd_ctlreq.c ****                 USBD_LL_StallEP(pdev, ep_addr);
 263:Middlewares/ST/STM32_USB_Device_Library/Core/Src/usbd_ctlreq.c ****                 USBD_LL_StallEP(pdev, 0x80U);
 264:Middlewares/ST/STM32_USB_Device_Library/Core/Src/usbd_ctlreq.c ****               }
 265:Middlewares/ST/STM32_USB_Device_Library/Core/Src/usbd_ctlreq.c ****               else
 266:Middlewares/ST/STM32_USB_Device_Library/Core/Src/usbd_ctlreq.c ****               {
 267:Middlewares/ST/STM32_USB_Device_Library/Core/Src/usbd_ctlreq.c ****                 USBD_CtlError(pdev, req);
 268:Middlewares/ST/STM32_USB_Device_Library/Core/Src/usbd_ctlreq.c ****               }
 269:Middlewares/ST/STM32_USB_Device_Library/Core/Src/usbd_ctlreq.c ****               break;
 270:Middlewares/ST/STM32_USB_Device_Library/Core/Src/usbd_ctlreq.c **** 
 271:Middlewares/ST/STM32_USB_Device_Library/Core/Src/usbd_ctlreq.c ****             case USBD_STATE_CONFIGURED:
 272:Middlewares/ST/STM32_USB_Device_Library/Core/Src/usbd_ctlreq.c ****               if (req->wValue == USB_FEATURE_EP_HALT)
 273:Middlewares/ST/STM32_USB_Device_Library/Core/Src/usbd_ctlreq.c ****               {
 274:Middlewares/ST/STM32_USB_Device_Library/Core/Src/usbd_ctlreq.c ****                 if ((ep_addr != 0x00U) &&
 275:Middlewares/ST/STM32_USB_Device_Library/Core/Src/usbd_ctlreq.c ****                     (ep_addr != 0x80U) && (req->wLength == 0x00U))
 276:Middlewares/ST/STM32_USB_Device_Library/Core/Src/usbd_ctlreq.c ****                 {
 277:Middlewares/ST/STM32_USB_Device_Library/Core/Src/usbd_ctlreq.c ****                   USBD_LL_StallEP(pdev, ep_addr);
 278:Middlewares/ST/STM32_USB_Device_Library/Core/Src/usbd_ctlreq.c ****                 }
 279:Middlewares/ST/STM32_USB_Device_Library/Core/Src/usbd_ctlreq.c ****               }
 280:Middlewares/ST/STM32_USB_Device_Library/Core/Src/usbd_ctlreq.c ****               USBD_CtlSendStatus(pdev);
 281:Middlewares/ST/STM32_USB_Device_Library/Core/Src/usbd_ctlreq.c **** 
 282:Middlewares/ST/STM32_USB_Device_Library/Core/Src/usbd_ctlreq.c ****               break;
 283:Middlewares/ST/STM32_USB_Device_Library/Core/Src/usbd_ctlreq.c **** 
 284:Middlewares/ST/STM32_USB_Device_Library/Core/Src/usbd_ctlreq.c ****             default:
 285:Middlewares/ST/STM32_USB_Device_Library/Core/Src/usbd_ctlreq.c ****               USBD_CtlError(pdev, req);
 286:Middlewares/ST/STM32_USB_Device_Library/Core/Src/usbd_ctlreq.c ****               break;
 287:Middlewares/ST/STM32_USB_Device_Library/Core/Src/usbd_ctlreq.c ****           }
 288:Middlewares/ST/STM32_USB_Device_Library/Core/Src/usbd_ctlreq.c ****           break;
 289:Middlewares/ST/STM32_USB_Device_Library/Core/Src/usbd_ctlreq.c **** 
 290:Middlewares/ST/STM32_USB_Device_Library/Core/Src/usbd_ctlreq.c ****         case USB_REQ_CLEAR_FEATURE:
 291:Middlewares/ST/STM32_USB_Device_Library/Core/Src/usbd_ctlreq.c **** 
 292:Middlewares/ST/STM32_USB_Device_Library/Core/Src/usbd_ctlreq.c ****           switch (pdev->dev_state)
 293:Middlewares/ST/STM32_USB_Device_Library/Core/Src/usbd_ctlreq.c ****           {
 294:Middlewares/ST/STM32_USB_Device_Library/Core/Src/usbd_ctlreq.c ****             case USBD_STATE_ADDRESSED:
 295:Middlewares/ST/STM32_USB_Device_Library/Core/Src/usbd_ctlreq.c ****               if ((ep_addr != 0x00U) && (ep_addr != 0x80U))
 296:Middlewares/ST/STM32_USB_Device_Library/Core/Src/usbd_ctlreq.c ****               {
 297:Middlewares/ST/STM32_USB_Device_Library/Core/Src/usbd_ctlreq.c ****                 USBD_LL_StallEP(pdev, ep_addr);
 298:Middlewares/ST/STM32_USB_Device_Library/Core/Src/usbd_ctlreq.c ****                 USBD_LL_StallEP(pdev, 0x80U);
 299:Middlewares/ST/STM32_USB_Device_Library/Core/Src/usbd_ctlreq.c ****               }
 300:Middlewares/ST/STM32_USB_Device_Library/Core/Src/usbd_ctlreq.c ****               else
 301:Middlewares/ST/STM32_USB_Device_Library/Core/Src/usbd_ctlreq.c ****               {
 302:Middlewares/ST/STM32_USB_Device_Library/Core/Src/usbd_ctlreq.c ****                 USBD_CtlError(pdev, req);
 303:Middlewares/ST/STM32_USB_Device_Library/Core/Src/usbd_ctlreq.c ****               }
 304:Middlewares/ST/STM32_USB_Device_Library/Core/Src/usbd_ctlreq.c ****               break;
 305:Middlewares/ST/STM32_USB_Device_Library/Core/Src/usbd_ctlreq.c **** 
 306:Middlewares/ST/STM32_USB_Device_Library/Core/Src/usbd_ctlreq.c ****             case USBD_STATE_CONFIGURED:
 307:Middlewares/ST/STM32_USB_Device_Library/Core/Src/usbd_ctlreq.c ****               if (req->wValue == USB_FEATURE_EP_HALT)
 308:Middlewares/ST/STM32_USB_Device_Library/Core/Src/usbd_ctlreq.c ****               {
 309:Middlewares/ST/STM32_USB_Device_Library/Core/Src/usbd_ctlreq.c ****                 if ((ep_addr & 0x7FU) != 0x00U)
 310:Middlewares/ST/STM32_USB_Device_Library/Core/Src/usbd_ctlreq.c ****                 {
 311:Middlewares/ST/STM32_USB_Device_Library/Core/Src/usbd_ctlreq.c ****                   USBD_LL_ClearStallEP(pdev, ep_addr);
 312:Middlewares/ST/STM32_USB_Device_Library/Core/Src/usbd_ctlreq.c ****                 }
 313:Middlewares/ST/STM32_USB_Device_Library/Core/Src/usbd_ctlreq.c ****                 USBD_CtlSendStatus(pdev);
 314:Middlewares/ST/STM32_USB_Device_Library/Core/Src/usbd_ctlreq.c ****               }
 315:Middlewares/ST/STM32_USB_Device_Library/Core/Src/usbd_ctlreq.c ****               break;
 316:Middlewares/ST/STM32_USB_Device_Library/Core/Src/usbd_ctlreq.c **** 
 317:Middlewares/ST/STM32_USB_Device_Library/Core/Src/usbd_ctlreq.c ****             default:
ARM GAS  C:\Users\Daniel\AppData\Local\Temp\ccTSPUfT.s 			page 7


 318:Middlewares/ST/STM32_USB_Device_Library/Core/Src/usbd_ctlreq.c ****               USBD_CtlError(pdev, req);
 319:Middlewares/ST/STM32_USB_Device_Library/Core/Src/usbd_ctlreq.c ****               break;
 320:Middlewares/ST/STM32_USB_Device_Library/Core/Src/usbd_ctlreq.c ****           }
 321:Middlewares/ST/STM32_USB_Device_Library/Core/Src/usbd_ctlreq.c ****           break;
 322:Middlewares/ST/STM32_USB_Device_Library/Core/Src/usbd_ctlreq.c **** 
 323:Middlewares/ST/STM32_USB_Device_Library/Core/Src/usbd_ctlreq.c ****         case USB_REQ_GET_STATUS:
 324:Middlewares/ST/STM32_USB_Device_Library/Core/Src/usbd_ctlreq.c ****           switch (pdev->dev_state)
 325:Middlewares/ST/STM32_USB_Device_Library/Core/Src/usbd_ctlreq.c ****           {
 326:Middlewares/ST/STM32_USB_Device_Library/Core/Src/usbd_ctlreq.c ****             case USBD_STATE_ADDRESSED:
 327:Middlewares/ST/STM32_USB_Device_Library/Core/Src/usbd_ctlreq.c ****               if ((ep_addr != 0x00U) && (ep_addr != 0x80U))
 328:Middlewares/ST/STM32_USB_Device_Library/Core/Src/usbd_ctlreq.c ****               {
 329:Middlewares/ST/STM32_USB_Device_Library/Core/Src/usbd_ctlreq.c ****                 USBD_CtlError(pdev, req);
 330:Middlewares/ST/STM32_USB_Device_Library/Core/Src/usbd_ctlreq.c ****                 break;
 331:Middlewares/ST/STM32_USB_Device_Library/Core/Src/usbd_ctlreq.c ****               }
 332:Middlewares/ST/STM32_USB_Device_Library/Core/Src/usbd_ctlreq.c ****               pep = ((ep_addr & 0x80U) == 0x80U) ? &pdev->ep_in[ep_addr & 0x7FU] : \
 333:Middlewares/ST/STM32_USB_Device_Library/Core/Src/usbd_ctlreq.c ****                     &pdev->ep_out[ep_addr & 0x7FU];
 334:Middlewares/ST/STM32_USB_Device_Library/Core/Src/usbd_ctlreq.c **** 
 335:Middlewares/ST/STM32_USB_Device_Library/Core/Src/usbd_ctlreq.c ****               pep->status = 0x0000U;
 336:Middlewares/ST/STM32_USB_Device_Library/Core/Src/usbd_ctlreq.c **** 
 337:Middlewares/ST/STM32_USB_Device_Library/Core/Src/usbd_ctlreq.c ****               USBD_CtlSendData(pdev, (uint8_t *)(void *)&pep->status, 2U);
 338:Middlewares/ST/STM32_USB_Device_Library/Core/Src/usbd_ctlreq.c ****               break;
 339:Middlewares/ST/STM32_USB_Device_Library/Core/Src/usbd_ctlreq.c **** 
 340:Middlewares/ST/STM32_USB_Device_Library/Core/Src/usbd_ctlreq.c ****             case USBD_STATE_CONFIGURED:
 341:Middlewares/ST/STM32_USB_Device_Library/Core/Src/usbd_ctlreq.c ****               if ((ep_addr & 0x80U) == 0x80U)
 342:Middlewares/ST/STM32_USB_Device_Library/Core/Src/usbd_ctlreq.c ****               {
 343:Middlewares/ST/STM32_USB_Device_Library/Core/Src/usbd_ctlreq.c ****                 if (pdev->ep_in[ep_addr & 0xFU].is_used == 0U)
 344:Middlewares/ST/STM32_USB_Device_Library/Core/Src/usbd_ctlreq.c ****                 {
 345:Middlewares/ST/STM32_USB_Device_Library/Core/Src/usbd_ctlreq.c ****                   USBD_CtlError(pdev, req);
 346:Middlewares/ST/STM32_USB_Device_Library/Core/Src/usbd_ctlreq.c ****                   break;
 347:Middlewares/ST/STM32_USB_Device_Library/Core/Src/usbd_ctlreq.c ****                 }
 348:Middlewares/ST/STM32_USB_Device_Library/Core/Src/usbd_ctlreq.c ****               }
 349:Middlewares/ST/STM32_USB_Device_Library/Core/Src/usbd_ctlreq.c ****               else
 350:Middlewares/ST/STM32_USB_Device_Library/Core/Src/usbd_ctlreq.c ****               {
 351:Middlewares/ST/STM32_USB_Device_Library/Core/Src/usbd_ctlreq.c ****                 if (pdev->ep_out[ep_addr & 0xFU].is_used == 0U)
 352:Middlewares/ST/STM32_USB_Device_Library/Core/Src/usbd_ctlreq.c ****                 {
 353:Middlewares/ST/STM32_USB_Device_Library/Core/Src/usbd_ctlreq.c ****                   USBD_CtlError(pdev, req);
 354:Middlewares/ST/STM32_USB_Device_Library/Core/Src/usbd_ctlreq.c ****                   break;
 355:Middlewares/ST/STM32_USB_Device_Library/Core/Src/usbd_ctlreq.c ****                 }
 356:Middlewares/ST/STM32_USB_Device_Library/Core/Src/usbd_ctlreq.c ****               }
 357:Middlewares/ST/STM32_USB_Device_Library/Core/Src/usbd_ctlreq.c **** 
 358:Middlewares/ST/STM32_USB_Device_Library/Core/Src/usbd_ctlreq.c ****               pep = ((ep_addr & 0x80U) == 0x80U) ? &pdev->ep_in[ep_addr & 0x7FU] : \
 359:Middlewares/ST/STM32_USB_Device_Library/Core/Src/usbd_ctlreq.c ****                     &pdev->ep_out[ep_addr & 0x7FU];
 360:Middlewares/ST/STM32_USB_Device_Library/Core/Src/usbd_ctlreq.c **** 
 361:Middlewares/ST/STM32_USB_Device_Library/Core/Src/usbd_ctlreq.c ****               if ((ep_addr == 0x00U) || (ep_addr == 0x80U))
 362:Middlewares/ST/STM32_USB_Device_Library/Core/Src/usbd_ctlreq.c ****               {
 363:Middlewares/ST/STM32_USB_Device_Library/Core/Src/usbd_ctlreq.c ****                 pep->status = 0x0000U;
 364:Middlewares/ST/STM32_USB_Device_Library/Core/Src/usbd_ctlreq.c ****               }
 365:Middlewares/ST/STM32_USB_Device_Library/Core/Src/usbd_ctlreq.c ****               else if (USBD_LL_IsStallEP(pdev, ep_addr))
 366:Middlewares/ST/STM32_USB_Device_Library/Core/Src/usbd_ctlreq.c ****               {
 367:Middlewares/ST/STM32_USB_Device_Library/Core/Src/usbd_ctlreq.c ****                 pep->status = 0x0001U;
 368:Middlewares/ST/STM32_USB_Device_Library/Core/Src/usbd_ctlreq.c ****               }
 369:Middlewares/ST/STM32_USB_Device_Library/Core/Src/usbd_ctlreq.c ****               else
 370:Middlewares/ST/STM32_USB_Device_Library/Core/Src/usbd_ctlreq.c ****               {
 371:Middlewares/ST/STM32_USB_Device_Library/Core/Src/usbd_ctlreq.c ****                 pep->status = 0x0000U;
 372:Middlewares/ST/STM32_USB_Device_Library/Core/Src/usbd_ctlreq.c ****               }
 373:Middlewares/ST/STM32_USB_Device_Library/Core/Src/usbd_ctlreq.c **** 
 374:Middlewares/ST/STM32_USB_Device_Library/Core/Src/usbd_ctlreq.c ****               USBD_CtlSendData(pdev, (uint8_t *)(void *)&pep->status, 2U);
ARM GAS  C:\Users\Daniel\AppData\Local\Temp\ccTSPUfT.s 			page 8


 375:Middlewares/ST/STM32_USB_Device_Library/Core/Src/usbd_ctlreq.c ****               break;
 376:Middlewares/ST/STM32_USB_Device_Library/Core/Src/usbd_ctlreq.c **** 
 377:Middlewares/ST/STM32_USB_Device_Library/Core/Src/usbd_ctlreq.c ****             default:
 378:Middlewares/ST/STM32_USB_Device_Library/Core/Src/usbd_ctlreq.c ****               USBD_CtlError(pdev, req);
 379:Middlewares/ST/STM32_USB_Device_Library/Core/Src/usbd_ctlreq.c ****               break;
 380:Middlewares/ST/STM32_USB_Device_Library/Core/Src/usbd_ctlreq.c ****           }
 381:Middlewares/ST/STM32_USB_Device_Library/Core/Src/usbd_ctlreq.c ****           break;
 382:Middlewares/ST/STM32_USB_Device_Library/Core/Src/usbd_ctlreq.c **** 
 383:Middlewares/ST/STM32_USB_Device_Library/Core/Src/usbd_ctlreq.c ****         default:
 384:Middlewares/ST/STM32_USB_Device_Library/Core/Src/usbd_ctlreq.c ****           USBD_CtlError(pdev, req);
 385:Middlewares/ST/STM32_USB_Device_Library/Core/Src/usbd_ctlreq.c ****           break;
 386:Middlewares/ST/STM32_USB_Device_Library/Core/Src/usbd_ctlreq.c ****       }
 387:Middlewares/ST/STM32_USB_Device_Library/Core/Src/usbd_ctlreq.c ****       break;
 388:Middlewares/ST/STM32_USB_Device_Library/Core/Src/usbd_ctlreq.c **** 
 389:Middlewares/ST/STM32_USB_Device_Library/Core/Src/usbd_ctlreq.c ****     default:
 390:Middlewares/ST/STM32_USB_Device_Library/Core/Src/usbd_ctlreq.c ****       USBD_CtlError(pdev, req);
 391:Middlewares/ST/STM32_USB_Device_Library/Core/Src/usbd_ctlreq.c ****       break;
 392:Middlewares/ST/STM32_USB_Device_Library/Core/Src/usbd_ctlreq.c ****   }
 393:Middlewares/ST/STM32_USB_Device_Library/Core/Src/usbd_ctlreq.c **** 
 394:Middlewares/ST/STM32_USB_Device_Library/Core/Src/usbd_ctlreq.c ****   return ret;
 395:Middlewares/ST/STM32_USB_Device_Library/Core/Src/usbd_ctlreq.c **** }
 396:Middlewares/ST/STM32_USB_Device_Library/Core/Src/usbd_ctlreq.c **** 
 397:Middlewares/ST/STM32_USB_Device_Library/Core/Src/usbd_ctlreq.c **** 
 398:Middlewares/ST/STM32_USB_Device_Library/Core/Src/usbd_ctlreq.c **** /**
 399:Middlewares/ST/STM32_USB_Device_Library/Core/Src/usbd_ctlreq.c **** * @brief  USBD_GetDescriptor
 400:Middlewares/ST/STM32_USB_Device_Library/Core/Src/usbd_ctlreq.c **** *         Handle Get Descriptor requests
 401:Middlewares/ST/STM32_USB_Device_Library/Core/Src/usbd_ctlreq.c **** * @param  pdev: device instance
 402:Middlewares/ST/STM32_USB_Device_Library/Core/Src/usbd_ctlreq.c **** * @param  req: usb request
 403:Middlewares/ST/STM32_USB_Device_Library/Core/Src/usbd_ctlreq.c **** * @retval status
 404:Middlewares/ST/STM32_USB_Device_Library/Core/Src/usbd_ctlreq.c **** */
 405:Middlewares/ST/STM32_USB_Device_Library/Core/Src/usbd_ctlreq.c **** static void USBD_GetDescriptor(USBD_HandleTypeDef *pdev,
 406:Middlewares/ST/STM32_USB_Device_Library/Core/Src/usbd_ctlreq.c ****                                USBD_SetupReqTypedef *req)
 407:Middlewares/ST/STM32_USB_Device_Library/Core/Src/usbd_ctlreq.c **** {
 408:Middlewares/ST/STM32_USB_Device_Library/Core/Src/usbd_ctlreq.c ****   uint16_t len = 0U;
 409:Middlewares/ST/STM32_USB_Device_Library/Core/Src/usbd_ctlreq.c ****   uint8_t *pbuf = NULL;
 410:Middlewares/ST/STM32_USB_Device_Library/Core/Src/usbd_ctlreq.c ****   uint8_t err = 0U;
 411:Middlewares/ST/STM32_USB_Device_Library/Core/Src/usbd_ctlreq.c **** 
 412:Middlewares/ST/STM32_USB_Device_Library/Core/Src/usbd_ctlreq.c ****   switch (req->wValue >> 8)
 413:Middlewares/ST/STM32_USB_Device_Library/Core/Src/usbd_ctlreq.c ****   {
 414:Middlewares/ST/STM32_USB_Device_Library/Core/Src/usbd_ctlreq.c **** #if (USBD_LPM_ENABLED == 1U)
 415:Middlewares/ST/STM32_USB_Device_Library/Core/Src/usbd_ctlreq.c ****     case USB_DESC_TYPE_BOS:
 416:Middlewares/ST/STM32_USB_Device_Library/Core/Src/usbd_ctlreq.c ****       if (pdev->pDesc->GetBOSDescriptor != NULL)
 417:Middlewares/ST/STM32_USB_Device_Library/Core/Src/usbd_ctlreq.c ****       {
 418:Middlewares/ST/STM32_USB_Device_Library/Core/Src/usbd_ctlreq.c ****         pbuf = pdev->pDesc->GetBOSDescriptor(pdev->dev_speed, &len);
 419:Middlewares/ST/STM32_USB_Device_Library/Core/Src/usbd_ctlreq.c ****       }
 420:Middlewares/ST/STM32_USB_Device_Library/Core/Src/usbd_ctlreq.c ****       else
 421:Middlewares/ST/STM32_USB_Device_Library/Core/Src/usbd_ctlreq.c ****       {
 422:Middlewares/ST/STM32_USB_Device_Library/Core/Src/usbd_ctlreq.c ****         USBD_CtlError(pdev, req);
 423:Middlewares/ST/STM32_USB_Device_Library/Core/Src/usbd_ctlreq.c ****         err++;
 424:Middlewares/ST/STM32_USB_Device_Library/Core/Src/usbd_ctlreq.c ****       }
 425:Middlewares/ST/STM32_USB_Device_Library/Core/Src/usbd_ctlreq.c ****       break;
 426:Middlewares/ST/STM32_USB_Device_Library/Core/Src/usbd_ctlreq.c **** #endif
 427:Middlewares/ST/STM32_USB_Device_Library/Core/Src/usbd_ctlreq.c ****     case USB_DESC_TYPE_DEVICE:
 428:Middlewares/ST/STM32_USB_Device_Library/Core/Src/usbd_ctlreq.c ****       pbuf = pdev->pDesc->GetDeviceDescriptor(pdev->dev_speed, &len);
 429:Middlewares/ST/STM32_USB_Device_Library/Core/Src/usbd_ctlreq.c ****       break;
 430:Middlewares/ST/STM32_USB_Device_Library/Core/Src/usbd_ctlreq.c **** 
 431:Middlewares/ST/STM32_USB_Device_Library/Core/Src/usbd_ctlreq.c ****     case USB_DESC_TYPE_CONFIGURATION:
ARM GAS  C:\Users\Daniel\AppData\Local\Temp\ccTSPUfT.s 			page 9


 432:Middlewares/ST/STM32_USB_Device_Library/Core/Src/usbd_ctlreq.c ****       if (pdev->dev_speed == USBD_SPEED_HIGH)
 433:Middlewares/ST/STM32_USB_Device_Library/Core/Src/usbd_ctlreq.c ****       {
 434:Middlewares/ST/STM32_USB_Device_Library/Core/Src/usbd_ctlreq.c ****         pbuf = pdev->pClass->GetHSConfigDescriptor(&len);
 435:Middlewares/ST/STM32_USB_Device_Library/Core/Src/usbd_ctlreq.c ****         pbuf[1] = USB_DESC_TYPE_CONFIGURATION;
 436:Middlewares/ST/STM32_USB_Device_Library/Core/Src/usbd_ctlreq.c ****       }
 437:Middlewares/ST/STM32_USB_Device_Library/Core/Src/usbd_ctlreq.c ****       else
 438:Middlewares/ST/STM32_USB_Device_Library/Core/Src/usbd_ctlreq.c ****       {
 439:Middlewares/ST/STM32_USB_Device_Library/Core/Src/usbd_ctlreq.c ****         pbuf = pdev->pClass->GetFSConfigDescriptor(&len);
 440:Middlewares/ST/STM32_USB_Device_Library/Core/Src/usbd_ctlreq.c ****         pbuf[1] = USB_DESC_TYPE_CONFIGURATION;
 441:Middlewares/ST/STM32_USB_Device_Library/Core/Src/usbd_ctlreq.c ****       }
 442:Middlewares/ST/STM32_USB_Device_Library/Core/Src/usbd_ctlreq.c ****       break;
 443:Middlewares/ST/STM32_USB_Device_Library/Core/Src/usbd_ctlreq.c **** 
 444:Middlewares/ST/STM32_USB_Device_Library/Core/Src/usbd_ctlreq.c ****     case USB_DESC_TYPE_STRING:
 445:Middlewares/ST/STM32_USB_Device_Library/Core/Src/usbd_ctlreq.c ****       switch ((uint8_t)(req->wValue))
 446:Middlewares/ST/STM32_USB_Device_Library/Core/Src/usbd_ctlreq.c ****       {
 447:Middlewares/ST/STM32_USB_Device_Library/Core/Src/usbd_ctlreq.c ****         case USBD_IDX_LANGID_STR:
 448:Middlewares/ST/STM32_USB_Device_Library/Core/Src/usbd_ctlreq.c ****           if (pdev->pDesc->GetLangIDStrDescriptor != NULL)
 449:Middlewares/ST/STM32_USB_Device_Library/Core/Src/usbd_ctlreq.c ****           {
 450:Middlewares/ST/STM32_USB_Device_Library/Core/Src/usbd_ctlreq.c ****             pbuf = pdev->pDesc->GetLangIDStrDescriptor(pdev->dev_speed, &len);
 451:Middlewares/ST/STM32_USB_Device_Library/Core/Src/usbd_ctlreq.c ****           }
 452:Middlewares/ST/STM32_USB_Device_Library/Core/Src/usbd_ctlreq.c ****           else
 453:Middlewares/ST/STM32_USB_Device_Library/Core/Src/usbd_ctlreq.c ****           {
 454:Middlewares/ST/STM32_USB_Device_Library/Core/Src/usbd_ctlreq.c ****             USBD_CtlError(pdev, req);
 455:Middlewares/ST/STM32_USB_Device_Library/Core/Src/usbd_ctlreq.c ****             err++;
 456:Middlewares/ST/STM32_USB_Device_Library/Core/Src/usbd_ctlreq.c ****           }
 457:Middlewares/ST/STM32_USB_Device_Library/Core/Src/usbd_ctlreq.c ****           break;
 458:Middlewares/ST/STM32_USB_Device_Library/Core/Src/usbd_ctlreq.c **** 
 459:Middlewares/ST/STM32_USB_Device_Library/Core/Src/usbd_ctlreq.c ****         case USBD_IDX_MFC_STR:
 460:Middlewares/ST/STM32_USB_Device_Library/Core/Src/usbd_ctlreq.c ****           if (pdev->pDesc->GetManufacturerStrDescriptor != NULL)
 461:Middlewares/ST/STM32_USB_Device_Library/Core/Src/usbd_ctlreq.c ****           {
 462:Middlewares/ST/STM32_USB_Device_Library/Core/Src/usbd_ctlreq.c ****             pbuf = pdev->pDesc->GetManufacturerStrDescriptor(pdev->dev_speed, &len);
 463:Middlewares/ST/STM32_USB_Device_Library/Core/Src/usbd_ctlreq.c ****           }
 464:Middlewares/ST/STM32_USB_Device_Library/Core/Src/usbd_ctlreq.c ****           else
 465:Middlewares/ST/STM32_USB_Device_Library/Core/Src/usbd_ctlreq.c ****           {
 466:Middlewares/ST/STM32_USB_Device_Library/Core/Src/usbd_ctlreq.c ****             USBD_CtlError(pdev, req);
 467:Middlewares/ST/STM32_USB_Device_Library/Core/Src/usbd_ctlreq.c ****             err++;
 468:Middlewares/ST/STM32_USB_Device_Library/Core/Src/usbd_ctlreq.c ****           }
 469:Middlewares/ST/STM32_USB_Device_Library/Core/Src/usbd_ctlreq.c ****           break;
 470:Middlewares/ST/STM32_USB_Device_Library/Core/Src/usbd_ctlreq.c **** 
 471:Middlewares/ST/STM32_USB_Device_Library/Core/Src/usbd_ctlreq.c ****         case USBD_IDX_PRODUCT_STR:
 472:Middlewares/ST/STM32_USB_Device_Library/Core/Src/usbd_ctlreq.c ****           if (pdev->pDesc->GetProductStrDescriptor != NULL)
 473:Middlewares/ST/STM32_USB_Device_Library/Core/Src/usbd_ctlreq.c ****           {
 474:Middlewares/ST/STM32_USB_Device_Library/Core/Src/usbd_ctlreq.c ****             pbuf = pdev->pDesc->GetProductStrDescriptor(pdev->dev_speed, &len);
 475:Middlewares/ST/STM32_USB_Device_Library/Core/Src/usbd_ctlreq.c ****           }
 476:Middlewares/ST/STM32_USB_Device_Library/Core/Src/usbd_ctlreq.c ****           else
 477:Middlewares/ST/STM32_USB_Device_Library/Core/Src/usbd_ctlreq.c ****           {
 478:Middlewares/ST/STM32_USB_Device_Library/Core/Src/usbd_ctlreq.c ****             USBD_CtlError(pdev, req);
 479:Middlewares/ST/STM32_USB_Device_Library/Core/Src/usbd_ctlreq.c ****             err++;
 480:Middlewares/ST/STM32_USB_Device_Library/Core/Src/usbd_ctlreq.c ****           }
 481:Middlewares/ST/STM32_USB_Device_Library/Core/Src/usbd_ctlreq.c ****           break;
 482:Middlewares/ST/STM32_USB_Device_Library/Core/Src/usbd_ctlreq.c **** 
 483:Middlewares/ST/STM32_USB_Device_Library/Core/Src/usbd_ctlreq.c ****         case USBD_IDX_SERIAL_STR:
 484:Middlewares/ST/STM32_USB_Device_Library/Core/Src/usbd_ctlreq.c ****           if (pdev->pDesc->GetSerialStrDescriptor != NULL)
 485:Middlewares/ST/STM32_USB_Device_Library/Core/Src/usbd_ctlreq.c ****           {
 486:Middlewares/ST/STM32_USB_Device_Library/Core/Src/usbd_ctlreq.c ****             pbuf = pdev->pDesc->GetSerialStrDescriptor(pdev->dev_speed, &len);
 487:Middlewares/ST/STM32_USB_Device_Library/Core/Src/usbd_ctlreq.c ****           }
 488:Middlewares/ST/STM32_USB_Device_Library/Core/Src/usbd_ctlreq.c ****           else
ARM GAS  C:\Users\Daniel\AppData\Local\Temp\ccTSPUfT.s 			page 10


 489:Middlewares/ST/STM32_USB_Device_Library/Core/Src/usbd_ctlreq.c ****           {
 490:Middlewares/ST/STM32_USB_Device_Library/Core/Src/usbd_ctlreq.c ****             USBD_CtlError(pdev, req);
 491:Middlewares/ST/STM32_USB_Device_Library/Core/Src/usbd_ctlreq.c ****             err++;
 492:Middlewares/ST/STM32_USB_Device_Library/Core/Src/usbd_ctlreq.c ****           }
 493:Middlewares/ST/STM32_USB_Device_Library/Core/Src/usbd_ctlreq.c ****           break;
 494:Middlewares/ST/STM32_USB_Device_Library/Core/Src/usbd_ctlreq.c **** 
 495:Middlewares/ST/STM32_USB_Device_Library/Core/Src/usbd_ctlreq.c ****         case USBD_IDX_CONFIG_STR:
 496:Middlewares/ST/STM32_USB_Device_Library/Core/Src/usbd_ctlreq.c ****           if (pdev->pDesc->GetConfigurationStrDescriptor != NULL)
 497:Middlewares/ST/STM32_USB_Device_Library/Core/Src/usbd_ctlreq.c ****           {
 498:Middlewares/ST/STM32_USB_Device_Library/Core/Src/usbd_ctlreq.c ****             pbuf = pdev->pDesc->GetConfigurationStrDescriptor(pdev->dev_speed, &len);
 499:Middlewares/ST/STM32_USB_Device_Library/Core/Src/usbd_ctlreq.c ****           }
 500:Middlewares/ST/STM32_USB_Device_Library/Core/Src/usbd_ctlreq.c ****           else
 501:Middlewares/ST/STM32_USB_Device_Library/Core/Src/usbd_ctlreq.c ****           {
 502:Middlewares/ST/STM32_USB_Device_Library/Core/Src/usbd_ctlreq.c ****             USBD_CtlError(pdev, req);
 503:Middlewares/ST/STM32_USB_Device_Library/Core/Src/usbd_ctlreq.c ****             err++;
 504:Middlewares/ST/STM32_USB_Device_Library/Core/Src/usbd_ctlreq.c ****           }
 505:Middlewares/ST/STM32_USB_Device_Library/Core/Src/usbd_ctlreq.c ****           break;
 506:Middlewares/ST/STM32_USB_Device_Library/Core/Src/usbd_ctlreq.c **** 
 507:Middlewares/ST/STM32_USB_Device_Library/Core/Src/usbd_ctlreq.c ****         case USBD_IDX_INTERFACE_STR:
 508:Middlewares/ST/STM32_USB_Device_Library/Core/Src/usbd_ctlreq.c ****           if (pdev->pDesc->GetInterfaceStrDescriptor != NULL)
 509:Middlewares/ST/STM32_USB_Device_Library/Core/Src/usbd_ctlreq.c ****           {
 510:Middlewares/ST/STM32_USB_Device_Library/Core/Src/usbd_ctlreq.c ****             pbuf = pdev->pDesc->GetInterfaceStrDescriptor(pdev->dev_speed, &len);
 511:Middlewares/ST/STM32_USB_Device_Library/Core/Src/usbd_ctlreq.c ****           }
 512:Middlewares/ST/STM32_USB_Device_Library/Core/Src/usbd_ctlreq.c ****           else
 513:Middlewares/ST/STM32_USB_Device_Library/Core/Src/usbd_ctlreq.c ****           {
 514:Middlewares/ST/STM32_USB_Device_Library/Core/Src/usbd_ctlreq.c ****             USBD_CtlError(pdev, req);
 515:Middlewares/ST/STM32_USB_Device_Library/Core/Src/usbd_ctlreq.c ****             err++;
 516:Middlewares/ST/STM32_USB_Device_Library/Core/Src/usbd_ctlreq.c ****           }
 517:Middlewares/ST/STM32_USB_Device_Library/Core/Src/usbd_ctlreq.c ****           break;
 518:Middlewares/ST/STM32_USB_Device_Library/Core/Src/usbd_ctlreq.c **** 
 519:Middlewares/ST/STM32_USB_Device_Library/Core/Src/usbd_ctlreq.c ****         default:
 520:Middlewares/ST/STM32_USB_Device_Library/Core/Src/usbd_ctlreq.c **** #if (USBD_SUPPORT_USER_STRING_DESC == 1U)
 521:Middlewares/ST/STM32_USB_Device_Library/Core/Src/usbd_ctlreq.c ****           if (pdev->pClass->GetUsrStrDescriptor != NULL)
 522:Middlewares/ST/STM32_USB_Device_Library/Core/Src/usbd_ctlreq.c ****           {
 523:Middlewares/ST/STM32_USB_Device_Library/Core/Src/usbd_ctlreq.c ****             pbuf = pdev->pClass->GetUsrStrDescriptor(pdev, (req->wValue), &len);
 524:Middlewares/ST/STM32_USB_Device_Library/Core/Src/usbd_ctlreq.c ****           }
 525:Middlewares/ST/STM32_USB_Device_Library/Core/Src/usbd_ctlreq.c ****           else
 526:Middlewares/ST/STM32_USB_Device_Library/Core/Src/usbd_ctlreq.c ****           {
 527:Middlewares/ST/STM32_USB_Device_Library/Core/Src/usbd_ctlreq.c ****             USBD_CtlError(pdev, req);
 528:Middlewares/ST/STM32_USB_Device_Library/Core/Src/usbd_ctlreq.c ****             err++;
 529:Middlewares/ST/STM32_USB_Device_Library/Core/Src/usbd_ctlreq.c ****           }
 530:Middlewares/ST/STM32_USB_Device_Library/Core/Src/usbd_ctlreq.c ****           break;
 531:Middlewares/ST/STM32_USB_Device_Library/Core/Src/usbd_ctlreq.c **** #else
 532:Middlewares/ST/STM32_USB_Device_Library/Core/Src/usbd_ctlreq.c ****           USBD_CtlError(pdev, req);
 533:Middlewares/ST/STM32_USB_Device_Library/Core/Src/usbd_ctlreq.c ****           err++;
 534:Middlewares/ST/STM32_USB_Device_Library/Core/Src/usbd_ctlreq.c **** #endif
 535:Middlewares/ST/STM32_USB_Device_Library/Core/Src/usbd_ctlreq.c ****       }
 536:Middlewares/ST/STM32_USB_Device_Library/Core/Src/usbd_ctlreq.c ****       break;
 537:Middlewares/ST/STM32_USB_Device_Library/Core/Src/usbd_ctlreq.c **** 
 538:Middlewares/ST/STM32_USB_Device_Library/Core/Src/usbd_ctlreq.c ****     case USB_DESC_TYPE_DEVICE_QUALIFIER:
 539:Middlewares/ST/STM32_USB_Device_Library/Core/Src/usbd_ctlreq.c ****       if (pdev->dev_speed == USBD_SPEED_HIGH)
 540:Middlewares/ST/STM32_USB_Device_Library/Core/Src/usbd_ctlreq.c ****       {
 541:Middlewares/ST/STM32_USB_Device_Library/Core/Src/usbd_ctlreq.c ****         pbuf = pdev->pClass->GetDeviceQualifierDescriptor(&len);
 542:Middlewares/ST/STM32_USB_Device_Library/Core/Src/usbd_ctlreq.c ****       }
 543:Middlewares/ST/STM32_USB_Device_Library/Core/Src/usbd_ctlreq.c ****       else
 544:Middlewares/ST/STM32_USB_Device_Library/Core/Src/usbd_ctlreq.c ****       {
 545:Middlewares/ST/STM32_USB_Device_Library/Core/Src/usbd_ctlreq.c ****         USBD_CtlError(pdev, req);
ARM GAS  C:\Users\Daniel\AppData\Local\Temp\ccTSPUfT.s 			page 11


 546:Middlewares/ST/STM32_USB_Device_Library/Core/Src/usbd_ctlreq.c ****         err++;
 547:Middlewares/ST/STM32_USB_Device_Library/Core/Src/usbd_ctlreq.c ****       }
 548:Middlewares/ST/STM32_USB_Device_Library/Core/Src/usbd_ctlreq.c ****       break;
 549:Middlewares/ST/STM32_USB_Device_Library/Core/Src/usbd_ctlreq.c **** 
 550:Middlewares/ST/STM32_USB_Device_Library/Core/Src/usbd_ctlreq.c ****     case USB_DESC_TYPE_OTHER_SPEED_CONFIGURATION:
 551:Middlewares/ST/STM32_USB_Device_Library/Core/Src/usbd_ctlreq.c ****       if (pdev->dev_speed == USBD_SPEED_HIGH)
 552:Middlewares/ST/STM32_USB_Device_Library/Core/Src/usbd_ctlreq.c ****       {
 553:Middlewares/ST/STM32_USB_Device_Library/Core/Src/usbd_ctlreq.c ****         pbuf = pdev->pClass->GetOtherSpeedConfigDescriptor(&len);
 554:Middlewares/ST/STM32_USB_Device_Library/Core/Src/usbd_ctlreq.c ****         pbuf[1] = USB_DESC_TYPE_OTHER_SPEED_CONFIGURATION;
 555:Middlewares/ST/STM32_USB_Device_Library/Core/Src/usbd_ctlreq.c ****       }
 556:Middlewares/ST/STM32_USB_Device_Library/Core/Src/usbd_ctlreq.c ****       else
 557:Middlewares/ST/STM32_USB_Device_Library/Core/Src/usbd_ctlreq.c ****       {
 558:Middlewares/ST/STM32_USB_Device_Library/Core/Src/usbd_ctlreq.c ****         USBD_CtlError(pdev, req);
 559:Middlewares/ST/STM32_USB_Device_Library/Core/Src/usbd_ctlreq.c ****         err++;
 560:Middlewares/ST/STM32_USB_Device_Library/Core/Src/usbd_ctlreq.c ****       }
 561:Middlewares/ST/STM32_USB_Device_Library/Core/Src/usbd_ctlreq.c ****       break;
 562:Middlewares/ST/STM32_USB_Device_Library/Core/Src/usbd_ctlreq.c **** 
 563:Middlewares/ST/STM32_USB_Device_Library/Core/Src/usbd_ctlreq.c ****     default:
 564:Middlewares/ST/STM32_USB_Device_Library/Core/Src/usbd_ctlreq.c ****       USBD_CtlError(pdev, req);
 565:Middlewares/ST/STM32_USB_Device_Library/Core/Src/usbd_ctlreq.c ****       err++;
 566:Middlewares/ST/STM32_USB_Device_Library/Core/Src/usbd_ctlreq.c ****       break;
 567:Middlewares/ST/STM32_USB_Device_Library/Core/Src/usbd_ctlreq.c ****   }
 568:Middlewares/ST/STM32_USB_Device_Library/Core/Src/usbd_ctlreq.c **** 
 569:Middlewares/ST/STM32_USB_Device_Library/Core/Src/usbd_ctlreq.c ****   if (err != 0U)
 570:Middlewares/ST/STM32_USB_Device_Library/Core/Src/usbd_ctlreq.c ****   {
 571:Middlewares/ST/STM32_USB_Device_Library/Core/Src/usbd_ctlreq.c ****     return;
 572:Middlewares/ST/STM32_USB_Device_Library/Core/Src/usbd_ctlreq.c ****   }
 573:Middlewares/ST/STM32_USB_Device_Library/Core/Src/usbd_ctlreq.c ****   else
 574:Middlewares/ST/STM32_USB_Device_Library/Core/Src/usbd_ctlreq.c ****   {
 575:Middlewares/ST/STM32_USB_Device_Library/Core/Src/usbd_ctlreq.c ****     if ((len != 0U) && (req->wLength != 0U))
 576:Middlewares/ST/STM32_USB_Device_Library/Core/Src/usbd_ctlreq.c ****     {
 577:Middlewares/ST/STM32_USB_Device_Library/Core/Src/usbd_ctlreq.c ****       len = MIN(len, req->wLength);
 578:Middlewares/ST/STM32_USB_Device_Library/Core/Src/usbd_ctlreq.c ****       (void)USBD_CtlSendData(pdev, pbuf, len);
 579:Middlewares/ST/STM32_USB_Device_Library/Core/Src/usbd_ctlreq.c ****     }
 580:Middlewares/ST/STM32_USB_Device_Library/Core/Src/usbd_ctlreq.c **** 
 581:Middlewares/ST/STM32_USB_Device_Library/Core/Src/usbd_ctlreq.c ****     if (req->wLength == 0U)
 582:Middlewares/ST/STM32_USB_Device_Library/Core/Src/usbd_ctlreq.c ****     {
 583:Middlewares/ST/STM32_USB_Device_Library/Core/Src/usbd_ctlreq.c ****       (void)USBD_CtlSendStatus(pdev);
 584:Middlewares/ST/STM32_USB_Device_Library/Core/Src/usbd_ctlreq.c ****     }
 585:Middlewares/ST/STM32_USB_Device_Library/Core/Src/usbd_ctlreq.c ****   }
 586:Middlewares/ST/STM32_USB_Device_Library/Core/Src/usbd_ctlreq.c **** }
 587:Middlewares/ST/STM32_USB_Device_Library/Core/Src/usbd_ctlreq.c **** 
 588:Middlewares/ST/STM32_USB_Device_Library/Core/Src/usbd_ctlreq.c **** /**
 589:Middlewares/ST/STM32_USB_Device_Library/Core/Src/usbd_ctlreq.c **** * @brief  USBD_SetAddress
 590:Middlewares/ST/STM32_USB_Device_Library/Core/Src/usbd_ctlreq.c **** *         Set device address
 591:Middlewares/ST/STM32_USB_Device_Library/Core/Src/usbd_ctlreq.c **** * @param  pdev: device instance
 592:Middlewares/ST/STM32_USB_Device_Library/Core/Src/usbd_ctlreq.c **** * @param  req: usb request
 593:Middlewares/ST/STM32_USB_Device_Library/Core/Src/usbd_ctlreq.c **** * @retval status
 594:Middlewares/ST/STM32_USB_Device_Library/Core/Src/usbd_ctlreq.c **** */
 595:Middlewares/ST/STM32_USB_Device_Library/Core/Src/usbd_ctlreq.c **** static void USBD_SetAddress(USBD_HandleTypeDef *pdev,
 596:Middlewares/ST/STM32_USB_Device_Library/Core/Src/usbd_ctlreq.c ****                             USBD_SetupReqTypedef *req)
 597:Middlewares/ST/STM32_USB_Device_Library/Core/Src/usbd_ctlreq.c **** {
 598:Middlewares/ST/STM32_USB_Device_Library/Core/Src/usbd_ctlreq.c ****   uint8_t  dev_addr;
 599:Middlewares/ST/STM32_USB_Device_Library/Core/Src/usbd_ctlreq.c **** 
 600:Middlewares/ST/STM32_USB_Device_Library/Core/Src/usbd_ctlreq.c ****   if ((req->wIndex == 0U) && (req->wLength == 0U) && (req->wValue < 128U))
 601:Middlewares/ST/STM32_USB_Device_Library/Core/Src/usbd_ctlreq.c ****   {
 602:Middlewares/ST/STM32_USB_Device_Library/Core/Src/usbd_ctlreq.c ****     dev_addr = (uint8_t)(req->wValue) & 0x7FU;
ARM GAS  C:\Users\Daniel\AppData\Local\Temp\ccTSPUfT.s 			page 12


 603:Middlewares/ST/STM32_USB_Device_Library/Core/Src/usbd_ctlreq.c **** 
 604:Middlewares/ST/STM32_USB_Device_Library/Core/Src/usbd_ctlreq.c ****     if (pdev->dev_state == USBD_STATE_CONFIGURED)
 605:Middlewares/ST/STM32_USB_Device_Library/Core/Src/usbd_ctlreq.c ****     {
 606:Middlewares/ST/STM32_USB_Device_Library/Core/Src/usbd_ctlreq.c ****       USBD_CtlError(pdev, req);
 607:Middlewares/ST/STM32_USB_Device_Library/Core/Src/usbd_ctlreq.c ****     }
 608:Middlewares/ST/STM32_USB_Device_Library/Core/Src/usbd_ctlreq.c ****     else
 609:Middlewares/ST/STM32_USB_Device_Library/Core/Src/usbd_ctlreq.c ****     {
 610:Middlewares/ST/STM32_USB_Device_Library/Core/Src/usbd_ctlreq.c ****       pdev->dev_address = dev_addr;
 611:Middlewares/ST/STM32_USB_Device_Library/Core/Src/usbd_ctlreq.c ****       USBD_LL_SetUSBAddress(pdev, dev_addr);
 612:Middlewares/ST/STM32_USB_Device_Library/Core/Src/usbd_ctlreq.c ****       USBD_CtlSendStatus(pdev);
 613:Middlewares/ST/STM32_USB_Device_Library/Core/Src/usbd_ctlreq.c **** 
 614:Middlewares/ST/STM32_USB_Device_Library/Core/Src/usbd_ctlreq.c ****       if (dev_addr != 0U)
 615:Middlewares/ST/STM32_USB_Device_Library/Core/Src/usbd_ctlreq.c ****       {
 616:Middlewares/ST/STM32_USB_Device_Library/Core/Src/usbd_ctlreq.c ****         pdev->dev_state = USBD_STATE_ADDRESSED;
 617:Middlewares/ST/STM32_USB_Device_Library/Core/Src/usbd_ctlreq.c ****       }
 618:Middlewares/ST/STM32_USB_Device_Library/Core/Src/usbd_ctlreq.c ****       else
 619:Middlewares/ST/STM32_USB_Device_Library/Core/Src/usbd_ctlreq.c ****       {
 620:Middlewares/ST/STM32_USB_Device_Library/Core/Src/usbd_ctlreq.c ****         pdev->dev_state = USBD_STATE_DEFAULT;
 621:Middlewares/ST/STM32_USB_Device_Library/Core/Src/usbd_ctlreq.c ****       }
 622:Middlewares/ST/STM32_USB_Device_Library/Core/Src/usbd_ctlreq.c ****     }
 623:Middlewares/ST/STM32_USB_Device_Library/Core/Src/usbd_ctlreq.c ****   }
 624:Middlewares/ST/STM32_USB_Device_Library/Core/Src/usbd_ctlreq.c ****   else
 625:Middlewares/ST/STM32_USB_Device_Library/Core/Src/usbd_ctlreq.c ****   {
 626:Middlewares/ST/STM32_USB_Device_Library/Core/Src/usbd_ctlreq.c ****     USBD_CtlError(pdev, req);
 627:Middlewares/ST/STM32_USB_Device_Library/Core/Src/usbd_ctlreq.c ****   }
 628:Middlewares/ST/STM32_USB_Device_Library/Core/Src/usbd_ctlreq.c **** }
 629:Middlewares/ST/STM32_USB_Device_Library/Core/Src/usbd_ctlreq.c **** 
 630:Middlewares/ST/STM32_USB_Device_Library/Core/Src/usbd_ctlreq.c **** /**
 631:Middlewares/ST/STM32_USB_Device_Library/Core/Src/usbd_ctlreq.c **** * @brief  USBD_SetConfig
 632:Middlewares/ST/STM32_USB_Device_Library/Core/Src/usbd_ctlreq.c **** *         Handle Set device configuration request
 633:Middlewares/ST/STM32_USB_Device_Library/Core/Src/usbd_ctlreq.c **** * @param  pdev: device instance
 634:Middlewares/ST/STM32_USB_Device_Library/Core/Src/usbd_ctlreq.c **** * @param  req: usb request
 635:Middlewares/ST/STM32_USB_Device_Library/Core/Src/usbd_ctlreq.c **** * @retval status
 636:Middlewares/ST/STM32_USB_Device_Library/Core/Src/usbd_ctlreq.c **** */
 637:Middlewares/ST/STM32_USB_Device_Library/Core/Src/usbd_ctlreq.c **** static void USBD_SetConfig(USBD_HandleTypeDef *pdev, USBD_SetupReqTypedef *req)
 638:Middlewares/ST/STM32_USB_Device_Library/Core/Src/usbd_ctlreq.c **** {
 639:Middlewares/ST/STM32_USB_Device_Library/Core/Src/usbd_ctlreq.c ****   static uint8_t cfgidx;
 640:Middlewares/ST/STM32_USB_Device_Library/Core/Src/usbd_ctlreq.c **** 
 641:Middlewares/ST/STM32_USB_Device_Library/Core/Src/usbd_ctlreq.c ****   cfgidx = (uint8_t)(req->wValue);
 642:Middlewares/ST/STM32_USB_Device_Library/Core/Src/usbd_ctlreq.c **** 
 643:Middlewares/ST/STM32_USB_Device_Library/Core/Src/usbd_ctlreq.c ****   if (cfgidx > USBD_MAX_NUM_CONFIGURATION)
 644:Middlewares/ST/STM32_USB_Device_Library/Core/Src/usbd_ctlreq.c ****   {
 645:Middlewares/ST/STM32_USB_Device_Library/Core/Src/usbd_ctlreq.c ****     USBD_CtlError(pdev, req);
 646:Middlewares/ST/STM32_USB_Device_Library/Core/Src/usbd_ctlreq.c ****   }
 647:Middlewares/ST/STM32_USB_Device_Library/Core/Src/usbd_ctlreq.c ****   else
 648:Middlewares/ST/STM32_USB_Device_Library/Core/Src/usbd_ctlreq.c ****   {
 649:Middlewares/ST/STM32_USB_Device_Library/Core/Src/usbd_ctlreq.c ****     switch (pdev->dev_state)
 650:Middlewares/ST/STM32_USB_Device_Library/Core/Src/usbd_ctlreq.c ****     {
 651:Middlewares/ST/STM32_USB_Device_Library/Core/Src/usbd_ctlreq.c ****       case USBD_STATE_ADDRESSED:
 652:Middlewares/ST/STM32_USB_Device_Library/Core/Src/usbd_ctlreq.c ****         if (cfgidx)
 653:Middlewares/ST/STM32_USB_Device_Library/Core/Src/usbd_ctlreq.c ****         {
 654:Middlewares/ST/STM32_USB_Device_Library/Core/Src/usbd_ctlreq.c ****           pdev->dev_config = cfgidx;
 655:Middlewares/ST/STM32_USB_Device_Library/Core/Src/usbd_ctlreq.c ****           pdev->dev_state = USBD_STATE_CONFIGURED;
 656:Middlewares/ST/STM32_USB_Device_Library/Core/Src/usbd_ctlreq.c ****           if (USBD_SetClassConfig(pdev, cfgidx) == USBD_FAIL)
 657:Middlewares/ST/STM32_USB_Device_Library/Core/Src/usbd_ctlreq.c ****           {
 658:Middlewares/ST/STM32_USB_Device_Library/Core/Src/usbd_ctlreq.c ****             USBD_CtlError(pdev, req);
 659:Middlewares/ST/STM32_USB_Device_Library/Core/Src/usbd_ctlreq.c ****             return;
ARM GAS  C:\Users\Daniel\AppData\Local\Temp\ccTSPUfT.s 			page 13


 660:Middlewares/ST/STM32_USB_Device_Library/Core/Src/usbd_ctlreq.c ****           }
 661:Middlewares/ST/STM32_USB_Device_Library/Core/Src/usbd_ctlreq.c ****           USBD_CtlSendStatus(pdev);
 662:Middlewares/ST/STM32_USB_Device_Library/Core/Src/usbd_ctlreq.c ****         }
 663:Middlewares/ST/STM32_USB_Device_Library/Core/Src/usbd_ctlreq.c ****         else
 664:Middlewares/ST/STM32_USB_Device_Library/Core/Src/usbd_ctlreq.c ****         {
 665:Middlewares/ST/STM32_USB_Device_Library/Core/Src/usbd_ctlreq.c ****           USBD_CtlSendStatus(pdev);
 666:Middlewares/ST/STM32_USB_Device_Library/Core/Src/usbd_ctlreq.c ****         }
 667:Middlewares/ST/STM32_USB_Device_Library/Core/Src/usbd_ctlreq.c ****         break;
 668:Middlewares/ST/STM32_USB_Device_Library/Core/Src/usbd_ctlreq.c **** 
 669:Middlewares/ST/STM32_USB_Device_Library/Core/Src/usbd_ctlreq.c ****       case USBD_STATE_CONFIGURED:
 670:Middlewares/ST/STM32_USB_Device_Library/Core/Src/usbd_ctlreq.c ****         if (cfgidx == 0U)
 671:Middlewares/ST/STM32_USB_Device_Library/Core/Src/usbd_ctlreq.c ****         {
 672:Middlewares/ST/STM32_USB_Device_Library/Core/Src/usbd_ctlreq.c ****           pdev->dev_state = USBD_STATE_ADDRESSED;
 673:Middlewares/ST/STM32_USB_Device_Library/Core/Src/usbd_ctlreq.c ****           pdev->dev_config = cfgidx;
 674:Middlewares/ST/STM32_USB_Device_Library/Core/Src/usbd_ctlreq.c ****           USBD_ClrClassConfig(pdev, cfgidx);
 675:Middlewares/ST/STM32_USB_Device_Library/Core/Src/usbd_ctlreq.c ****           USBD_CtlSendStatus(pdev);
 676:Middlewares/ST/STM32_USB_Device_Library/Core/Src/usbd_ctlreq.c ****         }
 677:Middlewares/ST/STM32_USB_Device_Library/Core/Src/usbd_ctlreq.c ****         else if (cfgidx != pdev->dev_config)
 678:Middlewares/ST/STM32_USB_Device_Library/Core/Src/usbd_ctlreq.c ****         {
 679:Middlewares/ST/STM32_USB_Device_Library/Core/Src/usbd_ctlreq.c ****           /* Clear old configuration */
 680:Middlewares/ST/STM32_USB_Device_Library/Core/Src/usbd_ctlreq.c ****           USBD_ClrClassConfig(pdev, (uint8_t)pdev->dev_config);
 681:Middlewares/ST/STM32_USB_Device_Library/Core/Src/usbd_ctlreq.c **** 
 682:Middlewares/ST/STM32_USB_Device_Library/Core/Src/usbd_ctlreq.c ****           /* set new configuration */
 683:Middlewares/ST/STM32_USB_Device_Library/Core/Src/usbd_ctlreq.c ****           pdev->dev_config = cfgidx;
 684:Middlewares/ST/STM32_USB_Device_Library/Core/Src/usbd_ctlreq.c ****           if (USBD_SetClassConfig(pdev, cfgidx) == USBD_FAIL)
 685:Middlewares/ST/STM32_USB_Device_Library/Core/Src/usbd_ctlreq.c ****           {
 686:Middlewares/ST/STM32_USB_Device_Library/Core/Src/usbd_ctlreq.c ****             USBD_CtlError(pdev, req);
 687:Middlewares/ST/STM32_USB_Device_Library/Core/Src/usbd_ctlreq.c ****             return;
 688:Middlewares/ST/STM32_USB_Device_Library/Core/Src/usbd_ctlreq.c ****           }
 689:Middlewares/ST/STM32_USB_Device_Library/Core/Src/usbd_ctlreq.c ****           USBD_CtlSendStatus(pdev);
 690:Middlewares/ST/STM32_USB_Device_Library/Core/Src/usbd_ctlreq.c ****         }
 691:Middlewares/ST/STM32_USB_Device_Library/Core/Src/usbd_ctlreq.c ****         else
 692:Middlewares/ST/STM32_USB_Device_Library/Core/Src/usbd_ctlreq.c ****         {
 693:Middlewares/ST/STM32_USB_Device_Library/Core/Src/usbd_ctlreq.c ****           USBD_CtlSendStatus(pdev);
 694:Middlewares/ST/STM32_USB_Device_Library/Core/Src/usbd_ctlreq.c ****         }
 695:Middlewares/ST/STM32_USB_Device_Library/Core/Src/usbd_ctlreq.c ****         break;
 696:Middlewares/ST/STM32_USB_Device_Library/Core/Src/usbd_ctlreq.c **** 
 697:Middlewares/ST/STM32_USB_Device_Library/Core/Src/usbd_ctlreq.c ****       default:
 698:Middlewares/ST/STM32_USB_Device_Library/Core/Src/usbd_ctlreq.c ****         USBD_CtlError(pdev, req);
 699:Middlewares/ST/STM32_USB_Device_Library/Core/Src/usbd_ctlreq.c ****         USBD_ClrClassConfig(pdev, cfgidx);
 700:Middlewares/ST/STM32_USB_Device_Library/Core/Src/usbd_ctlreq.c ****         break;
 701:Middlewares/ST/STM32_USB_Device_Library/Core/Src/usbd_ctlreq.c ****     }
 702:Middlewares/ST/STM32_USB_Device_Library/Core/Src/usbd_ctlreq.c ****   }
 703:Middlewares/ST/STM32_USB_Device_Library/Core/Src/usbd_ctlreq.c **** }
 704:Middlewares/ST/STM32_USB_Device_Library/Core/Src/usbd_ctlreq.c **** 
 705:Middlewares/ST/STM32_USB_Device_Library/Core/Src/usbd_ctlreq.c **** /**
 706:Middlewares/ST/STM32_USB_Device_Library/Core/Src/usbd_ctlreq.c **** * @brief  USBD_GetConfig
 707:Middlewares/ST/STM32_USB_Device_Library/Core/Src/usbd_ctlreq.c **** *         Handle Get device configuration request
 708:Middlewares/ST/STM32_USB_Device_Library/Core/Src/usbd_ctlreq.c **** * @param  pdev: device instance
 709:Middlewares/ST/STM32_USB_Device_Library/Core/Src/usbd_ctlreq.c **** * @param  req: usb request
 710:Middlewares/ST/STM32_USB_Device_Library/Core/Src/usbd_ctlreq.c **** * @retval status
 711:Middlewares/ST/STM32_USB_Device_Library/Core/Src/usbd_ctlreq.c **** */
 712:Middlewares/ST/STM32_USB_Device_Library/Core/Src/usbd_ctlreq.c **** static void USBD_GetConfig(USBD_HandleTypeDef *pdev, USBD_SetupReqTypedef *req)
 713:Middlewares/ST/STM32_USB_Device_Library/Core/Src/usbd_ctlreq.c **** {
 714:Middlewares/ST/STM32_USB_Device_Library/Core/Src/usbd_ctlreq.c ****   if (req->wLength != 1U)
 715:Middlewares/ST/STM32_USB_Device_Library/Core/Src/usbd_ctlreq.c ****   {
 716:Middlewares/ST/STM32_USB_Device_Library/Core/Src/usbd_ctlreq.c ****     USBD_CtlError(pdev, req);
ARM GAS  C:\Users\Daniel\AppData\Local\Temp\ccTSPUfT.s 			page 14


 717:Middlewares/ST/STM32_USB_Device_Library/Core/Src/usbd_ctlreq.c ****   }
 718:Middlewares/ST/STM32_USB_Device_Library/Core/Src/usbd_ctlreq.c ****   else
 719:Middlewares/ST/STM32_USB_Device_Library/Core/Src/usbd_ctlreq.c ****   {
 720:Middlewares/ST/STM32_USB_Device_Library/Core/Src/usbd_ctlreq.c ****     switch (pdev->dev_state)
 721:Middlewares/ST/STM32_USB_Device_Library/Core/Src/usbd_ctlreq.c ****     {
 722:Middlewares/ST/STM32_USB_Device_Library/Core/Src/usbd_ctlreq.c ****       case USBD_STATE_DEFAULT:
 723:Middlewares/ST/STM32_USB_Device_Library/Core/Src/usbd_ctlreq.c ****       case USBD_STATE_ADDRESSED:
 724:Middlewares/ST/STM32_USB_Device_Library/Core/Src/usbd_ctlreq.c ****         pdev->dev_default_config = 0U;
 725:Middlewares/ST/STM32_USB_Device_Library/Core/Src/usbd_ctlreq.c ****         USBD_CtlSendData(pdev, (uint8_t *)(void *)&pdev->dev_default_config, 1U);
 726:Middlewares/ST/STM32_USB_Device_Library/Core/Src/usbd_ctlreq.c ****         break;
 727:Middlewares/ST/STM32_USB_Device_Library/Core/Src/usbd_ctlreq.c **** 
 728:Middlewares/ST/STM32_USB_Device_Library/Core/Src/usbd_ctlreq.c ****       case USBD_STATE_CONFIGURED:
 729:Middlewares/ST/STM32_USB_Device_Library/Core/Src/usbd_ctlreq.c ****         USBD_CtlSendData(pdev, (uint8_t *)(void *)&pdev->dev_config, 1U);
 730:Middlewares/ST/STM32_USB_Device_Library/Core/Src/usbd_ctlreq.c ****         break;
 731:Middlewares/ST/STM32_USB_Device_Library/Core/Src/usbd_ctlreq.c **** 
 732:Middlewares/ST/STM32_USB_Device_Library/Core/Src/usbd_ctlreq.c ****       default:
 733:Middlewares/ST/STM32_USB_Device_Library/Core/Src/usbd_ctlreq.c ****         USBD_CtlError(pdev, req);
 734:Middlewares/ST/STM32_USB_Device_Library/Core/Src/usbd_ctlreq.c ****         break;
 735:Middlewares/ST/STM32_USB_Device_Library/Core/Src/usbd_ctlreq.c ****     }
 736:Middlewares/ST/STM32_USB_Device_Library/Core/Src/usbd_ctlreq.c ****   }
 737:Middlewares/ST/STM32_USB_Device_Library/Core/Src/usbd_ctlreq.c **** }
 738:Middlewares/ST/STM32_USB_Device_Library/Core/Src/usbd_ctlreq.c **** 
 739:Middlewares/ST/STM32_USB_Device_Library/Core/Src/usbd_ctlreq.c **** /**
 740:Middlewares/ST/STM32_USB_Device_Library/Core/Src/usbd_ctlreq.c **** * @brief  USBD_GetStatus
 741:Middlewares/ST/STM32_USB_Device_Library/Core/Src/usbd_ctlreq.c **** *         Handle Get Status request
 742:Middlewares/ST/STM32_USB_Device_Library/Core/Src/usbd_ctlreq.c **** * @param  pdev: device instance
 743:Middlewares/ST/STM32_USB_Device_Library/Core/Src/usbd_ctlreq.c **** * @param  req: usb request
 744:Middlewares/ST/STM32_USB_Device_Library/Core/Src/usbd_ctlreq.c **** * @retval status
 745:Middlewares/ST/STM32_USB_Device_Library/Core/Src/usbd_ctlreq.c **** */
 746:Middlewares/ST/STM32_USB_Device_Library/Core/Src/usbd_ctlreq.c **** static void USBD_GetStatus(USBD_HandleTypeDef *pdev, USBD_SetupReqTypedef *req)
 747:Middlewares/ST/STM32_USB_Device_Library/Core/Src/usbd_ctlreq.c **** {
 748:Middlewares/ST/STM32_USB_Device_Library/Core/Src/usbd_ctlreq.c ****   switch (pdev->dev_state)
 749:Middlewares/ST/STM32_USB_Device_Library/Core/Src/usbd_ctlreq.c ****   {
 750:Middlewares/ST/STM32_USB_Device_Library/Core/Src/usbd_ctlreq.c ****     case USBD_STATE_DEFAULT:
 751:Middlewares/ST/STM32_USB_Device_Library/Core/Src/usbd_ctlreq.c ****     case USBD_STATE_ADDRESSED:
 752:Middlewares/ST/STM32_USB_Device_Library/Core/Src/usbd_ctlreq.c ****     case USBD_STATE_CONFIGURED:
 753:Middlewares/ST/STM32_USB_Device_Library/Core/Src/usbd_ctlreq.c ****       if (req->wLength != 0x2U)
 754:Middlewares/ST/STM32_USB_Device_Library/Core/Src/usbd_ctlreq.c ****       {
 755:Middlewares/ST/STM32_USB_Device_Library/Core/Src/usbd_ctlreq.c ****         USBD_CtlError(pdev, req);
 756:Middlewares/ST/STM32_USB_Device_Library/Core/Src/usbd_ctlreq.c ****         break;
 757:Middlewares/ST/STM32_USB_Device_Library/Core/Src/usbd_ctlreq.c ****       }
 758:Middlewares/ST/STM32_USB_Device_Library/Core/Src/usbd_ctlreq.c **** 
 759:Middlewares/ST/STM32_USB_Device_Library/Core/Src/usbd_ctlreq.c **** #if (USBD_SELF_POWERED == 1U)
 760:Middlewares/ST/STM32_USB_Device_Library/Core/Src/usbd_ctlreq.c ****       pdev->dev_config_status = USB_CONFIG_SELF_POWERED;
 761:Middlewares/ST/STM32_USB_Device_Library/Core/Src/usbd_ctlreq.c **** #else
 762:Middlewares/ST/STM32_USB_Device_Library/Core/Src/usbd_ctlreq.c ****       pdev->dev_config_status = 0U;
 763:Middlewares/ST/STM32_USB_Device_Library/Core/Src/usbd_ctlreq.c **** #endif
 764:Middlewares/ST/STM32_USB_Device_Library/Core/Src/usbd_ctlreq.c **** 
 765:Middlewares/ST/STM32_USB_Device_Library/Core/Src/usbd_ctlreq.c ****       if (pdev->dev_remote_wakeup)
 766:Middlewares/ST/STM32_USB_Device_Library/Core/Src/usbd_ctlreq.c ****       {
 767:Middlewares/ST/STM32_USB_Device_Library/Core/Src/usbd_ctlreq.c ****         pdev->dev_config_status |= USB_CONFIG_REMOTE_WAKEUP;
 768:Middlewares/ST/STM32_USB_Device_Library/Core/Src/usbd_ctlreq.c ****       }
 769:Middlewares/ST/STM32_USB_Device_Library/Core/Src/usbd_ctlreq.c **** 
 770:Middlewares/ST/STM32_USB_Device_Library/Core/Src/usbd_ctlreq.c ****       USBD_CtlSendData(pdev, (uint8_t *)(void *)&pdev->dev_config_status, 2U);
 771:Middlewares/ST/STM32_USB_Device_Library/Core/Src/usbd_ctlreq.c ****       break;
 772:Middlewares/ST/STM32_USB_Device_Library/Core/Src/usbd_ctlreq.c **** 
 773:Middlewares/ST/STM32_USB_Device_Library/Core/Src/usbd_ctlreq.c ****     default:
ARM GAS  C:\Users\Daniel\AppData\Local\Temp\ccTSPUfT.s 			page 15


 774:Middlewares/ST/STM32_USB_Device_Library/Core/Src/usbd_ctlreq.c ****       USBD_CtlError(pdev, req);
 775:Middlewares/ST/STM32_USB_Device_Library/Core/Src/usbd_ctlreq.c ****       break;
 776:Middlewares/ST/STM32_USB_Device_Library/Core/Src/usbd_ctlreq.c ****   }
 777:Middlewares/ST/STM32_USB_Device_Library/Core/Src/usbd_ctlreq.c **** }
 778:Middlewares/ST/STM32_USB_Device_Library/Core/Src/usbd_ctlreq.c **** 
 779:Middlewares/ST/STM32_USB_Device_Library/Core/Src/usbd_ctlreq.c **** 
 780:Middlewares/ST/STM32_USB_Device_Library/Core/Src/usbd_ctlreq.c **** /**
 781:Middlewares/ST/STM32_USB_Device_Library/Core/Src/usbd_ctlreq.c **** * @brief  USBD_SetFeature
 782:Middlewares/ST/STM32_USB_Device_Library/Core/Src/usbd_ctlreq.c **** *         Handle Set device feature request
 783:Middlewares/ST/STM32_USB_Device_Library/Core/Src/usbd_ctlreq.c **** * @param  pdev: device instance
 784:Middlewares/ST/STM32_USB_Device_Library/Core/Src/usbd_ctlreq.c **** * @param  req: usb request
 785:Middlewares/ST/STM32_USB_Device_Library/Core/Src/usbd_ctlreq.c **** * @retval status
 786:Middlewares/ST/STM32_USB_Device_Library/Core/Src/usbd_ctlreq.c **** */
 787:Middlewares/ST/STM32_USB_Device_Library/Core/Src/usbd_ctlreq.c **** static void USBD_SetFeature(USBD_HandleTypeDef *pdev,
 788:Middlewares/ST/STM32_USB_Device_Library/Core/Src/usbd_ctlreq.c ****                             USBD_SetupReqTypedef *req)
 789:Middlewares/ST/STM32_USB_Device_Library/Core/Src/usbd_ctlreq.c **** {
 790:Middlewares/ST/STM32_USB_Device_Library/Core/Src/usbd_ctlreq.c ****   if (req->wValue == USB_FEATURE_REMOTE_WAKEUP)
 791:Middlewares/ST/STM32_USB_Device_Library/Core/Src/usbd_ctlreq.c ****   {
 792:Middlewares/ST/STM32_USB_Device_Library/Core/Src/usbd_ctlreq.c ****     pdev->dev_remote_wakeup = 1U;
 793:Middlewares/ST/STM32_USB_Device_Library/Core/Src/usbd_ctlreq.c ****     USBD_CtlSendStatus(pdev);
 794:Middlewares/ST/STM32_USB_Device_Library/Core/Src/usbd_ctlreq.c ****   }
 795:Middlewares/ST/STM32_USB_Device_Library/Core/Src/usbd_ctlreq.c **** }
 796:Middlewares/ST/STM32_USB_Device_Library/Core/Src/usbd_ctlreq.c **** 
 797:Middlewares/ST/STM32_USB_Device_Library/Core/Src/usbd_ctlreq.c **** 
 798:Middlewares/ST/STM32_USB_Device_Library/Core/Src/usbd_ctlreq.c **** /**
 799:Middlewares/ST/STM32_USB_Device_Library/Core/Src/usbd_ctlreq.c **** * @brief  USBD_ClrFeature
 800:Middlewares/ST/STM32_USB_Device_Library/Core/Src/usbd_ctlreq.c **** *         Handle clear device feature request
 801:Middlewares/ST/STM32_USB_Device_Library/Core/Src/usbd_ctlreq.c **** * @param  pdev: device instance
 802:Middlewares/ST/STM32_USB_Device_Library/Core/Src/usbd_ctlreq.c **** * @param  req: usb request
 803:Middlewares/ST/STM32_USB_Device_Library/Core/Src/usbd_ctlreq.c **** * @retval status
 804:Middlewares/ST/STM32_USB_Device_Library/Core/Src/usbd_ctlreq.c **** */
 805:Middlewares/ST/STM32_USB_Device_Library/Core/Src/usbd_ctlreq.c **** static void USBD_ClrFeature(USBD_HandleTypeDef *pdev,
 806:Middlewares/ST/STM32_USB_Device_Library/Core/Src/usbd_ctlreq.c ****                             USBD_SetupReqTypedef *req)
 807:Middlewares/ST/STM32_USB_Device_Library/Core/Src/usbd_ctlreq.c **** {
 808:Middlewares/ST/STM32_USB_Device_Library/Core/Src/usbd_ctlreq.c ****   switch (pdev->dev_state)
 809:Middlewares/ST/STM32_USB_Device_Library/Core/Src/usbd_ctlreq.c ****   {
 810:Middlewares/ST/STM32_USB_Device_Library/Core/Src/usbd_ctlreq.c ****     case USBD_STATE_DEFAULT:
 811:Middlewares/ST/STM32_USB_Device_Library/Core/Src/usbd_ctlreq.c ****     case USBD_STATE_ADDRESSED:
 812:Middlewares/ST/STM32_USB_Device_Library/Core/Src/usbd_ctlreq.c ****     case USBD_STATE_CONFIGURED:
 813:Middlewares/ST/STM32_USB_Device_Library/Core/Src/usbd_ctlreq.c ****       if (req->wValue == USB_FEATURE_REMOTE_WAKEUP)
 814:Middlewares/ST/STM32_USB_Device_Library/Core/Src/usbd_ctlreq.c ****       {
 815:Middlewares/ST/STM32_USB_Device_Library/Core/Src/usbd_ctlreq.c ****         pdev->dev_remote_wakeup = 0U;
 816:Middlewares/ST/STM32_USB_Device_Library/Core/Src/usbd_ctlreq.c ****         USBD_CtlSendStatus(pdev);
 817:Middlewares/ST/STM32_USB_Device_Library/Core/Src/usbd_ctlreq.c ****       }
 818:Middlewares/ST/STM32_USB_Device_Library/Core/Src/usbd_ctlreq.c ****       break;
 819:Middlewares/ST/STM32_USB_Device_Library/Core/Src/usbd_ctlreq.c **** 
 820:Middlewares/ST/STM32_USB_Device_Library/Core/Src/usbd_ctlreq.c ****     default:
 821:Middlewares/ST/STM32_USB_Device_Library/Core/Src/usbd_ctlreq.c ****       USBD_CtlError(pdev, req);
 822:Middlewares/ST/STM32_USB_Device_Library/Core/Src/usbd_ctlreq.c ****       break;
 823:Middlewares/ST/STM32_USB_Device_Library/Core/Src/usbd_ctlreq.c ****   }
 824:Middlewares/ST/STM32_USB_Device_Library/Core/Src/usbd_ctlreq.c **** }
 825:Middlewares/ST/STM32_USB_Device_Library/Core/Src/usbd_ctlreq.c **** 
 826:Middlewares/ST/STM32_USB_Device_Library/Core/Src/usbd_ctlreq.c **** /**
 827:Middlewares/ST/STM32_USB_Device_Library/Core/Src/usbd_ctlreq.c **** * @brief  USBD_ParseSetupRequest
 828:Middlewares/ST/STM32_USB_Device_Library/Core/Src/usbd_ctlreq.c **** *         Copy buffer into setup structure
 829:Middlewares/ST/STM32_USB_Device_Library/Core/Src/usbd_ctlreq.c **** * @param  pdev: device instance
 830:Middlewares/ST/STM32_USB_Device_Library/Core/Src/usbd_ctlreq.c **** * @param  req: usb request
ARM GAS  C:\Users\Daniel\AppData\Local\Temp\ccTSPUfT.s 			page 16


 831:Middlewares/ST/STM32_USB_Device_Library/Core/Src/usbd_ctlreq.c **** * @retval None
 832:Middlewares/ST/STM32_USB_Device_Library/Core/Src/usbd_ctlreq.c **** */
 833:Middlewares/ST/STM32_USB_Device_Library/Core/Src/usbd_ctlreq.c **** 
 834:Middlewares/ST/STM32_USB_Device_Library/Core/Src/usbd_ctlreq.c **** void USBD_ParseSetupRequest(USBD_SetupReqTypedef *req, uint8_t *pdata)
 835:Middlewares/ST/STM32_USB_Device_Library/Core/Src/usbd_ctlreq.c **** {
 836:Middlewares/ST/STM32_USB_Device_Library/Core/Src/usbd_ctlreq.c ****   req->bmRequest = *(uint8_t *)(pdata);
 837:Middlewares/ST/STM32_USB_Device_Library/Core/Src/usbd_ctlreq.c ****   req->bRequest = *(uint8_t *)(pdata + 1U);
 838:Middlewares/ST/STM32_USB_Device_Library/Core/Src/usbd_ctlreq.c ****   req->wValue = SWAPBYTE(pdata + 2U);
 839:Middlewares/ST/STM32_USB_Device_Library/Core/Src/usbd_ctlreq.c ****   req->wIndex = SWAPBYTE(pdata + 4U);
 840:Middlewares/ST/STM32_USB_Device_Library/Core/Src/usbd_ctlreq.c ****   req->wLength = SWAPBYTE(pdata + 6U);
 841:Middlewares/ST/STM32_USB_Device_Library/Core/Src/usbd_ctlreq.c **** 
 842:Middlewares/ST/STM32_USB_Device_Library/Core/Src/usbd_ctlreq.c **** }
 843:Middlewares/ST/STM32_USB_Device_Library/Core/Src/usbd_ctlreq.c **** 
 844:Middlewares/ST/STM32_USB_Device_Library/Core/Src/usbd_ctlreq.c **** /**
 845:Middlewares/ST/STM32_USB_Device_Library/Core/Src/usbd_ctlreq.c **** * @brief  USBD_CtlError
 846:Middlewares/ST/STM32_USB_Device_Library/Core/Src/usbd_ctlreq.c **** *         Handle USB low level Error
 847:Middlewares/ST/STM32_USB_Device_Library/Core/Src/usbd_ctlreq.c **** * @param  pdev: device instance
 848:Middlewares/ST/STM32_USB_Device_Library/Core/Src/usbd_ctlreq.c **** * @param  req: usb request
 849:Middlewares/ST/STM32_USB_Device_Library/Core/Src/usbd_ctlreq.c **** * @retval None
 850:Middlewares/ST/STM32_USB_Device_Library/Core/Src/usbd_ctlreq.c **** */
 851:Middlewares/ST/STM32_USB_Device_Library/Core/Src/usbd_ctlreq.c **** 
 852:Middlewares/ST/STM32_USB_Device_Library/Core/Src/usbd_ctlreq.c **** void USBD_CtlError(USBD_HandleTypeDef *pdev,
 853:Middlewares/ST/STM32_USB_Device_Library/Core/Src/usbd_ctlreq.c ****                    USBD_SetupReqTypedef *req)
 854:Middlewares/ST/STM32_USB_Device_Library/Core/Src/usbd_ctlreq.c **** {
 855:Middlewares/ST/STM32_USB_Device_Library/Core/Src/usbd_ctlreq.c ****   USBD_LL_StallEP(pdev, 0x80U);
 856:Middlewares/ST/STM32_USB_Device_Library/Core/Src/usbd_ctlreq.c ****   USBD_LL_StallEP(pdev, 0U);
 857:Middlewares/ST/STM32_USB_Device_Library/Core/Src/usbd_ctlreq.c **** }
 858:Middlewares/ST/STM32_USB_Device_Library/Core/Src/usbd_ctlreq.c **** 
 859:Middlewares/ST/STM32_USB_Device_Library/Core/Src/usbd_ctlreq.c **** 
 860:Middlewares/ST/STM32_USB_Device_Library/Core/Src/usbd_ctlreq.c **** /**
 861:Middlewares/ST/STM32_USB_Device_Library/Core/Src/usbd_ctlreq.c ****   * @brief  USBD_GetString
 862:Middlewares/ST/STM32_USB_Device_Library/Core/Src/usbd_ctlreq.c ****   *         Convert Ascii string into unicode one
 863:Middlewares/ST/STM32_USB_Device_Library/Core/Src/usbd_ctlreq.c ****   * @param  desc : descriptor buffer
 864:Middlewares/ST/STM32_USB_Device_Library/Core/Src/usbd_ctlreq.c ****   * @param  unicode : Formatted string buffer (unicode)
 865:Middlewares/ST/STM32_USB_Device_Library/Core/Src/usbd_ctlreq.c ****   * @param  len : descriptor length
 866:Middlewares/ST/STM32_USB_Device_Library/Core/Src/usbd_ctlreq.c ****   * @retval None
 867:Middlewares/ST/STM32_USB_Device_Library/Core/Src/usbd_ctlreq.c ****   */
 868:Middlewares/ST/STM32_USB_Device_Library/Core/Src/usbd_ctlreq.c **** void USBD_GetString(uint8_t *desc, uint8_t *unicode, uint16_t *len)
 869:Middlewares/ST/STM32_USB_Device_Library/Core/Src/usbd_ctlreq.c **** {
 870:Middlewares/ST/STM32_USB_Device_Library/Core/Src/usbd_ctlreq.c ****   uint8_t idx = 0U;
 871:Middlewares/ST/STM32_USB_Device_Library/Core/Src/usbd_ctlreq.c **** 
 872:Middlewares/ST/STM32_USB_Device_Library/Core/Src/usbd_ctlreq.c ****   if (desc != NULL)
 873:Middlewares/ST/STM32_USB_Device_Library/Core/Src/usbd_ctlreq.c ****   {
 874:Middlewares/ST/STM32_USB_Device_Library/Core/Src/usbd_ctlreq.c ****     *len = (uint16_t)USBD_GetLen(desc) * 2U + 2U;
 875:Middlewares/ST/STM32_USB_Device_Library/Core/Src/usbd_ctlreq.c ****     unicode[idx++] = *(uint8_t *)(void *)len;
 876:Middlewares/ST/STM32_USB_Device_Library/Core/Src/usbd_ctlreq.c ****     unicode[idx++] = USB_DESC_TYPE_STRING;
 877:Middlewares/ST/STM32_USB_Device_Library/Core/Src/usbd_ctlreq.c **** 
 878:Middlewares/ST/STM32_USB_Device_Library/Core/Src/usbd_ctlreq.c ****     while (*desc != '\0')
 879:Middlewares/ST/STM32_USB_Device_Library/Core/Src/usbd_ctlreq.c ****     {
 880:Middlewares/ST/STM32_USB_Device_Library/Core/Src/usbd_ctlreq.c ****       unicode[idx++] = *desc++;
 881:Middlewares/ST/STM32_USB_Device_Library/Core/Src/usbd_ctlreq.c ****       unicode[idx++] =  0U;
 882:Middlewares/ST/STM32_USB_Device_Library/Core/Src/usbd_ctlreq.c ****     }
 883:Middlewares/ST/STM32_USB_Device_Library/Core/Src/usbd_ctlreq.c ****   }
 884:Middlewares/ST/STM32_USB_Device_Library/Core/Src/usbd_ctlreq.c **** }
 885:Middlewares/ST/STM32_USB_Device_Library/Core/Src/usbd_ctlreq.c **** 
 886:Middlewares/ST/STM32_USB_Device_Library/Core/Src/usbd_ctlreq.c **** /**
 887:Middlewares/ST/STM32_USB_Device_Library/Core/Src/usbd_ctlreq.c ****   * @brief  USBD_GetLen
ARM GAS  C:\Users\Daniel\AppData\Local\Temp\ccTSPUfT.s 			page 17


 888:Middlewares/ST/STM32_USB_Device_Library/Core/Src/usbd_ctlreq.c ****   *         return the string length
 889:Middlewares/ST/STM32_USB_Device_Library/Core/Src/usbd_ctlreq.c ****    * @param  buf : pointer to the ascii string buffer
 890:Middlewares/ST/STM32_USB_Device_Library/Core/Src/usbd_ctlreq.c ****   * @retval string length
 891:Middlewares/ST/STM32_USB_Device_Library/Core/Src/usbd_ctlreq.c ****   */
 892:Middlewares/ST/STM32_USB_Device_Library/Core/Src/usbd_ctlreq.c **** static uint8_t USBD_GetLen(uint8_t *buf)
 893:Middlewares/ST/STM32_USB_Device_Library/Core/Src/usbd_ctlreq.c **** {
  27              		.loc 1 893 1 view -0
  28              		.cfi_startproc
  29              		@ args = 0, pretend = 0, frame = 0
  30              		@ frame_needed = 0, uses_anonymous_args = 0
  31              		@ link register save eliminated.
  32              		.loc 1 893 1 is_stmt 0 view .LVU1
  33 0000 0300     		movs	r3, r0
 894:Middlewares/ST/STM32_USB_Device_Library/Core/Src/usbd_ctlreq.c ****   uint8_t  len = 0U;
  34              		.loc 1 894 3 is_stmt 1 view .LVU2
  35              	.LVL1:
 895:Middlewares/ST/STM32_USB_Device_Library/Core/Src/usbd_ctlreq.c **** 
 896:Middlewares/ST/STM32_USB_Device_Library/Core/Src/usbd_ctlreq.c ****   while (*buf != '\0')
  36              		.loc 1 896 3 view .LVU3
 894:Middlewares/ST/STM32_USB_Device_Library/Core/Src/usbd_ctlreq.c ****   uint8_t  len = 0U;
  37              		.loc 1 894 12 is_stmt 0 view .LVU4
  38 0002 0020     		movs	r0, #0
  39              	.LVL2:
  40              		.loc 1 896 9 view .LVU5
  41 0004 02E0     		b	.L2
  42              	.LVL3:
  43              	.L3:
 897:Middlewares/ST/STM32_USB_Device_Library/Core/Src/usbd_ctlreq.c ****   {
 898:Middlewares/ST/STM32_USB_Device_Library/Core/Src/usbd_ctlreq.c ****     len++;
  44              		.loc 1 898 5 is_stmt 1 view .LVU6
  45              		.loc 1 898 8 is_stmt 0 view .LVU7
  46 0006 0130     		adds	r0, r0, #1
  47              	.LVL4:
  48              		.loc 1 898 8 view .LVU8
  49 0008 C0B2     		uxtb	r0, r0
  50              	.LVL5:
 899:Middlewares/ST/STM32_USB_Device_Library/Core/Src/usbd_ctlreq.c ****     buf++;
  51              		.loc 1 899 5 is_stmt 1 view .LVU9
  52              		.loc 1 899 8 is_stmt 0 view .LVU10
  53 000a 0133     		adds	r3, r3, #1
  54              	.LVL6:
  55              	.L2:
 896:Middlewares/ST/STM32_USB_Device_Library/Core/Src/usbd_ctlreq.c ****   {
  56              		.loc 1 896 15 is_stmt 1 view .LVU11
 896:Middlewares/ST/STM32_USB_Device_Library/Core/Src/usbd_ctlreq.c ****   {
  57              		.loc 1 896 10 is_stmt 0 view .LVU12
  58 000c 1A78     		ldrb	r2, [r3]
 896:Middlewares/ST/STM32_USB_Device_Library/Core/Src/usbd_ctlreq.c ****   {
  59              		.loc 1 896 15 view .LVU13
  60 000e 002A     		cmp	r2, #0
  61 0010 F9D1     		bne	.L3
 900:Middlewares/ST/STM32_USB_Device_Library/Core/Src/usbd_ctlreq.c ****   }
 901:Middlewares/ST/STM32_USB_Device_Library/Core/Src/usbd_ctlreq.c **** 
 902:Middlewares/ST/STM32_USB_Device_Library/Core/Src/usbd_ctlreq.c ****   return len;
  62              		.loc 1 902 3 is_stmt 1 view .LVU14
 903:Middlewares/ST/STM32_USB_Device_Library/Core/Src/usbd_ctlreq.c **** }
  63              		.loc 1 903 1 is_stmt 0 view .LVU15
ARM GAS  C:\Users\Daniel\AppData\Local\Temp\ccTSPUfT.s 			page 18


  64              		@ sp needed
  65 0012 7047     		bx	lr
  66              		.cfi_endproc
  67              	.LFE56:
  69              		.section	.text.USBD_SetFeature,"ax",%progbits
  70              		.align	1
  71              		.syntax unified
  72              		.code	16
  73              		.thumb_func
  75              	USBD_SetFeature:
  76              	.LVL7:
  77              	.LFB51:
 789:Middlewares/ST/STM32_USB_Device_Library/Core/Src/usbd_ctlreq.c ****   if (req->wValue == USB_FEATURE_REMOTE_WAKEUP)
  78              		.loc 1 789 1 is_stmt 1 view -0
  79              		.cfi_startproc
  80              		@ args = 0, pretend = 0, frame = 0
  81              		@ frame_needed = 0, uses_anonymous_args = 0
 789:Middlewares/ST/STM32_USB_Device_Library/Core/Src/usbd_ctlreq.c ****   if (req->wValue == USB_FEATURE_REMOTE_WAKEUP)
  82              		.loc 1 789 1 is_stmt 0 view .LVU17
  83 0000 10B5     		push	{r4, lr}
  84              		.cfi_def_cfa_offset 8
  85              		.cfi_offset 4, -8
  86              		.cfi_offset 14, -4
 790:Middlewares/ST/STM32_USB_Device_Library/Core/Src/usbd_ctlreq.c ****   {
  87              		.loc 1 790 3 is_stmt 1 view .LVU18
 790:Middlewares/ST/STM32_USB_Device_Library/Core/Src/usbd_ctlreq.c ****   {
  88              		.loc 1 790 10 is_stmt 0 view .LVU19
  89 0002 4B88     		ldrh	r3, [r1, #2]
 790:Middlewares/ST/STM32_USB_Device_Library/Core/Src/usbd_ctlreq.c ****   {
  90              		.loc 1 790 6 view .LVU20
  91 0004 012B     		cmp	r3, #1
  92 0006 00D0     		beq	.L6
  93              	.LVL8:
  94              	.L4:
 795:Middlewares/ST/STM32_USB_Device_Library/Core/Src/usbd_ctlreq.c **** 
  95              		.loc 1 795 1 view .LVU21
  96              		@ sp needed
  97 0008 10BD     		pop	{r4, pc}
  98              	.LVL9:
  99              	.L6:
 792:Middlewares/ST/STM32_USB_Device_Library/Core/Src/usbd_ctlreq.c ****     USBD_CtlSendStatus(pdev);
 100              		.loc 1 792 5 is_stmt 1 view .LVU22
 792:Middlewares/ST/STM32_USB_Device_Library/Core/Src/usbd_ctlreq.c ****     USBD_CtlSendStatus(pdev);
 101              		.loc 1 792 29 is_stmt 0 view .LVU23
 102 000a A923     		movs	r3, #169
 103 000c 9B00     		lsls	r3, r3, #2
 104 000e 0122     		movs	r2, #1
 105 0010 C250     		str	r2, [r0, r3]
 793:Middlewares/ST/STM32_USB_Device_Library/Core/Src/usbd_ctlreq.c ****   }
 106              		.loc 1 793 5 is_stmt 1 view .LVU24
 107 0012 FFF7FEFF 		bl	USBD_CtlSendStatus
 108              	.LVL10:
 795:Middlewares/ST/STM32_USB_Device_Library/Core/Src/usbd_ctlreq.c **** 
 109              		.loc 1 795 1 is_stmt 0 view .LVU25
 110 0016 F7E7     		b	.L4
 111              		.cfi_endproc
 112              	.LFE51:
ARM GAS  C:\Users\Daniel\AppData\Local\Temp\ccTSPUfT.s 			page 19


 114              		.section	.text.USBD_ParseSetupRequest,"ax",%progbits
 115              		.align	1
 116              		.global	USBD_ParseSetupRequest
 117              		.syntax unified
 118              		.code	16
 119              		.thumb_func
 121              	USBD_ParseSetupRequest:
 122              	.LVL11:
 123              	.LFB53:
 835:Middlewares/ST/STM32_USB_Device_Library/Core/Src/usbd_ctlreq.c ****   req->bmRequest = *(uint8_t *)(pdata);
 124              		.loc 1 835 1 is_stmt 1 view -0
 125              		.cfi_startproc
 126              		@ args = 0, pretend = 0, frame = 0
 127              		@ frame_needed = 0, uses_anonymous_args = 0
 128              		@ link register save eliminated.
 836:Middlewares/ST/STM32_USB_Device_Library/Core/Src/usbd_ctlreq.c ****   req->bRequest = *(uint8_t *)(pdata + 1U);
 129              		.loc 1 836 3 view .LVU27
 836:Middlewares/ST/STM32_USB_Device_Library/Core/Src/usbd_ctlreq.c ****   req->bRequest = *(uint8_t *)(pdata + 1U);
 130              		.loc 1 836 20 is_stmt 0 view .LVU28
 131 0000 0B78     		ldrb	r3, [r1]
 836:Middlewares/ST/STM32_USB_Device_Library/Core/Src/usbd_ctlreq.c ****   req->bRequest = *(uint8_t *)(pdata + 1U);
 132              		.loc 1 836 18 view .LVU29
 133 0002 0370     		strb	r3, [r0]
 837:Middlewares/ST/STM32_USB_Device_Library/Core/Src/usbd_ctlreq.c ****   req->wValue = SWAPBYTE(pdata + 2U);
 134              		.loc 1 837 3 is_stmt 1 view .LVU30
 837:Middlewares/ST/STM32_USB_Device_Library/Core/Src/usbd_ctlreq.c ****   req->wValue = SWAPBYTE(pdata + 2U);
 135              		.loc 1 837 17 is_stmt 0 view .LVU31
 136 0004 4B78     		ldrb	r3, [r1, #1]
 137 0006 4370     		strb	r3, [r0, #1]
 838:Middlewares/ST/STM32_USB_Device_Library/Core/Src/usbd_ctlreq.c ****   req->wIndex = SWAPBYTE(pdata + 4U);
 138              		.loc 1 838 3 is_stmt 1 view .LVU32
 838:Middlewares/ST/STM32_USB_Device_Library/Core/Src/usbd_ctlreq.c ****   req->wIndex = SWAPBYTE(pdata + 4U);
 139              		.loc 1 838 17 is_stmt 0 view .LVU33
 140 0008 8B78     		ldrb	r3, [r1, #2]
 141 000a CA78     		ldrb	r2, [r1, #3]
 142 000c 1202     		lsls	r2, r2, #8
 143 000e 9B18     		adds	r3, r3, r2
 838:Middlewares/ST/STM32_USB_Device_Library/Core/Src/usbd_ctlreq.c ****   req->wIndex = SWAPBYTE(pdata + 4U);
 144              		.loc 1 838 15 view .LVU34
 145 0010 4380     		strh	r3, [r0, #2]
 839:Middlewares/ST/STM32_USB_Device_Library/Core/Src/usbd_ctlreq.c ****   req->wLength = SWAPBYTE(pdata + 6U);
 146              		.loc 1 839 3 is_stmt 1 view .LVU35
 839:Middlewares/ST/STM32_USB_Device_Library/Core/Src/usbd_ctlreq.c ****   req->wLength = SWAPBYTE(pdata + 6U);
 147              		.loc 1 839 17 is_stmt 0 view .LVU36
 148 0012 0B79     		ldrb	r3, [r1, #4]
 149 0014 4A79     		ldrb	r2, [r1, #5]
 150 0016 1202     		lsls	r2, r2, #8
 151 0018 9B18     		adds	r3, r3, r2
 839:Middlewares/ST/STM32_USB_Device_Library/Core/Src/usbd_ctlreq.c ****   req->wLength = SWAPBYTE(pdata + 6U);
 152              		.loc 1 839 15 view .LVU37
 153 001a 8380     		strh	r3, [r0, #4]
 840:Middlewares/ST/STM32_USB_Device_Library/Core/Src/usbd_ctlreq.c **** 
 154              		.loc 1 840 3 is_stmt 1 view .LVU38
 840:Middlewares/ST/STM32_USB_Device_Library/Core/Src/usbd_ctlreq.c **** 
 155              		.loc 1 840 18 is_stmt 0 view .LVU39
 156 001c 8B79     		ldrb	r3, [r1, #6]
 157 001e CA79     		ldrb	r2, [r1, #7]
ARM GAS  C:\Users\Daniel\AppData\Local\Temp\ccTSPUfT.s 			page 20


 158 0020 1202     		lsls	r2, r2, #8
 159 0022 9B18     		adds	r3, r3, r2
 840:Middlewares/ST/STM32_USB_Device_Library/Core/Src/usbd_ctlreq.c **** 
 160              		.loc 1 840 16 view .LVU40
 161 0024 C380     		strh	r3, [r0, #6]
 842:Middlewares/ST/STM32_USB_Device_Library/Core/Src/usbd_ctlreq.c **** 
 162              		.loc 1 842 1 view .LVU41
 163              		@ sp needed
 164 0026 7047     		bx	lr
 165              		.cfi_endproc
 166              	.LFE53:
 168              		.section	.text.USBD_CtlError,"ax",%progbits
 169              		.align	1
 170              		.global	USBD_CtlError
 171              		.syntax unified
 172              		.code	16
 173              		.thumb_func
 175              	USBD_CtlError:
 176              	.LVL12:
 177              	.LFB54:
 854:Middlewares/ST/STM32_USB_Device_Library/Core/Src/usbd_ctlreq.c ****   USBD_LL_StallEP(pdev, 0x80U);
 178              		.loc 1 854 1 is_stmt 1 view -0
 179              		.cfi_startproc
 180              		@ args = 0, pretend = 0, frame = 0
 181              		@ frame_needed = 0, uses_anonymous_args = 0
 854:Middlewares/ST/STM32_USB_Device_Library/Core/Src/usbd_ctlreq.c ****   USBD_LL_StallEP(pdev, 0x80U);
 182              		.loc 1 854 1 is_stmt 0 view .LVU43
 183 0000 10B5     		push	{r4, lr}
 184              		.cfi_def_cfa_offset 8
 185              		.cfi_offset 4, -8
 186              		.cfi_offset 14, -4
 187 0002 0400     		movs	r4, r0
 855:Middlewares/ST/STM32_USB_Device_Library/Core/Src/usbd_ctlreq.c ****   USBD_LL_StallEP(pdev, 0U);
 188              		.loc 1 855 3 is_stmt 1 view .LVU44
 189 0004 8021     		movs	r1, #128
 190              	.LVL13:
 855:Middlewares/ST/STM32_USB_Device_Library/Core/Src/usbd_ctlreq.c ****   USBD_LL_StallEP(pdev, 0U);
 191              		.loc 1 855 3 is_stmt 0 view .LVU45
 192 0006 FFF7FEFF 		bl	USBD_LL_StallEP
 193              	.LVL14:
 856:Middlewares/ST/STM32_USB_Device_Library/Core/Src/usbd_ctlreq.c **** }
 194              		.loc 1 856 3 is_stmt 1 view .LVU46
 195 000a 0021     		movs	r1, #0
 196 000c 2000     		movs	r0, r4
 197 000e FFF7FEFF 		bl	USBD_LL_StallEP
 198              	.LVL15:
 857:Middlewares/ST/STM32_USB_Device_Library/Core/Src/usbd_ctlreq.c **** 
 199              		.loc 1 857 1 is_stmt 0 view .LVU47
 200              		@ sp needed
 201              	.LVL16:
 857:Middlewares/ST/STM32_USB_Device_Library/Core/Src/usbd_ctlreq.c **** 
 202              		.loc 1 857 1 view .LVU48
 203 0012 10BD     		pop	{r4, pc}
 204              		.cfi_endproc
 205              	.LFE54:
 207              		.section	.text.USBD_GetDescriptor,"ax",%progbits
 208              		.align	1
ARM GAS  C:\Users\Daniel\AppData\Local\Temp\ccTSPUfT.s 			page 21


 209              		.syntax unified
 210              		.code	16
 211              		.thumb_func
 213              	USBD_GetDescriptor:
 214              	.LVL17:
 215              	.LFB46:
 407:Middlewares/ST/STM32_USB_Device_Library/Core/Src/usbd_ctlreq.c ****   uint16_t len = 0U;
 216              		.loc 1 407 1 is_stmt 1 view -0
 217              		.cfi_startproc
 218              		@ args = 0, pretend = 0, frame = 8
 219              		@ frame_needed = 0, uses_anonymous_args = 0
 407:Middlewares/ST/STM32_USB_Device_Library/Core/Src/usbd_ctlreq.c ****   uint16_t len = 0U;
 220              		.loc 1 407 1 is_stmt 0 view .LVU50
 221 0000 30B5     		push	{r4, r5, lr}
 222              		.cfi_def_cfa_offset 12
 223              		.cfi_offset 4, -12
 224              		.cfi_offset 5, -8
 225              		.cfi_offset 14, -4
 226 0002 83B0     		sub	sp, sp, #12
 227              		.cfi_def_cfa_offset 24
 228 0004 0500     		movs	r5, r0
 229 0006 0C00     		movs	r4, r1
 408:Middlewares/ST/STM32_USB_Device_Library/Core/Src/usbd_ctlreq.c ****   uint8_t *pbuf = NULL;
 230              		.loc 1 408 3 is_stmt 1 view .LVU51
 408:Middlewares/ST/STM32_USB_Device_Library/Core/Src/usbd_ctlreq.c ****   uint8_t *pbuf = NULL;
 231              		.loc 1 408 12 is_stmt 0 view .LVU52
 232 0008 6B46     		mov	r3, sp
 233 000a 0022     		movs	r2, #0
 234 000c DA80     		strh	r2, [r3, #6]
 409:Middlewares/ST/STM32_USB_Device_Library/Core/Src/usbd_ctlreq.c ****   uint8_t err = 0U;
 235              		.loc 1 409 3 is_stmt 1 view .LVU53
 236              	.LVL18:
 410:Middlewares/ST/STM32_USB_Device_Library/Core/Src/usbd_ctlreq.c **** 
 237              		.loc 1 410 3 view .LVU54
 412:Middlewares/ST/STM32_USB_Device_Library/Core/Src/usbd_ctlreq.c ****   {
 238              		.loc 1 412 3 view .LVU55
 412:Middlewares/ST/STM32_USB_Device_Library/Core/Src/usbd_ctlreq.c ****   {
 239              		.loc 1 412 14 is_stmt 0 view .LVU56
 240 000e 4A88     		ldrh	r2, [r1, #2]
 412:Middlewares/ST/STM32_USB_Device_Library/Core/Src/usbd_ctlreq.c ****   {
 241              		.loc 1 412 23 view .LVU57
 242 0010 130A     		lsrs	r3, r2, #8
 412:Middlewares/ST/STM32_USB_Device_Library/Core/Src/usbd_ctlreq.c ****   {
 243              		.loc 1 412 3 view .LVU58
 244 0012 072B     		cmp	r3, #7
 245 0014 00D9     		bls	.LCB186
 246 0016 B6E0     		b	.L10	@long jump
 247              	.LCB186:
 248 0018 9B00     		lsls	r3, r3, #2
 249 001a 6549     		ldr	r1, .L42
 250              	.LVL19:
 412:Middlewares/ST/STM32_USB_Device_Library/Core/Src/usbd_ctlreq.c ****   {
 251              		.loc 1 412 3 view .LVU59
 252 001c CB58     		ldr	r3, [r1, r3]
 253 001e 9F46     		mov	pc, r3
 254              		.section	.rodata.USBD_GetDescriptor,"a",%progbits
 255              		.align	2
ARM GAS  C:\Users\Daniel\AppData\Local\Temp\ccTSPUfT.s 			page 22


 256              	.L12:
 257 0000 86010000 		.word	.L10
 258 0004 20000000 		.word	.L16
 259 0008 4E000000 		.word	.L15
 260 000c 7C000000 		.word	.L14
 261 0010 86010000 		.word	.L10
 262 0014 86010000 		.word	.L10
 263 0018 46010000 		.word	.L13
 264 001c 64010000 		.word	.L11
 265              		.section	.text.USBD_GetDescriptor
 266              	.L16:
 428:Middlewares/ST/STM32_USB_Device_Library/Core/Src/usbd_ctlreq.c ****       break;
 267              		.loc 1 428 7 is_stmt 1 view .LVU60
 428:Middlewares/ST/STM32_USB_Device_Library/Core/Src/usbd_ctlreq.c ****       break;
 268              		.loc 1 428 18 is_stmt 0 view .LVU61
 269 0020 AC23     		movs	r3, #172
 270 0022 9B00     		lsls	r3, r3, #2
 271 0024 C358     		ldr	r3, [r0, r3]
 428:Middlewares/ST/STM32_USB_Device_Library/Core/Src/usbd_ctlreq.c ****       break;
 272              		.loc 1 428 25 view .LVU62
 273 0026 1B68     		ldr	r3, [r3]
 428:Middlewares/ST/STM32_USB_Device_Library/Core/Src/usbd_ctlreq.c ****       break;
 274              		.loc 1 428 14 view .LVU63
 275 0028 007C     		ldrb	r0, [r0, #16]
 276              	.LVL20:
 428:Middlewares/ST/STM32_USB_Device_Library/Core/Src/usbd_ctlreq.c ****       break;
 277              		.loc 1 428 14 view .LVU64
 278 002a 6A46     		mov	r2, sp
 279 002c 911D     		adds	r1, r2, #6
 280 002e 9847     		blx	r3
 281              	.LVL21:
 429:Middlewares/ST/STM32_USB_Device_Library/Core/Src/usbd_ctlreq.c **** 
 282              		.loc 1 429 7 is_stmt 1 view .LVU65
 569:Middlewares/ST/STM32_USB_Device_Library/Core/Src/usbd_ctlreq.c ****   {
 283              		.loc 1 569 3 view .LVU66
 284              	.L17:
 575:Middlewares/ST/STM32_USB_Device_Library/Core/Src/usbd_ctlreq.c ****     {
 285              		.loc 1 575 5 view .LVU67
 575:Middlewares/ST/STM32_USB_Device_Library/Core/Src/usbd_ctlreq.c ****     {
 286              		.loc 1 575 14 is_stmt 0 view .LVU68
 287 0030 6B46     		mov	r3, sp
 288 0032 0633     		adds	r3, r3, #6
 289 0034 1B88     		ldrh	r3, [r3]
 575:Middlewares/ST/STM32_USB_Device_Library/Core/Src/usbd_ctlreq.c ****     {
 290              		.loc 1 575 8 view .LVU69
 291 0036 002B     		cmp	r3, #0
 292 0038 03D0     		beq	.L37
 575:Middlewares/ST/STM32_USB_Device_Library/Core/Src/usbd_ctlreq.c ****     {
 293              		.loc 1 575 28 discriminator 1 view .LVU70
 294 003a E288     		ldrh	r2, [r4, #6]
 575:Middlewares/ST/STM32_USB_Device_Library/Core/Src/usbd_ctlreq.c ****     {
 295              		.loc 1 575 21 discriminator 1 view .LVU71
 296 003c 002A     		cmp	r2, #0
 297 003e 00D0     		beq	.LCB226
 298 0040 A6E0     		b	.L40	@long jump
 299              	.LCB226:
 300              	.LVL22:
ARM GAS  C:\Users\Daniel\AppData\Local\Temp\ccTSPUfT.s 			page 23


 301              	.L37:
 581:Middlewares/ST/STM32_USB_Device_Library/Core/Src/usbd_ctlreq.c ****     {
 302              		.loc 1 581 5 is_stmt 1 view .LVU72
 581:Middlewares/ST/STM32_USB_Device_Library/Core/Src/usbd_ctlreq.c ****     {
 303              		.loc 1 581 12 is_stmt 0 view .LVU73
 304 0042 E388     		ldrh	r3, [r4, #6]
 581:Middlewares/ST/STM32_USB_Device_Library/Core/Src/usbd_ctlreq.c ****     {
 305              		.loc 1 581 8 view .LVU74
 306 0044 002B     		cmp	r3, #0
 307 0046 00D1     		bne	.LCB233
 308 0048 AEE0     		b	.L41	@long jump
 309              	.LCB233:
 310              	.LVL23:
 311              	.L9:
 586:Middlewares/ST/STM32_USB_Device_Library/Core/Src/usbd_ctlreq.c **** 
 312              		.loc 1 586 1 view .LVU75
 313 004a 03B0     		add	sp, sp, #12
 314              		@ sp needed
 315              	.LVL24:
 316              	.LVL25:
 586:Middlewares/ST/STM32_USB_Device_Library/Core/Src/usbd_ctlreq.c **** 
 317              		.loc 1 586 1 view .LVU76
 318 004c 30BD     		pop	{r4, r5, pc}
 319              	.LVL26:
 320              	.L15:
 432:Middlewares/ST/STM32_USB_Device_Library/Core/Src/usbd_ctlreq.c ****       {
 321              		.loc 1 432 7 is_stmt 1 view .LVU77
 432:Middlewares/ST/STM32_USB_Device_Library/Core/Src/usbd_ctlreq.c ****       {
 322              		.loc 1 432 15 is_stmt 0 view .LVU78
 323 004e 037C     		ldrb	r3, [r0, #16]
 432:Middlewares/ST/STM32_USB_Device_Library/Core/Src/usbd_ctlreq.c ****       {
 324              		.loc 1 432 10 view .LVU79
 325 0050 002B     		cmp	r3, #0
 326 0052 09D1     		bne	.L18
 434:Middlewares/ST/STM32_USB_Device_Library/Core/Src/usbd_ctlreq.c ****         pbuf[1] = USB_DESC_TYPE_CONFIGURATION;
 327              		.loc 1 434 9 is_stmt 1 view .LVU80
 434:Middlewares/ST/STM32_USB_Device_Library/Core/Src/usbd_ctlreq.c ****         pbuf[1] = USB_DESC_TYPE_CONFIGURATION;
 328              		.loc 1 434 20 is_stmt 0 view .LVU81
 329 0054 AD23     		movs	r3, #173
 330 0056 9B00     		lsls	r3, r3, #2
 331 0058 C358     		ldr	r3, [r0, r3]
 434:Middlewares/ST/STM32_USB_Device_Library/Core/Src/usbd_ctlreq.c ****         pbuf[1] = USB_DESC_TYPE_CONFIGURATION;
 332              		.loc 1 434 28 view .LVU82
 333 005a 9B6A     		ldr	r3, [r3, #40]
 434:Middlewares/ST/STM32_USB_Device_Library/Core/Src/usbd_ctlreq.c ****         pbuf[1] = USB_DESC_TYPE_CONFIGURATION;
 334              		.loc 1 434 16 view .LVU83
 335 005c 6A46     		mov	r2, sp
 336 005e 901D     		adds	r0, r2, #6
 337              	.LVL27:
 434:Middlewares/ST/STM32_USB_Device_Library/Core/Src/usbd_ctlreq.c ****         pbuf[1] = USB_DESC_TYPE_CONFIGURATION;
 338              		.loc 1 434 16 view .LVU84
 339 0060 9847     		blx	r3
 340              	.LVL28:
 435:Middlewares/ST/STM32_USB_Device_Library/Core/Src/usbd_ctlreq.c ****       }
 341              		.loc 1 435 9 is_stmt 1 view .LVU85
 435:Middlewares/ST/STM32_USB_Device_Library/Core/Src/usbd_ctlreq.c ****       }
 342              		.loc 1 435 17 is_stmt 0 view .LVU86
ARM GAS  C:\Users\Daniel\AppData\Local\Temp\ccTSPUfT.s 			page 24


 343 0062 0223     		movs	r3, #2
 344 0064 4370     		strb	r3, [r0, #1]
 569:Middlewares/ST/STM32_USB_Device_Library/Core/Src/usbd_ctlreq.c ****   {
 345              		.loc 1 569 3 is_stmt 1 view .LVU87
 346 0066 E3E7     		b	.L17
 347              	.LVL29:
 348              	.L18:
 439:Middlewares/ST/STM32_USB_Device_Library/Core/Src/usbd_ctlreq.c ****         pbuf[1] = USB_DESC_TYPE_CONFIGURATION;
 349              		.loc 1 439 9 view .LVU88
 439:Middlewares/ST/STM32_USB_Device_Library/Core/Src/usbd_ctlreq.c ****         pbuf[1] = USB_DESC_TYPE_CONFIGURATION;
 350              		.loc 1 439 20 is_stmt 0 view .LVU89
 351 0068 AD23     		movs	r3, #173
 352 006a 9B00     		lsls	r3, r3, #2
 353 006c C358     		ldr	r3, [r0, r3]
 439:Middlewares/ST/STM32_USB_Device_Library/Core/Src/usbd_ctlreq.c ****         pbuf[1] = USB_DESC_TYPE_CONFIGURATION;
 354              		.loc 1 439 28 view .LVU90
 355 006e DB6A     		ldr	r3, [r3, #44]
 439:Middlewares/ST/STM32_USB_Device_Library/Core/Src/usbd_ctlreq.c ****         pbuf[1] = USB_DESC_TYPE_CONFIGURATION;
 356              		.loc 1 439 16 view .LVU91
 357 0070 6A46     		mov	r2, sp
 358 0072 901D     		adds	r0, r2, #6
 359              	.LVL30:
 439:Middlewares/ST/STM32_USB_Device_Library/Core/Src/usbd_ctlreq.c ****         pbuf[1] = USB_DESC_TYPE_CONFIGURATION;
 360              		.loc 1 439 16 view .LVU92
 361 0074 9847     		blx	r3
 362              	.LVL31:
 440:Middlewares/ST/STM32_USB_Device_Library/Core/Src/usbd_ctlreq.c ****       }
 363              		.loc 1 440 9 is_stmt 1 view .LVU93
 440:Middlewares/ST/STM32_USB_Device_Library/Core/Src/usbd_ctlreq.c ****       }
 364              		.loc 1 440 17 is_stmt 0 view .LVU94
 365 0076 0223     		movs	r3, #2
 366 0078 4370     		strb	r3, [r0, #1]
 569:Middlewares/ST/STM32_USB_Device_Library/Core/Src/usbd_ctlreq.c ****   {
 367              		.loc 1 569 3 is_stmt 1 view .LVU95
 368 007a D9E7     		b	.L17
 369              	.LVL32:
 370              	.L14:
 445:Middlewares/ST/STM32_USB_Device_Library/Core/Src/usbd_ctlreq.c ****       {
 371              		.loc 1 445 7 view .LVU96
 445:Middlewares/ST/STM32_USB_Device_Library/Core/Src/usbd_ctlreq.c ****       {
 372              		.loc 1 445 15 is_stmt 0 view .LVU97
 373 007c D2B2     		uxtb	r2, r2
 374 007e 052A     		cmp	r2, #5
 375 0080 5DD8     		bhi	.L19
 376 0082 9200     		lsls	r2, r2, #2
 377 0084 4B4B     		ldr	r3, .L42+4
 378 0086 9B58     		ldr	r3, [r3, r2]
 379 0088 9F46     		mov	pc, r3
 380              		.section	.rodata.USBD_GetDescriptor
 381              		.align	2
 382              	.L21:
 383 0020 8A000000 		.word	.L26
 384 0024 A8000000 		.word	.L25
 385 0028 C6000000 		.word	.L24
 386 002c E4000000 		.word	.L23
 387 0030 02010000 		.word	.L22
 388 0034 20010000 		.word	.L20
ARM GAS  C:\Users\Daniel\AppData\Local\Temp\ccTSPUfT.s 			page 25


 389              		.section	.text.USBD_GetDescriptor
 390              	.L26:
 448:Middlewares/ST/STM32_USB_Device_Library/Core/Src/usbd_ctlreq.c ****           {
 391              		.loc 1 448 11 is_stmt 1 view .LVU98
 448:Middlewares/ST/STM32_USB_Device_Library/Core/Src/usbd_ctlreq.c ****           {
 392              		.loc 1 448 19 is_stmt 0 view .LVU99
 393 008a AC23     		movs	r3, #172
 394 008c 9B00     		lsls	r3, r3, #2
 395 008e C358     		ldr	r3, [r0, r3]
 448:Middlewares/ST/STM32_USB_Device_Library/Core/Src/usbd_ctlreq.c ****           {
 396              		.loc 1 448 26 view .LVU100
 397 0090 5B68     		ldr	r3, [r3, #4]
 448:Middlewares/ST/STM32_USB_Device_Library/Core/Src/usbd_ctlreq.c ****           {
 398              		.loc 1 448 14 view .LVU101
 399 0092 002B     		cmp	r3, #0
 400 0094 04D0     		beq	.L27
 450:Middlewares/ST/STM32_USB_Device_Library/Core/Src/usbd_ctlreq.c ****           }
 401              		.loc 1 450 13 is_stmt 1 view .LVU102
 450:Middlewares/ST/STM32_USB_Device_Library/Core/Src/usbd_ctlreq.c ****           }
 402              		.loc 1 450 20 is_stmt 0 view .LVU103
 403 0096 007C     		ldrb	r0, [r0, #16]
 404              	.LVL33:
 450:Middlewares/ST/STM32_USB_Device_Library/Core/Src/usbd_ctlreq.c ****           }
 405              		.loc 1 450 20 view .LVU104
 406 0098 6A46     		mov	r2, sp
 407 009a 911D     		adds	r1, r2, #6
 408 009c 9847     		blx	r3
 409              	.LVL34:
 569:Middlewares/ST/STM32_USB_Device_Library/Core/Src/usbd_ctlreq.c ****   {
 410              		.loc 1 569 3 is_stmt 1 view .LVU105
 411 009e C7E7     		b	.L17
 412              	.LVL35:
 413              	.L27:
 454:Middlewares/ST/STM32_USB_Device_Library/Core/Src/usbd_ctlreq.c ****             err++;
 414              		.loc 1 454 13 view .LVU106
 415 00a0 2100     		movs	r1, r4
 416 00a2 FFF7FEFF 		bl	USBD_CtlError
 417              	.LVL36:
 455:Middlewares/ST/STM32_USB_Device_Library/Core/Src/usbd_ctlreq.c ****           }
 418              		.loc 1 455 13 view .LVU107
 569:Middlewares/ST/STM32_USB_Device_Library/Core/Src/usbd_ctlreq.c ****   {
 419              		.loc 1 569 3 view .LVU108
 420 00a6 D0E7     		b	.L9
 421              	.LVL37:
 422              	.L25:
 460:Middlewares/ST/STM32_USB_Device_Library/Core/Src/usbd_ctlreq.c ****           {
 423              		.loc 1 460 11 view .LVU109
 460:Middlewares/ST/STM32_USB_Device_Library/Core/Src/usbd_ctlreq.c ****           {
 424              		.loc 1 460 19 is_stmt 0 view .LVU110
 425 00a8 AC23     		movs	r3, #172
 426 00aa 9B00     		lsls	r3, r3, #2
 427 00ac C358     		ldr	r3, [r0, r3]
 460:Middlewares/ST/STM32_USB_Device_Library/Core/Src/usbd_ctlreq.c ****           {
 428              		.loc 1 460 26 view .LVU111
 429 00ae 9B68     		ldr	r3, [r3, #8]
 460:Middlewares/ST/STM32_USB_Device_Library/Core/Src/usbd_ctlreq.c ****           {
 430              		.loc 1 460 14 view .LVU112
ARM GAS  C:\Users\Daniel\AppData\Local\Temp\ccTSPUfT.s 			page 26


 431 00b0 002B     		cmp	r3, #0
 432 00b2 04D0     		beq	.L29
 462:Middlewares/ST/STM32_USB_Device_Library/Core/Src/usbd_ctlreq.c ****           }
 433              		.loc 1 462 13 is_stmt 1 view .LVU113
 462:Middlewares/ST/STM32_USB_Device_Library/Core/Src/usbd_ctlreq.c ****           }
 434              		.loc 1 462 20 is_stmt 0 view .LVU114
 435 00b4 007C     		ldrb	r0, [r0, #16]
 436              	.LVL38:
 462:Middlewares/ST/STM32_USB_Device_Library/Core/Src/usbd_ctlreq.c ****           }
 437              		.loc 1 462 20 view .LVU115
 438 00b6 6A46     		mov	r2, sp
 439 00b8 911D     		adds	r1, r2, #6
 440 00ba 9847     		blx	r3
 441              	.LVL39:
 569:Middlewares/ST/STM32_USB_Device_Library/Core/Src/usbd_ctlreq.c ****   {
 442              		.loc 1 569 3 is_stmt 1 view .LVU116
 443 00bc B8E7     		b	.L17
 444              	.LVL40:
 445              	.L29:
 466:Middlewares/ST/STM32_USB_Device_Library/Core/Src/usbd_ctlreq.c ****             err++;
 446              		.loc 1 466 13 view .LVU117
 447 00be 2100     		movs	r1, r4
 448 00c0 FFF7FEFF 		bl	USBD_CtlError
 449              	.LVL41:
 467:Middlewares/ST/STM32_USB_Device_Library/Core/Src/usbd_ctlreq.c ****           }
 450              		.loc 1 467 13 view .LVU118
 569:Middlewares/ST/STM32_USB_Device_Library/Core/Src/usbd_ctlreq.c ****   {
 451              		.loc 1 569 3 view .LVU119
 452 00c4 C1E7     		b	.L9
 453              	.LVL42:
 454              	.L24:
 472:Middlewares/ST/STM32_USB_Device_Library/Core/Src/usbd_ctlreq.c ****           {
 455              		.loc 1 472 11 view .LVU120
 472:Middlewares/ST/STM32_USB_Device_Library/Core/Src/usbd_ctlreq.c ****           {
 456              		.loc 1 472 19 is_stmt 0 view .LVU121
 457 00c6 AC23     		movs	r3, #172
 458 00c8 9B00     		lsls	r3, r3, #2
 459 00ca C358     		ldr	r3, [r0, r3]
 472:Middlewares/ST/STM32_USB_Device_Library/Core/Src/usbd_ctlreq.c ****           {
 460              		.loc 1 472 26 view .LVU122
 461 00cc DB68     		ldr	r3, [r3, #12]
 472:Middlewares/ST/STM32_USB_Device_Library/Core/Src/usbd_ctlreq.c ****           {
 462              		.loc 1 472 14 view .LVU123
 463 00ce 002B     		cmp	r3, #0
 464 00d0 04D0     		beq	.L30
 474:Middlewares/ST/STM32_USB_Device_Library/Core/Src/usbd_ctlreq.c ****           }
 465              		.loc 1 474 13 is_stmt 1 view .LVU124
 474:Middlewares/ST/STM32_USB_Device_Library/Core/Src/usbd_ctlreq.c ****           }
 466              		.loc 1 474 20 is_stmt 0 view .LVU125
 467 00d2 007C     		ldrb	r0, [r0, #16]
 468              	.LVL43:
 474:Middlewares/ST/STM32_USB_Device_Library/Core/Src/usbd_ctlreq.c ****           }
 469              		.loc 1 474 20 view .LVU126
 470 00d4 6A46     		mov	r2, sp
 471 00d6 911D     		adds	r1, r2, #6
 472 00d8 9847     		blx	r3
 473              	.LVL44:
ARM GAS  C:\Users\Daniel\AppData\Local\Temp\ccTSPUfT.s 			page 27


 569:Middlewares/ST/STM32_USB_Device_Library/Core/Src/usbd_ctlreq.c ****   {
 474              		.loc 1 569 3 is_stmt 1 view .LVU127
 475 00da A9E7     		b	.L17
 476              	.LVL45:
 477              	.L30:
 478:Middlewares/ST/STM32_USB_Device_Library/Core/Src/usbd_ctlreq.c ****             err++;
 478              		.loc 1 478 13 view .LVU128
 479 00dc 2100     		movs	r1, r4
 480 00de FFF7FEFF 		bl	USBD_CtlError
 481              	.LVL46:
 479:Middlewares/ST/STM32_USB_Device_Library/Core/Src/usbd_ctlreq.c ****           }
 482              		.loc 1 479 13 view .LVU129
 569:Middlewares/ST/STM32_USB_Device_Library/Core/Src/usbd_ctlreq.c ****   {
 483              		.loc 1 569 3 view .LVU130
 484 00e2 B2E7     		b	.L9
 485              	.LVL47:
 486              	.L23:
 484:Middlewares/ST/STM32_USB_Device_Library/Core/Src/usbd_ctlreq.c ****           {
 487              		.loc 1 484 11 view .LVU131
 484:Middlewares/ST/STM32_USB_Device_Library/Core/Src/usbd_ctlreq.c ****           {
 488              		.loc 1 484 19 is_stmt 0 view .LVU132
 489 00e4 AC23     		movs	r3, #172
 490 00e6 9B00     		lsls	r3, r3, #2
 491 00e8 C358     		ldr	r3, [r0, r3]
 484:Middlewares/ST/STM32_USB_Device_Library/Core/Src/usbd_ctlreq.c ****           {
 492              		.loc 1 484 26 view .LVU133
 493 00ea 1B69     		ldr	r3, [r3, #16]
 484:Middlewares/ST/STM32_USB_Device_Library/Core/Src/usbd_ctlreq.c ****           {
 494              		.loc 1 484 14 view .LVU134
 495 00ec 002B     		cmp	r3, #0
 496 00ee 04D0     		beq	.L31
 486:Middlewares/ST/STM32_USB_Device_Library/Core/Src/usbd_ctlreq.c ****           }
 497              		.loc 1 486 13 is_stmt 1 view .LVU135
 486:Middlewares/ST/STM32_USB_Device_Library/Core/Src/usbd_ctlreq.c ****           }
 498              		.loc 1 486 20 is_stmt 0 view .LVU136
 499 00f0 007C     		ldrb	r0, [r0, #16]
 500              	.LVL48:
 486:Middlewares/ST/STM32_USB_Device_Library/Core/Src/usbd_ctlreq.c ****           }
 501              		.loc 1 486 20 view .LVU137
 502 00f2 6A46     		mov	r2, sp
 503 00f4 911D     		adds	r1, r2, #6
 504 00f6 9847     		blx	r3
 505              	.LVL49:
 569:Middlewares/ST/STM32_USB_Device_Library/Core/Src/usbd_ctlreq.c ****   {
 506              		.loc 1 569 3 is_stmt 1 view .LVU138
 507 00f8 9AE7     		b	.L17
 508              	.LVL50:
 509              	.L31:
 490:Middlewares/ST/STM32_USB_Device_Library/Core/Src/usbd_ctlreq.c ****             err++;
 510              		.loc 1 490 13 view .LVU139
 511 00fa 2100     		movs	r1, r4
 512 00fc FFF7FEFF 		bl	USBD_CtlError
 513              	.LVL51:
 491:Middlewares/ST/STM32_USB_Device_Library/Core/Src/usbd_ctlreq.c ****           }
 514              		.loc 1 491 13 view .LVU140
 569:Middlewares/ST/STM32_USB_Device_Library/Core/Src/usbd_ctlreq.c ****   {
 515              		.loc 1 569 3 view .LVU141
ARM GAS  C:\Users\Daniel\AppData\Local\Temp\ccTSPUfT.s 			page 28


 516 0100 A3E7     		b	.L9
 517              	.LVL52:
 518              	.L22:
 496:Middlewares/ST/STM32_USB_Device_Library/Core/Src/usbd_ctlreq.c ****           {
 519              		.loc 1 496 11 view .LVU142
 496:Middlewares/ST/STM32_USB_Device_Library/Core/Src/usbd_ctlreq.c ****           {
 520              		.loc 1 496 19 is_stmt 0 view .LVU143
 521 0102 AC23     		movs	r3, #172
 522 0104 9B00     		lsls	r3, r3, #2
 523 0106 C358     		ldr	r3, [r0, r3]
 496:Middlewares/ST/STM32_USB_Device_Library/Core/Src/usbd_ctlreq.c ****           {
 524              		.loc 1 496 26 view .LVU144
 525 0108 5B69     		ldr	r3, [r3, #20]
 496:Middlewares/ST/STM32_USB_Device_Library/Core/Src/usbd_ctlreq.c ****           {
 526              		.loc 1 496 14 view .LVU145
 527 010a 002B     		cmp	r3, #0
 528 010c 04D0     		beq	.L32
 498:Middlewares/ST/STM32_USB_Device_Library/Core/Src/usbd_ctlreq.c ****           }
 529              		.loc 1 498 13 is_stmt 1 view .LVU146
 498:Middlewares/ST/STM32_USB_Device_Library/Core/Src/usbd_ctlreq.c ****           }
 530              		.loc 1 498 20 is_stmt 0 view .LVU147
 531 010e 007C     		ldrb	r0, [r0, #16]
 532              	.LVL53:
 498:Middlewares/ST/STM32_USB_Device_Library/Core/Src/usbd_ctlreq.c ****           }
 533              		.loc 1 498 20 view .LVU148
 534 0110 6A46     		mov	r2, sp
 535 0112 911D     		adds	r1, r2, #6
 536 0114 9847     		blx	r3
 537              	.LVL54:
 569:Middlewares/ST/STM32_USB_Device_Library/Core/Src/usbd_ctlreq.c ****   {
 538              		.loc 1 569 3 is_stmt 1 view .LVU149
 539 0116 8BE7     		b	.L17
 540              	.LVL55:
 541              	.L32:
 502:Middlewares/ST/STM32_USB_Device_Library/Core/Src/usbd_ctlreq.c ****             err++;
 542              		.loc 1 502 13 view .LVU150
 543 0118 2100     		movs	r1, r4
 544 011a FFF7FEFF 		bl	USBD_CtlError
 545              	.LVL56:
 503:Middlewares/ST/STM32_USB_Device_Library/Core/Src/usbd_ctlreq.c ****           }
 546              		.loc 1 503 13 view .LVU151
 569:Middlewares/ST/STM32_USB_Device_Library/Core/Src/usbd_ctlreq.c ****   {
 547              		.loc 1 569 3 view .LVU152
 548 011e 94E7     		b	.L9
 549              	.LVL57:
 550              	.L20:
 508:Middlewares/ST/STM32_USB_Device_Library/Core/Src/usbd_ctlreq.c ****           {
 551              		.loc 1 508 11 view .LVU153
 508:Middlewares/ST/STM32_USB_Device_Library/Core/Src/usbd_ctlreq.c ****           {
 552              		.loc 1 508 19 is_stmt 0 view .LVU154
 553 0120 AC23     		movs	r3, #172
 554 0122 9B00     		lsls	r3, r3, #2
 555 0124 C358     		ldr	r3, [r0, r3]
 508:Middlewares/ST/STM32_USB_Device_Library/Core/Src/usbd_ctlreq.c ****           {
 556              		.loc 1 508 26 view .LVU155
 557 0126 9B69     		ldr	r3, [r3, #24]
 508:Middlewares/ST/STM32_USB_Device_Library/Core/Src/usbd_ctlreq.c ****           {
ARM GAS  C:\Users\Daniel\AppData\Local\Temp\ccTSPUfT.s 			page 29


 558              		.loc 1 508 14 view .LVU156
 559 0128 002B     		cmp	r3, #0
 560 012a 04D0     		beq	.L33
 510:Middlewares/ST/STM32_USB_Device_Library/Core/Src/usbd_ctlreq.c ****           }
 561              		.loc 1 510 13 is_stmt 1 view .LVU157
 510:Middlewares/ST/STM32_USB_Device_Library/Core/Src/usbd_ctlreq.c ****           }
 562              		.loc 1 510 20 is_stmt 0 view .LVU158
 563 012c 007C     		ldrb	r0, [r0, #16]
 564              	.LVL58:
 510:Middlewares/ST/STM32_USB_Device_Library/Core/Src/usbd_ctlreq.c ****           }
 565              		.loc 1 510 20 view .LVU159
 566 012e 6A46     		mov	r2, sp
 567 0130 911D     		adds	r1, r2, #6
 568 0132 9847     		blx	r3
 569              	.LVL59:
 569:Middlewares/ST/STM32_USB_Device_Library/Core/Src/usbd_ctlreq.c ****   {
 570              		.loc 1 569 3 is_stmt 1 view .LVU160
 571 0134 7CE7     		b	.L17
 572              	.LVL60:
 573              	.L33:
 514:Middlewares/ST/STM32_USB_Device_Library/Core/Src/usbd_ctlreq.c ****             err++;
 574              		.loc 1 514 13 view .LVU161
 575 0136 2100     		movs	r1, r4
 576 0138 FFF7FEFF 		bl	USBD_CtlError
 577              	.LVL61:
 515:Middlewares/ST/STM32_USB_Device_Library/Core/Src/usbd_ctlreq.c ****           }
 578              		.loc 1 515 13 view .LVU162
 569:Middlewares/ST/STM32_USB_Device_Library/Core/Src/usbd_ctlreq.c ****   {
 579              		.loc 1 569 3 view .LVU163
 580 013c 85E7     		b	.L9
 581              	.LVL62:
 582              	.L19:
 532:Middlewares/ST/STM32_USB_Device_Library/Core/Src/usbd_ctlreq.c ****           err++;
 583              		.loc 1 532 11 view .LVU164
 584 013e 2100     		movs	r1, r4
 585 0140 FFF7FEFF 		bl	USBD_CtlError
 586              	.LVL63:
 533:Middlewares/ST/STM32_USB_Device_Library/Core/Src/usbd_ctlreq.c **** #endif
 587              		.loc 1 533 11 view .LVU165
 569:Middlewares/ST/STM32_USB_Device_Library/Core/Src/usbd_ctlreq.c ****   {
 588              		.loc 1 569 3 view .LVU166
 589 0144 81E7     		b	.L9
 590              	.LVL64:
 591              	.L13:
 539:Middlewares/ST/STM32_USB_Device_Library/Core/Src/usbd_ctlreq.c ****       {
 592              		.loc 1 539 7 view .LVU167
 539:Middlewares/ST/STM32_USB_Device_Library/Core/Src/usbd_ctlreq.c ****       {
 593              		.loc 1 539 15 is_stmt 0 view .LVU168
 594 0146 037C     		ldrb	r3, [r0, #16]
 539:Middlewares/ST/STM32_USB_Device_Library/Core/Src/usbd_ctlreq.c ****       {
 595              		.loc 1 539 10 view .LVU169
 596 0148 002B     		cmp	r3, #0
 597 014a 07D1     		bne	.L34
 541:Middlewares/ST/STM32_USB_Device_Library/Core/Src/usbd_ctlreq.c ****       }
 598              		.loc 1 541 9 is_stmt 1 view .LVU170
 541:Middlewares/ST/STM32_USB_Device_Library/Core/Src/usbd_ctlreq.c ****       }
 599              		.loc 1 541 20 is_stmt 0 view .LVU171
ARM GAS  C:\Users\Daniel\AppData\Local\Temp\ccTSPUfT.s 			page 30


 600 014c AD23     		movs	r3, #173
 601 014e 9B00     		lsls	r3, r3, #2
 602 0150 C358     		ldr	r3, [r0, r3]
 541:Middlewares/ST/STM32_USB_Device_Library/Core/Src/usbd_ctlreq.c ****       }
 603              		.loc 1 541 28 view .LVU172
 604 0152 5B6B     		ldr	r3, [r3, #52]
 541:Middlewares/ST/STM32_USB_Device_Library/Core/Src/usbd_ctlreq.c ****       }
 605              		.loc 1 541 16 view .LVU173
 606 0154 6A46     		mov	r2, sp
 607 0156 901D     		adds	r0, r2, #6
 608              	.LVL65:
 541:Middlewares/ST/STM32_USB_Device_Library/Core/Src/usbd_ctlreq.c ****       }
 609              		.loc 1 541 16 view .LVU174
 610 0158 9847     		blx	r3
 611              	.LVL66:
 569:Middlewares/ST/STM32_USB_Device_Library/Core/Src/usbd_ctlreq.c ****   {
 612              		.loc 1 569 3 is_stmt 1 view .LVU175
 613 015a 69E7     		b	.L17
 614              	.LVL67:
 615              	.L34:
 545:Middlewares/ST/STM32_USB_Device_Library/Core/Src/usbd_ctlreq.c ****         err++;
 616              		.loc 1 545 9 view .LVU176
 617 015c 2100     		movs	r1, r4
 618 015e FFF7FEFF 		bl	USBD_CtlError
 619              	.LVL68:
 546:Middlewares/ST/STM32_USB_Device_Library/Core/Src/usbd_ctlreq.c ****       }
 620              		.loc 1 546 9 view .LVU177
 569:Middlewares/ST/STM32_USB_Device_Library/Core/Src/usbd_ctlreq.c ****   {
 621              		.loc 1 569 3 view .LVU178
 622 0162 72E7     		b	.L9
 623              	.LVL69:
 624              	.L11:
 551:Middlewares/ST/STM32_USB_Device_Library/Core/Src/usbd_ctlreq.c ****       {
 625              		.loc 1 551 7 view .LVU179
 551:Middlewares/ST/STM32_USB_Device_Library/Core/Src/usbd_ctlreq.c ****       {
 626              		.loc 1 551 15 is_stmt 0 view .LVU180
 627 0164 037C     		ldrb	r3, [r0, #16]
 551:Middlewares/ST/STM32_USB_Device_Library/Core/Src/usbd_ctlreq.c ****       {
 628              		.loc 1 551 10 view .LVU181
 629 0166 002B     		cmp	r3, #0
 630 0168 09D1     		bne	.L35
 553:Middlewares/ST/STM32_USB_Device_Library/Core/Src/usbd_ctlreq.c ****         pbuf[1] = USB_DESC_TYPE_OTHER_SPEED_CONFIGURATION;
 631              		.loc 1 553 9 is_stmt 1 view .LVU182
 553:Middlewares/ST/STM32_USB_Device_Library/Core/Src/usbd_ctlreq.c ****         pbuf[1] = USB_DESC_TYPE_OTHER_SPEED_CONFIGURATION;
 632              		.loc 1 553 20 is_stmt 0 view .LVU183
 633 016a AD23     		movs	r3, #173
 634 016c 9B00     		lsls	r3, r3, #2
 635 016e C358     		ldr	r3, [r0, r3]
 553:Middlewares/ST/STM32_USB_Device_Library/Core/Src/usbd_ctlreq.c ****         pbuf[1] = USB_DESC_TYPE_OTHER_SPEED_CONFIGURATION;
 636              		.loc 1 553 28 view .LVU184
 637 0170 1B6B     		ldr	r3, [r3, #48]
 553:Middlewares/ST/STM32_USB_Device_Library/Core/Src/usbd_ctlreq.c ****         pbuf[1] = USB_DESC_TYPE_OTHER_SPEED_CONFIGURATION;
 638              		.loc 1 553 16 view .LVU185
 639 0172 6A46     		mov	r2, sp
 640 0174 901D     		adds	r0, r2, #6
 641              	.LVL70:
 553:Middlewares/ST/STM32_USB_Device_Library/Core/Src/usbd_ctlreq.c ****         pbuf[1] = USB_DESC_TYPE_OTHER_SPEED_CONFIGURATION;
ARM GAS  C:\Users\Daniel\AppData\Local\Temp\ccTSPUfT.s 			page 31


 642              		.loc 1 553 16 view .LVU186
 643 0176 9847     		blx	r3
 644              	.LVL71:
 554:Middlewares/ST/STM32_USB_Device_Library/Core/Src/usbd_ctlreq.c ****       }
 645              		.loc 1 554 9 is_stmt 1 view .LVU187
 554:Middlewares/ST/STM32_USB_Device_Library/Core/Src/usbd_ctlreq.c ****       }
 646              		.loc 1 554 17 is_stmt 0 view .LVU188
 647 0178 0723     		movs	r3, #7
 648 017a 4370     		strb	r3, [r0, #1]
 569:Middlewares/ST/STM32_USB_Device_Library/Core/Src/usbd_ctlreq.c ****   {
 649              		.loc 1 569 3 is_stmt 1 view .LVU189
 650 017c 58E7     		b	.L17
 651              	.LVL72:
 652              	.L35:
 558:Middlewares/ST/STM32_USB_Device_Library/Core/Src/usbd_ctlreq.c ****         err++;
 653              		.loc 1 558 9 view .LVU190
 654 017e 2100     		movs	r1, r4
 655 0180 FFF7FEFF 		bl	USBD_CtlError
 656              	.LVL73:
 559:Middlewares/ST/STM32_USB_Device_Library/Core/Src/usbd_ctlreq.c ****       }
 657              		.loc 1 559 9 view .LVU191
 569:Middlewares/ST/STM32_USB_Device_Library/Core/Src/usbd_ctlreq.c ****   {
 658              		.loc 1 569 3 view .LVU192
 659 0184 61E7     		b	.L9
 660              	.LVL74:
 661              	.L10:
 564:Middlewares/ST/STM32_USB_Device_Library/Core/Src/usbd_ctlreq.c ****       err++;
 662              		.loc 1 564 7 view .LVU193
 663 0186 2100     		movs	r1, r4
 664 0188 2800     		movs	r0, r5
 665              	.LVL75:
 564:Middlewares/ST/STM32_USB_Device_Library/Core/Src/usbd_ctlreq.c ****       err++;
 666              		.loc 1 564 7 is_stmt 0 view .LVU194
 667 018a FFF7FEFF 		bl	USBD_CtlError
 668              	.LVL76:
 565:Middlewares/ST/STM32_USB_Device_Library/Core/Src/usbd_ctlreq.c ****       break;
 669              		.loc 1 565 7 is_stmt 1 view .LVU195
 566:Middlewares/ST/STM32_USB_Device_Library/Core/Src/usbd_ctlreq.c ****   }
 670              		.loc 1 566 7 view .LVU196
 569:Middlewares/ST/STM32_USB_Device_Library/Core/Src/usbd_ctlreq.c ****   {
 671              		.loc 1 569 3 view .LVU197
 571:Middlewares/ST/STM32_USB_Device_Library/Core/Src/usbd_ctlreq.c ****   }
 672              		.loc 1 571 5 view .LVU198
 673 018e 5CE7     		b	.L9
 674              	.LVL77:
 675              	.L40:
 577:Middlewares/ST/STM32_USB_Device_Library/Core/Src/usbd_ctlreq.c ****       (void)USBD_CtlSendData(pdev, pbuf, len);
 676              		.loc 1 577 7 view .LVU199
 577:Middlewares/ST/STM32_USB_Device_Library/Core/Src/usbd_ctlreq.c ****       (void)USBD_CtlSendData(pdev, pbuf, len);
 677              		.loc 1 577 13 is_stmt 0 view .LVU200
 678 0190 191C     		adds	r1, r3, #0
 679 0192 9342     		cmp	r3, r2
 680 0194 00D9     		bls	.L38
 681 0196 111C     		adds	r1, r2, #0
 682              	.L38:
 683 0198 8AB2     		uxth	r2, r1
 577:Middlewares/ST/STM32_USB_Device_Library/Core/Src/usbd_ctlreq.c ****       (void)USBD_CtlSendData(pdev, pbuf, len);
ARM GAS  C:\Users\Daniel\AppData\Local\Temp\ccTSPUfT.s 			page 32


 684              		.loc 1 577 11 view .LVU201
 685 019a 6B46     		mov	r3, sp
 686 019c D980     		strh	r1, [r3, #6]
 578:Middlewares/ST/STM32_USB_Device_Library/Core/Src/usbd_ctlreq.c ****     }
 687              		.loc 1 578 7 is_stmt 1 view .LVU202
 578:Middlewares/ST/STM32_USB_Device_Library/Core/Src/usbd_ctlreq.c ****     }
 688              		.loc 1 578 13 is_stmt 0 view .LVU203
 689 019e 0100     		movs	r1, r0
 690 01a0 2800     		movs	r0, r5
 691              	.LVL78:
 578:Middlewares/ST/STM32_USB_Device_Library/Core/Src/usbd_ctlreq.c ****     }
 692              		.loc 1 578 13 view .LVU204
 693 01a2 FFF7FEFF 		bl	USBD_CtlSendData
 694              	.LVL79:
 578:Middlewares/ST/STM32_USB_Device_Library/Core/Src/usbd_ctlreq.c ****     }
 695              		.loc 1 578 13 view .LVU205
 696 01a6 4CE7     		b	.L37
 697              	.L41:
 583:Middlewares/ST/STM32_USB_Device_Library/Core/Src/usbd_ctlreq.c ****     }
 698              		.loc 1 583 7 is_stmt 1 view .LVU206
 583:Middlewares/ST/STM32_USB_Device_Library/Core/Src/usbd_ctlreq.c ****     }
 699              		.loc 1 583 13 is_stmt 0 view .LVU207
 700 01a8 2800     		movs	r0, r5
 701 01aa FFF7FEFF 		bl	USBD_CtlSendStatus
 702              	.LVL80:
 703 01ae 4CE7     		b	.L9
 704              	.L43:
 705              		.align	2
 706              	.L42:
 707 01b0 00000000 		.word	.L12
 708 01b4 20000000 		.word	.L21
 709              		.cfi_endproc
 710              	.LFE46:
 712              		.section	.text.USBD_SetAddress,"ax",%progbits
 713              		.align	1
 714              		.syntax unified
 715              		.code	16
 716              		.thumb_func
 718              	USBD_SetAddress:
 719              	.LVL81:
 720              	.LFB47:
 597:Middlewares/ST/STM32_USB_Device_Library/Core/Src/usbd_ctlreq.c ****   uint8_t  dev_addr;
 721              		.loc 1 597 1 is_stmt 1 view -0
 722              		.cfi_startproc
 723              		@ args = 0, pretend = 0, frame = 0
 724              		@ frame_needed = 0, uses_anonymous_args = 0
 597:Middlewares/ST/STM32_USB_Device_Library/Core/Src/usbd_ctlreq.c ****   uint8_t  dev_addr;
 725              		.loc 1 597 1 is_stmt 0 view .LVU209
 726 0000 70B5     		push	{r4, r5, r6, lr}
 727              		.cfi_def_cfa_offset 16
 728              		.cfi_offset 4, -16
 729              		.cfi_offset 5, -12
 730              		.cfi_offset 6, -8
 731              		.cfi_offset 14, -4
 732 0002 0400     		movs	r4, r0
 598:Middlewares/ST/STM32_USB_Device_Library/Core/Src/usbd_ctlreq.c **** 
 733              		.loc 1 598 3 is_stmt 1 view .LVU210
ARM GAS  C:\Users\Daniel\AppData\Local\Temp\ccTSPUfT.s 			page 33


 600:Middlewares/ST/STM32_USB_Device_Library/Core/Src/usbd_ctlreq.c ****   {
 734              		.loc 1 600 3 view .LVU211
 600:Middlewares/ST/STM32_USB_Device_Library/Core/Src/usbd_ctlreq.c ****   {
 735              		.loc 1 600 11 is_stmt 0 view .LVU212
 736 0004 8B88     		ldrh	r3, [r1, #4]
 600:Middlewares/ST/STM32_USB_Device_Library/Core/Src/usbd_ctlreq.c ****   {
 737              		.loc 1 600 6 view .LVU213
 738 0006 002B     		cmp	r3, #0
 739 0008 23D1     		bne	.L45
 600:Middlewares/ST/STM32_USB_Device_Library/Core/Src/usbd_ctlreq.c ****   {
 740              		.loc 1 600 34 discriminator 1 view .LVU214
 741 000a CB88     		ldrh	r3, [r1, #6]
 600:Middlewares/ST/STM32_USB_Device_Library/Core/Src/usbd_ctlreq.c ****   {
 742              		.loc 1 600 27 discriminator 1 view .LVU215
 743 000c 002B     		cmp	r3, #0
 744 000e 20D1     		bne	.L45
 600:Middlewares/ST/STM32_USB_Device_Library/Core/Src/usbd_ctlreq.c ****   {
 745              		.loc 1 600 58 discriminator 2 view .LVU216
 746 0010 4B88     		ldrh	r3, [r1, #2]
 600:Middlewares/ST/STM32_USB_Device_Library/Core/Src/usbd_ctlreq.c ****   {
 747              		.loc 1 600 51 discriminator 2 view .LVU217
 748 0012 7F2B     		cmp	r3, #127
 749 0014 1DD8     		bhi	.L45
 602:Middlewares/ST/STM32_USB_Device_Library/Core/Src/usbd_ctlreq.c **** 
 750              		.loc 1 602 5 is_stmt 1 view .LVU218
 602:Middlewares/ST/STM32_USB_Device_Library/Core/Src/usbd_ctlreq.c **** 
 751              		.loc 1 602 14 is_stmt 0 view .LVU219
 752 0016 7F25     		movs	r5, #127
 753 0018 1D40     		ands	r5, r3
 754              	.LVL82:
 604:Middlewares/ST/STM32_USB_Device_Library/Core/Src/usbd_ctlreq.c ****     {
 755              		.loc 1 604 5 is_stmt 1 view .LVU220
 604:Middlewares/ST/STM32_USB_Device_Library/Core/Src/usbd_ctlreq.c ****     {
 756              		.loc 1 604 13 is_stmt 0 view .LVU221
 757 001a A723     		movs	r3, #167
 758 001c 9B00     		lsls	r3, r3, #2
 759 001e C35C     		ldrb	r3, [r0, r3]
 604:Middlewares/ST/STM32_USB_Device_Library/Core/Src/usbd_ctlreq.c ****     {
 760              		.loc 1 604 8 view .LVU222
 761 0020 032B     		cmp	r3, #3
 762 0022 0ED0     		beq	.L49
 610:Middlewares/ST/STM32_USB_Device_Library/Core/Src/usbd_ctlreq.c ****       USBD_LL_SetUSBAddress(pdev, dev_addr);
 763              		.loc 1 610 7 is_stmt 1 view .LVU223
 610:Middlewares/ST/STM32_USB_Device_Library/Core/Src/usbd_ctlreq.c ****       USBD_LL_SetUSBAddress(pdev, dev_addr);
 764              		.loc 1 610 25 is_stmt 0 view .LVU224
 765 0024 0D4B     		ldr	r3, .L50
 766 0026 C554     		strb	r5, [r0, r3]
 611:Middlewares/ST/STM32_USB_Device_Library/Core/Src/usbd_ctlreq.c ****       USBD_CtlSendStatus(pdev);
 767              		.loc 1 611 7 is_stmt 1 view .LVU225
 768 0028 2900     		movs	r1, r5
 769              	.LVL83:
 611:Middlewares/ST/STM32_USB_Device_Library/Core/Src/usbd_ctlreq.c ****       USBD_CtlSendStatus(pdev);
 770              		.loc 1 611 7 is_stmt 0 view .LVU226
 771 002a FFF7FEFF 		bl	USBD_LL_SetUSBAddress
 772              	.LVL84:
 612:Middlewares/ST/STM32_USB_Device_Library/Core/Src/usbd_ctlreq.c **** 
 773              		.loc 1 612 7 is_stmt 1 view .LVU227
ARM GAS  C:\Users\Daniel\AppData\Local\Temp\ccTSPUfT.s 			page 34


 774 002e 2000     		movs	r0, r4
 775 0030 FFF7FEFF 		bl	USBD_CtlSendStatus
 776              	.LVL85:
 614:Middlewares/ST/STM32_USB_Device_Library/Core/Src/usbd_ctlreq.c ****       {
 777              		.loc 1 614 7 view .LVU228
 614:Middlewares/ST/STM32_USB_Device_Library/Core/Src/usbd_ctlreq.c ****       {
 778              		.loc 1 614 10 is_stmt 0 view .LVU229
 779 0034 002D     		cmp	r5, #0
 780 0036 07D0     		beq	.L48
 616:Middlewares/ST/STM32_USB_Device_Library/Core/Src/usbd_ctlreq.c ****       }
 781              		.loc 1 616 9 is_stmt 1 view .LVU230
 616:Middlewares/ST/STM32_USB_Device_Library/Core/Src/usbd_ctlreq.c ****       }
 782              		.loc 1 616 25 is_stmt 0 view .LVU231
 783 0038 A723     		movs	r3, #167
 784 003a 9B00     		lsls	r3, r3, #2
 785 003c 0222     		movs	r2, #2
 786 003e E254     		strb	r2, [r4, r3]
 787 0040 0AE0     		b	.L44
 788              	.LVL86:
 789              	.L49:
 606:Middlewares/ST/STM32_USB_Device_Library/Core/Src/usbd_ctlreq.c ****     }
 790              		.loc 1 606 7 is_stmt 1 view .LVU232
 791 0042 FFF7FEFF 		bl	USBD_CtlError
 792              	.LVL87:
 606:Middlewares/ST/STM32_USB_Device_Library/Core/Src/usbd_ctlreq.c ****     }
 793              		.loc 1 606 7 is_stmt 0 view .LVU233
 794 0046 07E0     		b	.L44
 795              	.L48:
 620:Middlewares/ST/STM32_USB_Device_Library/Core/Src/usbd_ctlreq.c ****       }
 796              		.loc 1 620 9 is_stmt 1 view .LVU234
 620:Middlewares/ST/STM32_USB_Device_Library/Core/Src/usbd_ctlreq.c ****       }
 797              		.loc 1 620 25 is_stmt 0 view .LVU235
 798 0048 A723     		movs	r3, #167
 799 004a 9B00     		lsls	r3, r3, #2
 800 004c 0122     		movs	r2, #1
 801 004e E254     		strb	r2, [r4, r3]
 802 0050 02E0     		b	.L44
 803              	.LVL88:
 804              	.L45:
 626:Middlewares/ST/STM32_USB_Device_Library/Core/Src/usbd_ctlreq.c ****   }
 805              		.loc 1 626 5 is_stmt 1 view .LVU236
 806 0052 2000     		movs	r0, r4
 807              	.LVL89:
 626:Middlewares/ST/STM32_USB_Device_Library/Core/Src/usbd_ctlreq.c ****   }
 808              		.loc 1 626 5 is_stmt 0 view .LVU237
 809 0054 FFF7FEFF 		bl	USBD_CtlError
 810              	.LVL90:
 811              	.L44:
 628:Middlewares/ST/STM32_USB_Device_Library/Core/Src/usbd_ctlreq.c **** 
 812              		.loc 1 628 1 view .LVU238
 813              		@ sp needed
 814              	.LVL91:
 628:Middlewares/ST/STM32_USB_Device_Library/Core/Src/usbd_ctlreq.c **** 
 815              		.loc 1 628 1 view .LVU239
 816 0058 70BD     		pop	{r4, r5, r6, pc}
 817              	.L51:
 818 005a C046     		.align	2
ARM GAS  C:\Users\Daniel\AppData\Local\Temp\ccTSPUfT.s 			page 35


 819              	.L50:
 820 005c 9E020000 		.word	670
 821              		.cfi_endproc
 822              	.LFE47:
 824              		.section	.text.USBD_SetConfig,"ax",%progbits
 825              		.align	1
 826              		.syntax unified
 827              		.code	16
 828              		.thumb_func
 830              	USBD_SetConfig:
 831              	.LVL92:
 832              	.LFB48:
 638:Middlewares/ST/STM32_USB_Device_Library/Core/Src/usbd_ctlreq.c ****   static uint8_t cfgidx;
 833              		.loc 1 638 1 is_stmt 1 view -0
 834              		.cfi_startproc
 835              		@ args = 0, pretend = 0, frame = 0
 836              		@ frame_needed = 0, uses_anonymous_args = 0
 638:Middlewares/ST/STM32_USB_Device_Library/Core/Src/usbd_ctlreq.c ****   static uint8_t cfgidx;
 837              		.loc 1 638 1 is_stmt 0 view .LVU241
 838 0000 70B5     		push	{r4, r5, r6, lr}
 839              		.cfi_def_cfa_offset 16
 840              		.cfi_offset 4, -16
 841              		.cfi_offset 5, -12
 842              		.cfi_offset 6, -8
 843              		.cfi_offset 14, -4
 844 0002 0400     		movs	r4, r0
 845 0004 0D00     		movs	r5, r1
 639:Middlewares/ST/STM32_USB_Device_Library/Core/Src/usbd_ctlreq.c **** 
 846              		.loc 1 639 3 is_stmt 1 view .LVU242
 641:Middlewares/ST/STM32_USB_Device_Library/Core/Src/usbd_ctlreq.c **** 
 847              		.loc 1 641 3 view .LVU243
 641:Middlewares/ST/STM32_USB_Device_Library/Core/Src/usbd_ctlreq.c **** 
 848              		.loc 1 641 12 is_stmt 0 view .LVU244
 849 0006 8978     		ldrb	r1, [r1, #2]
 850              	.LVL93:
 641:Middlewares/ST/STM32_USB_Device_Library/Core/Src/usbd_ctlreq.c **** 
 851              		.loc 1 641 10 view .LVU245
 852 0008 2A4B     		ldr	r3, .L68
 853 000a 1970     		strb	r1, [r3]
 643:Middlewares/ST/STM32_USB_Device_Library/Core/Src/usbd_ctlreq.c ****   {
 854              		.loc 1 643 3 is_stmt 1 view .LVU246
 643:Middlewares/ST/STM32_USB_Device_Library/Core/Src/usbd_ctlreq.c ****   {
 855              		.loc 1 643 6 is_stmt 0 view .LVU247
 856 000c 0129     		cmp	r1, #1
 857 000e 0FD8     		bhi	.L64
 649:Middlewares/ST/STM32_USB_Device_Library/Core/Src/usbd_ctlreq.c ****     {
 858              		.loc 1 649 5 is_stmt 1 view .LVU248
 649:Middlewares/ST/STM32_USB_Device_Library/Core/Src/usbd_ctlreq.c ****     {
 859              		.loc 1 649 17 is_stmt 0 view .LVU249
 860 0010 A723     		movs	r3, #167
 861 0012 9B00     		lsls	r3, r3, #2
 862 0014 C35C     		ldrb	r3, [r0, r3]
 649:Middlewares/ST/STM32_USB_Device_Library/Core/Src/usbd_ctlreq.c ****     {
 863              		.loc 1 649 5 view .LVU250
 864 0016 022B     		cmp	r3, #2
 865 0018 0ED0     		beq	.L55
 866 001a 032B     		cmp	r3, #3
ARM GAS  C:\Users\Daniel\AppData\Local\Temp\ccTSPUfT.s 			page 36


 867 001c 23D0     		beq	.L56
 698:Middlewares/ST/STM32_USB_Device_Library/Core/Src/usbd_ctlreq.c ****         USBD_ClrClassConfig(pdev, cfgidx);
 868              		.loc 1 698 9 is_stmt 1 view .LVU251
 869 001e 2900     		movs	r1, r5
 870 0020 FFF7FEFF 		bl	USBD_CtlError
 871              	.LVL94:
 699:Middlewares/ST/STM32_USB_Device_Library/Core/Src/usbd_ctlreq.c ****         break;
 872              		.loc 1 699 9 view .LVU252
 873 0024 234B     		ldr	r3, .L68
 874 0026 1978     		ldrb	r1, [r3]
 875 0028 2000     		movs	r0, r4
 876 002a FFF7FEFF 		bl	USBD_ClrClassConfig
 877              	.LVL95:
 700:Middlewares/ST/STM32_USB_Device_Library/Core/Src/usbd_ctlreq.c ****     }
 878              		.loc 1 700 9 view .LVU253
 879 002e 02E0     		b	.L52
 880              	.LVL96:
 881              	.L64:
 645:Middlewares/ST/STM32_USB_Device_Library/Core/Src/usbd_ctlreq.c ****   }
 882              		.loc 1 645 5 view .LVU254
 883 0030 2900     		movs	r1, r5
 884 0032 FFF7FEFF 		bl	USBD_CtlError
 885              	.LVL97:
 886              	.L52:
 703:Middlewares/ST/STM32_USB_Device_Library/Core/Src/usbd_ctlreq.c **** 
 887              		.loc 1 703 1 is_stmt 0 view .LVU255
 888              		@ sp needed
 889              	.LVL98:
 890              	.LVL99:
 703:Middlewares/ST/STM32_USB_Device_Library/Core/Src/usbd_ctlreq.c **** 
 891              		.loc 1 703 1 view .LVU256
 892 0036 70BD     		pop	{r4, r5, r6, pc}
 893              	.LVL100:
 894              	.L55:
 652:Middlewares/ST/STM32_USB_Device_Library/Core/Src/usbd_ctlreq.c ****         {
 895              		.loc 1 652 9 is_stmt 1 view .LVU257
 652:Middlewares/ST/STM32_USB_Device_Library/Core/Src/usbd_ctlreq.c ****         {
 896              		.loc 1 652 12 is_stmt 0 view .LVU258
 897 0038 0029     		cmp	r1, #0
 898 003a 11D0     		beq	.L58
 654:Middlewares/ST/STM32_USB_Device_Library/Core/Src/usbd_ctlreq.c ****           pdev->dev_state = USBD_STATE_CONFIGURED;
 899              		.loc 1 654 11 is_stmt 1 view .LVU259
 654:Middlewares/ST/STM32_USB_Device_Library/Core/Src/usbd_ctlreq.c ****           pdev->dev_state = USBD_STATE_CONFIGURED;
 900              		.loc 1 654 28 is_stmt 0 view .LVU260
 901 003c 4160     		str	r1, [r0, #4]
 655:Middlewares/ST/STM32_USB_Device_Library/Core/Src/usbd_ctlreq.c ****           if (USBD_SetClassConfig(pdev, cfgidx) == USBD_FAIL)
 902              		.loc 1 655 11 is_stmt 1 view .LVU261
 655:Middlewares/ST/STM32_USB_Device_Library/Core/Src/usbd_ctlreq.c ****           if (USBD_SetClassConfig(pdev, cfgidx) == USBD_FAIL)
 903              		.loc 1 655 27 is_stmt 0 view .LVU262
 904 003e A723     		movs	r3, #167
 905 0040 9B00     		lsls	r3, r3, #2
 906 0042 0322     		movs	r2, #3
 907 0044 C254     		strb	r2, [r0, r3]
 656:Middlewares/ST/STM32_USB_Device_Library/Core/Src/usbd_ctlreq.c ****           {
 908              		.loc 1 656 11 is_stmt 1 view .LVU263
 656:Middlewares/ST/STM32_USB_Device_Library/Core/Src/usbd_ctlreq.c ****           {
 909              		.loc 1 656 15 is_stmt 0 view .LVU264
ARM GAS  C:\Users\Daniel\AppData\Local\Temp\ccTSPUfT.s 			page 37


 910 0046 FFF7FEFF 		bl	USBD_SetClassConfig
 911              	.LVL101:
 656:Middlewares/ST/STM32_USB_Device_Library/Core/Src/usbd_ctlreq.c ****           {
 912              		.loc 1 656 14 view .LVU265
 913 004a 0228     		cmp	r0, #2
 914 004c 03D0     		beq	.L65
 661:Middlewares/ST/STM32_USB_Device_Library/Core/Src/usbd_ctlreq.c ****         }
 915              		.loc 1 661 11 is_stmt 1 view .LVU266
 916 004e 2000     		movs	r0, r4
 917 0050 FFF7FEFF 		bl	USBD_CtlSendStatus
 918              	.LVL102:
 919 0054 EFE7     		b	.L52
 920              	.L65:
 658:Middlewares/ST/STM32_USB_Device_Library/Core/Src/usbd_ctlreq.c ****             return;
 921              		.loc 1 658 13 view .LVU267
 922 0056 2900     		movs	r1, r5
 923 0058 2000     		movs	r0, r4
 924 005a FFF7FEFF 		bl	USBD_CtlError
 925              	.LVL103:
 659:Middlewares/ST/STM32_USB_Device_Library/Core/Src/usbd_ctlreq.c ****           }
 926              		.loc 1 659 13 view .LVU268
 927 005e EAE7     		b	.L52
 928              	.LVL104:
 929              	.L58:
 665:Middlewares/ST/STM32_USB_Device_Library/Core/Src/usbd_ctlreq.c ****         }
 930              		.loc 1 665 11 view .LVU269
 931 0060 FFF7FEFF 		bl	USBD_CtlSendStatus
 932              	.LVL105:
 665:Middlewares/ST/STM32_USB_Device_Library/Core/Src/usbd_ctlreq.c ****         }
 933              		.loc 1 665 11 is_stmt 0 view .LVU270
 934 0064 E7E7     		b	.L52
 935              	.LVL106:
 936              	.L56:
 670:Middlewares/ST/STM32_USB_Device_Library/Core/Src/usbd_ctlreq.c ****         {
 937              		.loc 1 670 9 is_stmt 1 view .LVU271
 670:Middlewares/ST/STM32_USB_Device_Library/Core/Src/usbd_ctlreq.c ****         {
 938              		.loc 1 670 12 is_stmt 0 view .LVU272
 939 0066 0029     		cmp	r1, #0
 940 0068 11D0     		beq	.L66
 677:Middlewares/ST/STM32_USB_Device_Library/Core/Src/usbd_ctlreq.c ****         {
 941              		.loc 1 677 14 is_stmt 1 view .LVU273
 677:Middlewares/ST/STM32_USB_Device_Library/Core/Src/usbd_ctlreq.c ****         {
 942              		.loc 1 677 32 is_stmt 0 view .LVU274
 943 006a 4368     		ldr	r3, [r0, #4]
 677:Middlewares/ST/STM32_USB_Device_Library/Core/Src/usbd_ctlreq.c ****         {
 944              		.loc 1 677 17 view .LVU275
 945 006c 9942     		cmp	r1, r3
 946 006e 1ED0     		beq	.L61
 680:Middlewares/ST/STM32_USB_Device_Library/Core/Src/usbd_ctlreq.c **** 
 947              		.loc 1 680 11 is_stmt 1 view .LVU276
 948 0070 D9B2     		uxtb	r1, r3
 949 0072 FFF7FEFF 		bl	USBD_ClrClassConfig
 950              	.LVL107:
 683:Middlewares/ST/STM32_USB_Device_Library/Core/Src/usbd_ctlreq.c ****           if (USBD_SetClassConfig(pdev, cfgidx) == USBD_FAIL)
 951              		.loc 1 683 11 view .LVU277
 683:Middlewares/ST/STM32_USB_Device_Library/Core/Src/usbd_ctlreq.c ****           if (USBD_SetClassConfig(pdev, cfgidx) == USBD_FAIL)
 952              		.loc 1 683 28 is_stmt 0 view .LVU278
ARM GAS  C:\Users\Daniel\AppData\Local\Temp\ccTSPUfT.s 			page 38


 953 0076 0F4B     		ldr	r3, .L68
 954 0078 1978     		ldrb	r1, [r3]
 955 007a 6160     		str	r1, [r4, #4]
 684:Middlewares/ST/STM32_USB_Device_Library/Core/Src/usbd_ctlreq.c ****           {
 956              		.loc 1 684 11 is_stmt 1 view .LVU279
 684:Middlewares/ST/STM32_USB_Device_Library/Core/Src/usbd_ctlreq.c ****           {
 957              		.loc 1 684 15 is_stmt 0 view .LVU280
 958 007c 2000     		movs	r0, r4
 959 007e FFF7FEFF 		bl	USBD_SetClassConfig
 960              	.LVL108:
 684:Middlewares/ST/STM32_USB_Device_Library/Core/Src/usbd_ctlreq.c ****           {
 961              		.loc 1 684 14 view .LVU281
 962 0082 0228     		cmp	r0, #2
 963 0084 0ED0     		beq	.L67
 689:Middlewares/ST/STM32_USB_Device_Library/Core/Src/usbd_ctlreq.c ****         }
 964              		.loc 1 689 11 is_stmt 1 view .LVU282
 965 0086 2000     		movs	r0, r4
 966 0088 FFF7FEFF 		bl	USBD_CtlSendStatus
 967              	.LVL109:
 968 008c D3E7     		b	.L52
 969              	.LVL110:
 970              	.L66:
 672:Middlewares/ST/STM32_USB_Device_Library/Core/Src/usbd_ctlreq.c ****           pdev->dev_config = cfgidx;
 971              		.loc 1 672 11 view .LVU283
 672:Middlewares/ST/STM32_USB_Device_Library/Core/Src/usbd_ctlreq.c ****           pdev->dev_config = cfgidx;
 972              		.loc 1 672 27 is_stmt 0 view .LVU284
 973 008e A723     		movs	r3, #167
 974 0090 9B00     		lsls	r3, r3, #2
 975 0092 0222     		movs	r2, #2
 976 0094 C254     		strb	r2, [r0, r3]
 673:Middlewares/ST/STM32_USB_Device_Library/Core/Src/usbd_ctlreq.c ****           USBD_ClrClassConfig(pdev, cfgidx);
 977              		.loc 1 673 11 is_stmt 1 view .LVU285
 673:Middlewares/ST/STM32_USB_Device_Library/Core/Src/usbd_ctlreq.c ****           USBD_ClrClassConfig(pdev, cfgidx);
 978              		.loc 1 673 28 is_stmt 0 view .LVU286
 979 0096 4160     		str	r1, [r0, #4]
 674:Middlewares/ST/STM32_USB_Device_Library/Core/Src/usbd_ctlreq.c ****           USBD_CtlSendStatus(pdev);
 980              		.loc 1 674 11 is_stmt 1 view .LVU287
 981 0098 FFF7FEFF 		bl	USBD_ClrClassConfig
 982              	.LVL111:
 675:Middlewares/ST/STM32_USB_Device_Library/Core/Src/usbd_ctlreq.c ****         }
 983              		.loc 1 675 11 view .LVU288
 984 009c 2000     		movs	r0, r4
 985 009e FFF7FEFF 		bl	USBD_CtlSendStatus
 986              	.LVL112:
 987 00a2 C8E7     		b	.L52
 988              	.L67:
 686:Middlewares/ST/STM32_USB_Device_Library/Core/Src/usbd_ctlreq.c ****             return;
 989              		.loc 1 686 13 view .LVU289
 990 00a4 2900     		movs	r1, r5
 991 00a6 2000     		movs	r0, r4
 992 00a8 FFF7FEFF 		bl	USBD_CtlError
 993              	.LVL113:
 687:Middlewares/ST/STM32_USB_Device_Library/Core/Src/usbd_ctlreq.c ****           }
 994              		.loc 1 687 13 view .LVU290
 995 00ac C3E7     		b	.L52
 996              	.LVL114:
 997              	.L61:
ARM GAS  C:\Users\Daniel\AppData\Local\Temp\ccTSPUfT.s 			page 39


 693:Middlewares/ST/STM32_USB_Device_Library/Core/Src/usbd_ctlreq.c ****         }
 998              		.loc 1 693 11 view .LVU291
 999 00ae FFF7FEFF 		bl	USBD_CtlSendStatus
 1000              	.LVL115:
 693:Middlewares/ST/STM32_USB_Device_Library/Core/Src/usbd_ctlreq.c ****         }
 1001              		.loc 1 693 11 is_stmt 0 view .LVU292
 1002 00b2 C0E7     		b	.L52
 1003              	.L69:
 1004              		.align	2
 1005              	.L68:
 1006 00b4 00000000 		.word	cfgidx.0
 1007              		.cfi_endproc
 1008              	.LFE48:
 1010              		.section	.text.USBD_GetConfig,"ax",%progbits
 1011              		.align	1
 1012              		.syntax unified
 1013              		.code	16
 1014              		.thumb_func
 1016              	USBD_GetConfig:
 1017              	.LVL116:
 1018              	.LFB49:
 713:Middlewares/ST/STM32_USB_Device_Library/Core/Src/usbd_ctlreq.c ****   if (req->wLength != 1U)
 1019              		.loc 1 713 1 is_stmt 1 view -0
 1020              		.cfi_startproc
 1021              		@ args = 0, pretend = 0, frame = 0
 1022              		@ frame_needed = 0, uses_anonymous_args = 0
 713:Middlewares/ST/STM32_USB_Device_Library/Core/Src/usbd_ctlreq.c ****   if (req->wLength != 1U)
 1023              		.loc 1 713 1 is_stmt 0 view .LVU294
 1024 0000 10B5     		push	{r4, lr}
 1025              		.cfi_def_cfa_offset 8
 1026              		.cfi_offset 4, -8
 1027              		.cfi_offset 14, -4
 714:Middlewares/ST/STM32_USB_Device_Library/Core/Src/usbd_ctlreq.c ****   {
 1028              		.loc 1 714 3 is_stmt 1 view .LVU295
 714:Middlewares/ST/STM32_USB_Device_Library/Core/Src/usbd_ctlreq.c ****   {
 1029              		.loc 1 714 10 is_stmt 0 view .LVU296
 1030 0002 CB88     		ldrh	r3, [r1, #6]
 714:Middlewares/ST/STM32_USB_Device_Library/Core/Src/usbd_ctlreq.c ****   {
 1031              		.loc 1 714 6 view .LVU297
 1032 0004 012B     		cmp	r3, #1
 1033 0006 0BD1     		bne	.L77
 720:Middlewares/ST/STM32_USB_Device_Library/Core/Src/usbd_ctlreq.c ****     {
 1034              		.loc 1 720 5 is_stmt 1 view .LVU298
 720:Middlewares/ST/STM32_USB_Device_Library/Core/Src/usbd_ctlreq.c ****     {
 1035              		.loc 1 720 17 is_stmt 0 view .LVU299
 1036 0008 A723     		movs	r3, #167
 1037 000a 9B00     		lsls	r3, r3, #2
 1038 000c C35C     		ldrb	r3, [r0, r3]
 720:Middlewares/ST/STM32_USB_Device_Library/Core/Src/usbd_ctlreq.c ****     {
 1039              		.loc 1 720 5 view .LVU300
 1040 000e 022B     		cmp	r3, #2
 1041 0010 09D9     		bls	.L78
 1042 0012 032B     		cmp	r3, #3
 1043 0014 09D1     		bne	.L75
 729:Middlewares/ST/STM32_USB_Device_Library/Core/Src/usbd_ctlreq.c ****         break;
 1044              		.loc 1 729 9 is_stmt 1 view .LVU301
 729:Middlewares/ST/STM32_USB_Device_Library/Core/Src/usbd_ctlreq.c ****         break;
ARM GAS  C:\Users\Daniel\AppData\Local\Temp\ccTSPUfT.s 			page 40


 1045              		.loc 1 729 51 is_stmt 0 view .LVU302
 1046 0016 011D     		adds	r1, r0, #4
 1047              	.LVL117:
 729:Middlewares/ST/STM32_USB_Device_Library/Core/Src/usbd_ctlreq.c ****         break;
 1048              		.loc 1 729 9 view .LVU303
 1049 0018 0122     		movs	r2, #1
 1050 001a FFF7FEFF 		bl	USBD_CtlSendData
 1051              	.LVL118:
 730:Middlewares/ST/STM32_USB_Device_Library/Core/Src/usbd_ctlreq.c **** 
 1052              		.loc 1 730 9 is_stmt 1 view .LVU304
 1053 001e 01E0     		b	.L70
 1054              	.LVL119:
 1055              	.L77:
 716:Middlewares/ST/STM32_USB_Device_Library/Core/Src/usbd_ctlreq.c ****   }
 1056              		.loc 1 716 5 view .LVU305
 1057 0020 FFF7FEFF 		bl	USBD_CtlError
 1058              	.LVL120:
 1059              	.L70:
 737:Middlewares/ST/STM32_USB_Device_Library/Core/Src/usbd_ctlreq.c **** 
 1060              		.loc 1 737 1 is_stmt 0 view .LVU306
 1061              		@ sp needed
 1062 0024 10BD     		pop	{r4, pc}
 1063              	.LVL121:
 1064              	.L78:
 720:Middlewares/ST/STM32_USB_Device_Library/Core/Src/usbd_ctlreq.c ****     {
 1065              		.loc 1 720 5 view .LVU307
 1066 0026 002B     		cmp	r3, #0
 1067 0028 02D1     		bne	.L79
 1068              	.L75:
 733:Middlewares/ST/STM32_USB_Device_Library/Core/Src/usbd_ctlreq.c ****         break;
 1069              		.loc 1 733 9 is_stmt 1 view .LVU308
 1070 002a FFF7FEFF 		bl	USBD_CtlError
 1071              	.LVL122:
 734:Middlewares/ST/STM32_USB_Device_Library/Core/Src/usbd_ctlreq.c ****     }
 1072              		.loc 1 734 9 view .LVU309
 737:Middlewares/ST/STM32_USB_Device_Library/Core/Src/usbd_ctlreq.c **** 
 1073              		.loc 1 737 1 is_stmt 0 view .LVU310
 1074 002e F9E7     		b	.L70
 1075              	.LVL123:
 1076              	.L79:
 724:Middlewares/ST/STM32_USB_Device_Library/Core/Src/usbd_ctlreq.c ****         USBD_CtlSendData(pdev, (uint8_t *)(void *)&pdev->dev_default_config, 1U);
 1077              		.loc 1 724 9 is_stmt 1 view .LVU311
 724:Middlewares/ST/STM32_USB_Device_Library/Core/Src/usbd_ctlreq.c ****         USBD_CtlSendData(pdev, (uint8_t *)(void *)&pdev->dev_default_config, 1U);
 1078              		.loc 1 724 34 is_stmt 0 view .LVU312
 1079 0030 0023     		movs	r3, #0
 1080 0032 8360     		str	r3, [r0, #8]
 725:Middlewares/ST/STM32_USB_Device_Library/Core/Src/usbd_ctlreq.c ****         break;
 1081              		.loc 1 725 9 is_stmt 1 view .LVU313
 725:Middlewares/ST/STM32_USB_Device_Library/Core/Src/usbd_ctlreq.c ****         break;
 1082              		.loc 1 725 51 is_stmt 0 view .LVU314
 1083 0034 0100     		movs	r1, r0
 1084              	.LVL124:
 725:Middlewares/ST/STM32_USB_Device_Library/Core/Src/usbd_ctlreq.c ****         break;
 1085              		.loc 1 725 51 view .LVU315
 1086 0036 0831     		adds	r1, r1, #8
 725:Middlewares/ST/STM32_USB_Device_Library/Core/Src/usbd_ctlreq.c ****         break;
 1087              		.loc 1 725 9 view .LVU316
ARM GAS  C:\Users\Daniel\AppData\Local\Temp\ccTSPUfT.s 			page 41


 1088 0038 0122     		movs	r2, #1
 1089 003a FFF7FEFF 		bl	USBD_CtlSendData
 1090              	.LVL125:
 726:Middlewares/ST/STM32_USB_Device_Library/Core/Src/usbd_ctlreq.c **** 
 1091              		.loc 1 726 9 is_stmt 1 view .LVU317
 1092 003e F1E7     		b	.L70
 1093              		.cfi_endproc
 1094              	.LFE49:
 1096              		.section	.text.USBD_GetStatus,"ax",%progbits
 1097              		.align	1
 1098              		.syntax unified
 1099              		.code	16
 1100              		.thumb_func
 1102              	USBD_GetStatus:
 1103              	.LVL126:
 1104              	.LFB50:
 747:Middlewares/ST/STM32_USB_Device_Library/Core/Src/usbd_ctlreq.c ****   switch (pdev->dev_state)
 1105              		.loc 1 747 1 view -0
 1106              		.cfi_startproc
 1107              		@ args = 0, pretend = 0, frame = 0
 1108              		@ frame_needed = 0, uses_anonymous_args = 0
 747:Middlewares/ST/STM32_USB_Device_Library/Core/Src/usbd_ctlreq.c ****   switch (pdev->dev_state)
 1109              		.loc 1 747 1 is_stmt 0 view .LVU319
 1110 0000 10B5     		push	{r4, lr}
 1111              		.cfi_def_cfa_offset 8
 1112              		.cfi_offset 4, -8
 1113              		.cfi_offset 14, -4
 748:Middlewares/ST/STM32_USB_Device_Library/Core/Src/usbd_ctlreq.c ****   {
 1114              		.loc 1 748 3 is_stmt 1 view .LVU320
 748:Middlewares/ST/STM32_USB_Device_Library/Core/Src/usbd_ctlreq.c ****   {
 1115              		.loc 1 748 15 is_stmt 0 view .LVU321
 1116 0002 A723     		movs	r3, #167
 1117 0004 9B00     		lsls	r3, r3, #2
 1118 0006 C35C     		ldrb	r3, [r0, r3]
 748:Middlewares/ST/STM32_USB_Device_Library/Core/Src/usbd_ctlreq.c ****   {
 1119              		.loc 1 748 3 view .LVU322
 1120 0008 013B     		subs	r3, r3, #1
 1121 000a 022B     		cmp	r3, #2
 1122 000c 14D8     		bhi	.L81
 753:Middlewares/ST/STM32_USB_Device_Library/Core/Src/usbd_ctlreq.c ****       {
 1123              		.loc 1 753 7 is_stmt 1 view .LVU323
 753:Middlewares/ST/STM32_USB_Device_Library/Core/Src/usbd_ctlreq.c ****       {
 1124              		.loc 1 753 14 is_stmt 0 view .LVU324
 1125 000e CB88     		ldrh	r3, [r1, #6]
 753:Middlewares/ST/STM32_USB_Device_Library/Core/Src/usbd_ctlreq.c ****       {
 1126              		.loc 1 753 10 view .LVU325
 1127 0010 022B     		cmp	r3, #2
 1128 0012 0ED1     		bne	.L85
 760:Middlewares/ST/STM32_USB_Device_Library/Core/Src/usbd_ctlreq.c **** #else
 1129              		.loc 1 760 7 is_stmt 1 view .LVU326
 760:Middlewares/ST/STM32_USB_Device_Library/Core/Src/usbd_ctlreq.c **** #else
 1130              		.loc 1 760 31 is_stmt 0 view .LVU327
 1131 0014 0123     		movs	r3, #1
 1132 0016 C360     		str	r3, [r0, #12]
 765:Middlewares/ST/STM32_USB_Device_Library/Core/Src/usbd_ctlreq.c ****       {
 1133              		.loc 1 765 7 is_stmt 1 view .LVU328
 765:Middlewares/ST/STM32_USB_Device_Library/Core/Src/usbd_ctlreq.c ****       {
ARM GAS  C:\Users\Daniel\AppData\Local\Temp\ccTSPUfT.s 			page 42


 1134              		.loc 1 765 15 is_stmt 0 view .LVU329
 1135 0018 A923     		movs	r3, #169
 1136 001a 9B00     		lsls	r3, r3, #2
 1137 001c C358     		ldr	r3, [r0, r3]
 765:Middlewares/ST/STM32_USB_Device_Library/Core/Src/usbd_ctlreq.c ****       {
 1138              		.loc 1 765 10 view .LVU330
 1139 001e 002B     		cmp	r3, #0
 1140 0020 01D0     		beq	.L84
 767:Middlewares/ST/STM32_USB_Device_Library/Core/Src/usbd_ctlreq.c ****       }
 1141              		.loc 1 767 9 is_stmt 1 view .LVU331
 767:Middlewares/ST/STM32_USB_Device_Library/Core/Src/usbd_ctlreq.c ****       }
 1142              		.loc 1 767 33 is_stmt 0 view .LVU332
 1143 0022 0323     		movs	r3, #3
 1144 0024 C360     		str	r3, [r0, #12]
 1145              	.L84:
 770:Middlewares/ST/STM32_USB_Device_Library/Core/Src/usbd_ctlreq.c ****       break;
 1146              		.loc 1 770 7 is_stmt 1 view .LVU333
 770:Middlewares/ST/STM32_USB_Device_Library/Core/Src/usbd_ctlreq.c ****       break;
 1147              		.loc 1 770 49 is_stmt 0 view .LVU334
 1148 0026 0100     		movs	r1, r0
 1149              	.LVL127:
 770:Middlewares/ST/STM32_USB_Device_Library/Core/Src/usbd_ctlreq.c ****       break;
 1150              		.loc 1 770 49 view .LVU335
 1151 0028 0C31     		adds	r1, r1, #12
 770:Middlewares/ST/STM32_USB_Device_Library/Core/Src/usbd_ctlreq.c ****       break;
 1152              		.loc 1 770 7 view .LVU336
 1153 002a 0222     		movs	r2, #2
 1154 002c FFF7FEFF 		bl	USBD_CtlSendData
 1155              	.LVL128:
 771:Middlewares/ST/STM32_USB_Device_Library/Core/Src/usbd_ctlreq.c **** 
 1156              		.loc 1 771 7 is_stmt 1 view .LVU337
 1157              	.L80:
 777:Middlewares/ST/STM32_USB_Device_Library/Core/Src/usbd_ctlreq.c **** 
 1158              		.loc 1 777 1 is_stmt 0 view .LVU338
 1159              		@ sp needed
 1160 0030 10BD     		pop	{r4, pc}
 1161              	.LVL129:
 1162              	.L85:
 755:Middlewares/ST/STM32_USB_Device_Library/Core/Src/usbd_ctlreq.c ****         break;
 1163              		.loc 1 755 9 is_stmt 1 view .LVU339
 1164 0032 FFF7FEFF 		bl	USBD_CtlError
 1165              	.LVL130:
 756:Middlewares/ST/STM32_USB_Device_Library/Core/Src/usbd_ctlreq.c ****       }
 1166              		.loc 1 756 9 view .LVU340
 1167 0036 FBE7     		b	.L80
 1168              	.LVL131:
 1169              	.L81:
 774:Middlewares/ST/STM32_USB_Device_Library/Core/Src/usbd_ctlreq.c ****       break;
 1170              		.loc 1 774 7 view .LVU341
 1171 0038 FFF7FEFF 		bl	USBD_CtlError
 1172              	.LVL132:
 775:Middlewares/ST/STM32_USB_Device_Library/Core/Src/usbd_ctlreq.c ****   }
 1173              		.loc 1 775 7 view .LVU342
 777:Middlewares/ST/STM32_USB_Device_Library/Core/Src/usbd_ctlreq.c **** 
 1174              		.loc 1 777 1 is_stmt 0 view .LVU343
 1175 003c F8E7     		b	.L80
 1176              		.cfi_endproc
ARM GAS  C:\Users\Daniel\AppData\Local\Temp\ccTSPUfT.s 			page 43


 1177              	.LFE50:
 1179              		.section	.text.USBD_ClrFeature,"ax",%progbits
 1180              		.align	1
 1181              		.syntax unified
 1182              		.code	16
 1183              		.thumb_func
 1185              	USBD_ClrFeature:
 1186              	.LVL133:
 1187              	.LFB52:
 807:Middlewares/ST/STM32_USB_Device_Library/Core/Src/usbd_ctlreq.c ****   switch (pdev->dev_state)
 1188              		.loc 1 807 1 is_stmt 1 view -0
 1189              		.cfi_startproc
 1190              		@ args = 0, pretend = 0, frame = 0
 1191              		@ frame_needed = 0, uses_anonymous_args = 0
 807:Middlewares/ST/STM32_USB_Device_Library/Core/Src/usbd_ctlreq.c ****   switch (pdev->dev_state)
 1192              		.loc 1 807 1 is_stmt 0 view .LVU345
 1193 0000 10B5     		push	{r4, lr}
 1194              		.cfi_def_cfa_offset 8
 1195              		.cfi_offset 4, -8
 1196              		.cfi_offset 14, -4
 808:Middlewares/ST/STM32_USB_Device_Library/Core/Src/usbd_ctlreq.c ****   {
 1197              		.loc 1 808 3 is_stmt 1 view .LVU346
 808:Middlewares/ST/STM32_USB_Device_Library/Core/Src/usbd_ctlreq.c ****   {
 1198              		.loc 1 808 15 is_stmt 0 view .LVU347
 1199 0002 A723     		movs	r3, #167
 1200 0004 9B00     		lsls	r3, r3, #2
 1201 0006 C35C     		ldrb	r3, [r0, r3]
 808:Middlewares/ST/STM32_USB_Device_Library/Core/Src/usbd_ctlreq.c ****   {
 1202              		.loc 1 808 3 view .LVU348
 1203 0008 013B     		subs	r3, r3, #1
 1204 000a 022B     		cmp	r3, #2
 1205 000c 0AD8     		bhi	.L87
 813:Middlewares/ST/STM32_USB_Device_Library/Core/Src/usbd_ctlreq.c ****       {
 1206              		.loc 1 813 7 is_stmt 1 view .LVU349
 813:Middlewares/ST/STM32_USB_Device_Library/Core/Src/usbd_ctlreq.c ****       {
 1207              		.loc 1 813 14 is_stmt 0 view .LVU350
 1208 000e 4B88     		ldrh	r3, [r1, #2]
 813:Middlewares/ST/STM32_USB_Device_Library/Core/Src/usbd_ctlreq.c ****       {
 1209              		.loc 1 813 10 view .LVU351
 1210 0010 012B     		cmp	r3, #1
 1211 0012 00D0     		beq	.L89
 1212              	.LVL134:
 1213              	.L86:
 824:Middlewares/ST/STM32_USB_Device_Library/Core/Src/usbd_ctlreq.c **** 
 1214              		.loc 1 824 1 view .LVU352
 1215              		@ sp needed
 1216 0014 10BD     		pop	{r4, pc}
 1217              	.LVL135:
 1218              	.L89:
 815:Middlewares/ST/STM32_USB_Device_Library/Core/Src/usbd_ctlreq.c ****         USBD_CtlSendStatus(pdev);
 1219              		.loc 1 815 9 is_stmt 1 view .LVU353
 815:Middlewares/ST/STM32_USB_Device_Library/Core/Src/usbd_ctlreq.c ****         USBD_CtlSendStatus(pdev);
 1220              		.loc 1 815 33 is_stmt 0 view .LVU354
 1221 0016 A923     		movs	r3, #169
 1222 0018 9B00     		lsls	r3, r3, #2
 1223 001a 0022     		movs	r2, #0
 1224 001c C250     		str	r2, [r0, r3]
ARM GAS  C:\Users\Daniel\AppData\Local\Temp\ccTSPUfT.s 			page 44


 816:Middlewares/ST/STM32_USB_Device_Library/Core/Src/usbd_ctlreq.c ****       }
 1225              		.loc 1 816 9 is_stmt 1 view .LVU355
 1226 001e FFF7FEFF 		bl	USBD_CtlSendStatus
 1227              	.LVL136:
 816:Middlewares/ST/STM32_USB_Device_Library/Core/Src/usbd_ctlreq.c ****       }
 1228              		.loc 1 816 9 is_stmt 0 view .LVU356
 1229 0022 F7E7     		b	.L86
 1230              	.LVL137:
 1231              	.L87:
 821:Middlewares/ST/STM32_USB_Device_Library/Core/Src/usbd_ctlreq.c ****       break;
 1232              		.loc 1 821 7 is_stmt 1 view .LVU357
 1233 0024 FFF7FEFF 		bl	USBD_CtlError
 1234              	.LVL138:
 822:Middlewares/ST/STM32_USB_Device_Library/Core/Src/usbd_ctlreq.c ****   }
 1235              		.loc 1 822 7 view .LVU358
 824:Middlewares/ST/STM32_USB_Device_Library/Core/Src/usbd_ctlreq.c **** 
 1236              		.loc 1 824 1 is_stmt 0 view .LVU359
 1237 0028 F4E7     		b	.L86
 1238              		.cfi_endproc
 1239              	.LFE52:
 1241              		.section	.text.USBD_StdDevReq,"ax",%progbits
 1242              		.align	1
 1243              		.global	USBD_StdDevReq
 1244              		.syntax unified
 1245              		.code	16
 1246              		.thumb_func
 1248              	USBD_StdDevReq:
 1249              	.LVL139:
 1250              	.LFB43:
 116:Middlewares/ST/STM32_USB_Device_Library/Core/Src/usbd_ctlreq.c ****   USBD_StatusTypeDef ret = USBD_OK;
 1251              		.loc 1 116 1 is_stmt 1 view -0
 1252              		.cfi_startproc
 1253              		@ args = 0, pretend = 0, frame = 0
 1254              		@ frame_needed = 0, uses_anonymous_args = 0
 116:Middlewares/ST/STM32_USB_Device_Library/Core/Src/usbd_ctlreq.c ****   USBD_StatusTypeDef ret = USBD_OK;
 1255              		.loc 1 116 1 is_stmt 0 view .LVU361
 1256 0000 10B5     		push	{r4, lr}
 1257              		.cfi_def_cfa_offset 8
 1258              		.cfi_offset 4, -8
 1259              		.cfi_offset 14, -4
 117:Middlewares/ST/STM32_USB_Device_Library/Core/Src/usbd_ctlreq.c **** 
 1260              		.loc 1 117 3 is_stmt 1 view .LVU362
 1261              	.LVL140:
 119:Middlewares/ST/STM32_USB_Device_Library/Core/Src/usbd_ctlreq.c ****   {
 1262              		.loc 1 119 3 view .LVU363
 119:Middlewares/ST/STM32_USB_Device_Library/Core/Src/usbd_ctlreq.c ****   {
 1263              		.loc 1 119 14 is_stmt 0 view .LVU364
 1264 0002 0A78     		ldrb	r2, [r1]
 1265 0004 6023     		movs	r3, #96
 1266 0006 1340     		ands	r3, r2
 119:Middlewares/ST/STM32_USB_Device_Library/Core/Src/usbd_ctlreq.c ****   {
 1267              		.loc 1 119 3 view .LVU365
 1268 0008 202B     		cmp	r3, #32
 1269 000a 06D0     		beq	.L91
 1270 000c 402B     		cmp	r3, #64
 1271 000e 04D0     		beq	.L91
 1272 0010 002B     		cmp	r3, #0
ARM GAS  C:\Users\Daniel\AppData\Local\Temp\ccTSPUfT.s 			page 45


 1273 0012 09D0     		beq	.L105
 164:Middlewares/ST/STM32_USB_Device_Library/Core/Src/usbd_ctlreq.c ****       break;
 1274              		.loc 1 164 7 is_stmt 1 view .LVU366
 1275 0014 FFF7FEFF 		bl	USBD_CtlError
 1276              	.LVL141:
 165:Middlewares/ST/STM32_USB_Device_Library/Core/Src/usbd_ctlreq.c ****   }
 1277              		.loc 1 165 7 view .LVU367
 1278 0018 04E0     		b	.L94
 1279              	.LVL142:
 1280              	.L91:
 123:Middlewares/ST/STM32_USB_Device_Library/Core/Src/usbd_ctlreq.c ****       break;
 1281              		.loc 1 123 7 view .LVU368
 123:Middlewares/ST/STM32_USB_Device_Library/Core/Src/usbd_ctlreq.c ****       break;
 1282              		.loc 1 123 11 is_stmt 0 view .LVU369
 1283 001a AD23     		movs	r3, #173
 1284 001c 9B00     		lsls	r3, r3, #2
 1285 001e C358     		ldr	r3, [r0, r3]
 123:Middlewares/ST/STM32_USB_Device_Library/Core/Src/usbd_ctlreq.c ****       break;
 1286              		.loc 1 123 19 view .LVU370
 1287 0020 9B68     		ldr	r3, [r3, #8]
 123:Middlewares/ST/STM32_USB_Device_Library/Core/Src/usbd_ctlreq.c ****       break;
 1288              		.loc 1 123 7 view .LVU371
 1289 0022 9847     		blx	r3
 1290              	.LVL143:
 124:Middlewares/ST/STM32_USB_Device_Library/Core/Src/usbd_ctlreq.c **** 
 1291              		.loc 1 124 7 is_stmt 1 view .LVU372
 1292              	.L94:
 168:Middlewares/ST/STM32_USB_Device_Library/Core/Src/usbd_ctlreq.c **** }
 1293              		.loc 1 168 3 view .LVU373
 169:Middlewares/ST/STM32_USB_Device_Library/Core/Src/usbd_ctlreq.c **** 
 1294              		.loc 1 169 1 is_stmt 0 view .LVU374
 1295 0024 0020     		movs	r0, #0
 1296              		@ sp needed
 1297 0026 10BD     		pop	{r4, pc}
 1298              	.LVL144:
 1299              	.L105:
 127:Middlewares/ST/STM32_USB_Device_Library/Core/Src/usbd_ctlreq.c ****       {
 1300              		.loc 1 127 7 is_stmt 1 view .LVU375
 127:Middlewares/ST/STM32_USB_Device_Library/Core/Src/usbd_ctlreq.c ****       {
 1301              		.loc 1 127 18 is_stmt 0 view .LVU376
 1302 0028 4B78     		ldrb	r3, [r1, #1]
 1303 002a 092B     		cmp	r3, #9
 1304 002c 18D8     		bhi	.L95
 1305 002e 9B00     		lsls	r3, r3, #2
 1306 0030 0D4A     		ldr	r2, .L106
 1307 0032 D358     		ldr	r3, [r2, r3]
 1308 0034 9F46     		mov	pc, r3
 1309              		.section	.rodata.USBD_StdDevReq,"a",%progbits
 1310              		.align	2
 1311              	.L97:
 1312 0000 4E000000 		.word	.L103
 1313 0004 5A000000 		.word	.L102
 1314 0008 60000000 		.word	.L95
 1315 000c 54000000 		.word	.L101
 1316 0010 60000000 		.word	.L95
 1317 0014 3C000000 		.word	.L100
 1318 0018 36000000 		.word	.L99
ARM GAS  C:\Users\Daniel\AppData\Local\Temp\ccTSPUfT.s 			page 46


 1319 001c 60000000 		.word	.L95
 1320 0020 48000000 		.word	.L98
 1321 0024 42000000 		.word	.L96
 1322              		.section	.text.USBD_StdDevReq
 1323              	.L99:
 130:Middlewares/ST/STM32_USB_Device_Library/Core/Src/usbd_ctlreq.c ****           break;
 1324              		.loc 1 130 11 is_stmt 1 view .LVU377
 1325 0036 FFF7FEFF 		bl	USBD_GetDescriptor
 1326              	.LVL145:
 131:Middlewares/ST/STM32_USB_Device_Library/Core/Src/usbd_ctlreq.c **** 
 1327              		.loc 1 131 11 view .LVU378
 1328 003a F3E7     		b	.L94
 1329              	.LVL146:
 1330              	.L100:
 134:Middlewares/ST/STM32_USB_Device_Library/Core/Src/usbd_ctlreq.c ****           break;
 1331              		.loc 1 134 11 view .LVU379
 1332 003c FFF7FEFF 		bl	USBD_SetAddress
 1333              	.LVL147:
 135:Middlewares/ST/STM32_USB_Device_Library/Core/Src/usbd_ctlreq.c **** 
 1334              		.loc 1 135 11 view .LVU380
 1335 0040 F0E7     		b	.L94
 1336              	.LVL148:
 1337              	.L96:
 138:Middlewares/ST/STM32_USB_Device_Library/Core/Src/usbd_ctlreq.c ****           break;
 1338              		.loc 1 138 11 view .LVU381
 1339 0042 FFF7FEFF 		bl	USBD_SetConfig
 1340              	.LVL149:
 139:Middlewares/ST/STM32_USB_Device_Library/Core/Src/usbd_ctlreq.c **** 
 1341              		.loc 1 139 11 view .LVU382
 1342 0046 EDE7     		b	.L94
 1343              	.LVL150:
 1344              	.L98:
 142:Middlewares/ST/STM32_USB_Device_Library/Core/Src/usbd_ctlreq.c ****           break;
 1345              		.loc 1 142 11 view .LVU383
 1346 0048 FFF7FEFF 		bl	USBD_GetConfig
 1347              	.LVL151:
 143:Middlewares/ST/STM32_USB_Device_Library/Core/Src/usbd_ctlreq.c **** 
 1348              		.loc 1 143 11 view .LVU384
 1349 004c EAE7     		b	.L94
 1350              	.LVL152:
 1351              	.L103:
 146:Middlewares/ST/STM32_USB_Device_Library/Core/Src/usbd_ctlreq.c ****           break;
 1352              		.loc 1 146 11 view .LVU385
 1353 004e FFF7FEFF 		bl	USBD_GetStatus
 1354              	.LVL153:
 147:Middlewares/ST/STM32_USB_Device_Library/Core/Src/usbd_ctlreq.c **** 
 1355              		.loc 1 147 11 view .LVU386
 1356 0052 E7E7     		b	.L94
 1357              	.LVL154:
 1358              	.L101:
 150:Middlewares/ST/STM32_USB_Device_Library/Core/Src/usbd_ctlreq.c ****           break;
 1359              		.loc 1 150 11 view .LVU387
 1360 0054 FFF7FEFF 		bl	USBD_SetFeature
 1361              	.LVL155:
 151:Middlewares/ST/STM32_USB_Device_Library/Core/Src/usbd_ctlreq.c **** 
 1362              		.loc 1 151 11 view .LVU388
 1363 0058 E4E7     		b	.L94
ARM GAS  C:\Users\Daniel\AppData\Local\Temp\ccTSPUfT.s 			page 47


 1364              	.LVL156:
 1365              	.L102:
 154:Middlewares/ST/STM32_USB_Device_Library/Core/Src/usbd_ctlreq.c ****           break;
 1366              		.loc 1 154 11 view .LVU389
 1367 005a FFF7FEFF 		bl	USBD_ClrFeature
 1368              	.LVL157:
 155:Middlewares/ST/STM32_USB_Device_Library/Core/Src/usbd_ctlreq.c **** 
 1369              		.loc 1 155 11 view .LVU390
 1370 005e E1E7     		b	.L94
 1371              	.LVL158:
 1372              	.L95:
 158:Middlewares/ST/STM32_USB_Device_Library/Core/Src/usbd_ctlreq.c ****           break;
 1373              		.loc 1 158 11 view .LVU391
 1374 0060 FFF7FEFF 		bl	USBD_CtlError
 1375              	.LVL159:
 159:Middlewares/ST/STM32_USB_Device_Library/Core/Src/usbd_ctlreq.c ****       }
 1376              		.loc 1 159 11 view .LVU392
 1377 0064 DEE7     		b	.L94
 1378              	.L107:
 1379 0066 C046     		.align	2
 1380              	.L106:
 1381 0068 00000000 		.word	.L97
 1382              		.cfi_endproc
 1383              	.LFE43:
 1385              		.section	.text.USBD_StdItfReq,"ax",%progbits
 1386              		.align	1
 1387              		.global	USBD_StdItfReq
 1388              		.syntax unified
 1389              		.code	16
 1390              		.thumb_func
 1392              	USBD_StdItfReq:
 1393              	.LVL160:
 1394              	.LFB44:
 180:Middlewares/ST/STM32_USB_Device_Library/Core/Src/usbd_ctlreq.c ****   USBD_StatusTypeDef ret = USBD_OK;
 1395              		.loc 1 180 1 view -0
 1396              		.cfi_startproc
 1397              		@ args = 0, pretend = 0, frame = 0
 1398              		@ frame_needed = 0, uses_anonymous_args = 0
 180:Middlewares/ST/STM32_USB_Device_Library/Core/Src/usbd_ctlreq.c ****   USBD_StatusTypeDef ret = USBD_OK;
 1399              		.loc 1 180 1 is_stmt 0 view .LVU394
 1400 0000 70B5     		push	{r4, r5, r6, lr}
 1401              		.cfi_def_cfa_offset 16
 1402              		.cfi_offset 4, -16
 1403              		.cfi_offset 5, -12
 1404              		.cfi_offset 6, -8
 1405              		.cfi_offset 14, -4
 1406 0002 0500     		movs	r5, r0
 1407 0004 0C00     		movs	r4, r1
 181:Middlewares/ST/STM32_USB_Device_Library/Core/Src/usbd_ctlreq.c **** 
 1408              		.loc 1 181 3 is_stmt 1 view .LVU395
 1409              	.LVL161:
 183:Middlewares/ST/STM32_USB_Device_Library/Core/Src/usbd_ctlreq.c ****   {
 1410              		.loc 1 183 3 view .LVU396
 183:Middlewares/ST/STM32_USB_Device_Library/Core/Src/usbd_ctlreq.c ****   {
 1411              		.loc 1 183 14 is_stmt 0 view .LVU397
 1412 0006 0A78     		ldrb	r2, [r1]
 1413 0008 6023     		movs	r3, #96
ARM GAS  C:\Users\Daniel\AppData\Local\Temp\ccTSPUfT.s 			page 48


 1414 000a 1340     		ands	r3, r2
 183:Middlewares/ST/STM32_USB_Device_Library/Core/Src/usbd_ctlreq.c ****   {
 1415              		.loc 1 183 3 view .LVU398
 1416 000c 202B     		cmp	r3, #32
 1417 000e 07D0     		beq	.L109
 1418 0010 402B     		cmp	r3, #64
 1419 0012 05D0     		beq	.L109
 1420 0014 002B     		cmp	r3, #0
 1421 0016 03D0     		beq	.L109
 216:Middlewares/ST/STM32_USB_Device_Library/Core/Src/usbd_ctlreq.c ****       break;
 1422              		.loc 1 216 7 is_stmt 1 view .LVU399
 1423 0018 FFF7FEFF 		bl	USBD_CtlError
 1424              	.LVL162:
 217:Middlewares/ST/STM32_USB_Device_Library/Core/Src/usbd_ctlreq.c ****   }
 1425              		.loc 1 217 7 view .LVU400
 1426              	.L113:
 220:Middlewares/ST/STM32_USB_Device_Library/Core/Src/usbd_ctlreq.c **** }
 1427              		.loc 1 220 3 view .LVU401
 221:Middlewares/ST/STM32_USB_Device_Library/Core/Src/usbd_ctlreq.c **** 
 1428              		.loc 1 221 1 is_stmt 0 view .LVU402
 1429 001c 0020     		movs	r0, #0
 1430              		@ sp needed
 1431              	.LVL163:
 1432              	.LVL164:
 221:Middlewares/ST/STM32_USB_Device_Library/Core/Src/usbd_ctlreq.c **** 
 1433              		.loc 1 221 1 view .LVU403
 1434 001e 70BD     		pop	{r4, r5, r6, pc}
 1435              	.LVL165:
 1436              	.L109:
 188:Middlewares/ST/STM32_USB_Device_Library/Core/Src/usbd_ctlreq.c ****       {
 1437              		.loc 1 188 7 is_stmt 1 view .LVU404
 188:Middlewares/ST/STM32_USB_Device_Library/Core/Src/usbd_ctlreq.c ****       {
 1438              		.loc 1 188 19 is_stmt 0 view .LVU405
 1439 0020 A723     		movs	r3, #167
 1440 0022 9B00     		lsls	r3, r3, #2
 1441 0024 EB5C     		ldrb	r3, [r5, r3]
 1442 0026 013B     		subs	r3, r3, #1
 1443 0028 022B     		cmp	r3, #2
 1444 002a 17D8     		bhi	.L111
 194:Middlewares/ST/STM32_USB_Device_Library/Core/Src/usbd_ctlreq.c ****           {
 1445              		.loc 1 194 11 is_stmt 1 view .LVU406
 194:Middlewares/ST/STM32_USB_Device_Library/Core/Src/usbd_ctlreq.c ****           {
 1446              		.loc 1 194 15 is_stmt 0 view .LVU407
 1447 002c 2379     		ldrb	r3, [r4, #4]
 194:Middlewares/ST/STM32_USB_Device_Library/Core/Src/usbd_ctlreq.c ****           {
 1448              		.loc 1 194 14 view .LVU408
 1449 002e 012B     		cmp	r3, #1
 1450 0030 0FD8     		bhi	.L112
 196:Middlewares/ST/STM32_USB_Device_Library/Core/Src/usbd_ctlreq.c **** 
 1451              		.loc 1 196 13 is_stmt 1 view .LVU409
 196:Middlewares/ST/STM32_USB_Device_Library/Core/Src/usbd_ctlreq.c **** 
 1452              		.loc 1 196 43 is_stmt 0 view .LVU410
 1453 0032 AD23     		movs	r3, #173
 1454 0034 9B00     		lsls	r3, r3, #2
 1455 0036 EB58     		ldr	r3, [r5, r3]
 196:Middlewares/ST/STM32_USB_Device_Library/Core/Src/usbd_ctlreq.c **** 
 1456              		.loc 1 196 51 view .LVU411
ARM GAS  C:\Users\Daniel\AppData\Local\Temp\ccTSPUfT.s 			page 49


 1457 0038 9B68     		ldr	r3, [r3, #8]
 196:Middlewares/ST/STM32_USB_Device_Library/Core/Src/usbd_ctlreq.c **** 
 1458              		.loc 1 196 39 view .LVU412
 1459 003a 2100     		movs	r1, r4
 1460              	.LVL166:
 196:Middlewares/ST/STM32_USB_Device_Library/Core/Src/usbd_ctlreq.c **** 
 1461              		.loc 1 196 39 view .LVU413
 1462 003c 2800     		movs	r0, r5
 1463              	.LVL167:
 196:Middlewares/ST/STM32_USB_Device_Library/Core/Src/usbd_ctlreq.c **** 
 1464              		.loc 1 196 39 view .LVU414
 1465 003e 9847     		blx	r3
 1466              	.LVL168:
 198:Middlewares/ST/STM32_USB_Device_Library/Core/Src/usbd_ctlreq.c ****             {
 1467              		.loc 1 198 13 is_stmt 1 view .LVU415
 198:Middlewares/ST/STM32_USB_Device_Library/Core/Src/usbd_ctlreq.c ****             {
 1468              		.loc 1 198 21 is_stmt 0 view .LVU416
 1469 0040 E388     		ldrh	r3, [r4, #6]
 198:Middlewares/ST/STM32_USB_Device_Library/Core/Src/usbd_ctlreq.c ****             {
 1470              		.loc 1 198 16 view .LVU417
 1471 0042 002B     		cmp	r3, #0
 1472 0044 EAD1     		bne	.L113
 198:Middlewares/ST/STM32_USB_Device_Library/Core/Src/usbd_ctlreq.c ****             {
 1473              		.loc 1 198 38 discriminator 1 view .LVU418
 1474 0046 0028     		cmp	r0, #0
 1475 0048 E8D1     		bne	.L113
 200:Middlewares/ST/STM32_USB_Device_Library/Core/Src/usbd_ctlreq.c ****             }
 1476              		.loc 1 200 15 is_stmt 1 view .LVU419
 1477 004a 2800     		movs	r0, r5
 1478              	.LVL169:
 200:Middlewares/ST/STM32_USB_Device_Library/Core/Src/usbd_ctlreq.c ****             }
 1479              		.loc 1 200 15 is_stmt 0 view .LVU420
 1480 004c FFF7FEFF 		bl	USBD_CtlSendStatus
 1481              	.LVL170:
 1482 0050 E4E7     		b	.L113
 1483              	.LVL171:
 1484              	.L112:
 205:Middlewares/ST/STM32_USB_Device_Library/Core/Src/usbd_ctlreq.c ****           }
 1485              		.loc 1 205 13 is_stmt 1 view .LVU421
 1486 0052 2100     		movs	r1, r4
 1487              	.LVL172:
 205:Middlewares/ST/STM32_USB_Device_Library/Core/Src/usbd_ctlreq.c ****           }
 1488              		.loc 1 205 13 is_stmt 0 view .LVU422
 1489 0054 2800     		movs	r0, r5
 1490              	.LVL173:
 205:Middlewares/ST/STM32_USB_Device_Library/Core/Src/usbd_ctlreq.c ****           }
 1491              		.loc 1 205 13 view .LVU423
 1492 0056 FFF7FEFF 		bl	USBD_CtlError
 1493              	.LVL174:
 1494 005a DFE7     		b	.L113
 1495              	.LVL175:
 1496              	.L111:
 210:Middlewares/ST/STM32_USB_Device_Library/Core/Src/usbd_ctlreq.c ****           break;
 1497              		.loc 1 210 11 is_stmt 1 view .LVU424
 1498 005c 2100     		movs	r1, r4
 1499              	.LVL176:
 210:Middlewares/ST/STM32_USB_Device_Library/Core/Src/usbd_ctlreq.c ****           break;
ARM GAS  C:\Users\Daniel\AppData\Local\Temp\ccTSPUfT.s 			page 50


 1500              		.loc 1 210 11 is_stmt 0 view .LVU425
 1501 005e 2800     		movs	r0, r5
 1502              	.LVL177:
 210:Middlewares/ST/STM32_USB_Device_Library/Core/Src/usbd_ctlreq.c ****           break;
 1503              		.loc 1 210 11 view .LVU426
 1504 0060 FFF7FEFF 		bl	USBD_CtlError
 1505              	.LVL178:
 211:Middlewares/ST/STM32_USB_Device_Library/Core/Src/usbd_ctlreq.c ****       }
 1506              		.loc 1 211 11 is_stmt 1 view .LVU427
 1507 0064 DAE7     		b	.L113
 1508              		.cfi_endproc
 1509              	.LFE44:
 1511              		.section	.text.USBD_StdEPReq,"ax",%progbits
 1512              		.align	1
 1513              		.global	USBD_StdEPReq
 1514              		.syntax unified
 1515              		.code	16
 1516              		.thumb_func
 1518              	USBD_StdEPReq:
 1519              	.LVL179:
 1520              	.LFB45:
 232:Middlewares/ST/STM32_USB_Device_Library/Core/Src/usbd_ctlreq.c ****   USBD_EndpointTypeDef *pep;
 1521              		.loc 1 232 1 view -0
 1522              		.cfi_startproc
 1523              		@ args = 0, pretend = 0, frame = 0
 1524              		@ frame_needed = 0, uses_anonymous_args = 0
 232:Middlewares/ST/STM32_USB_Device_Library/Core/Src/usbd_ctlreq.c ****   USBD_EndpointTypeDef *pep;
 1525              		.loc 1 232 1 is_stmt 0 view .LVU429
 1526 0000 70B5     		push	{r4, r5, r6, lr}
 1527              		.cfi_def_cfa_offset 16
 1528              		.cfi_offset 4, -16
 1529              		.cfi_offset 5, -12
 1530              		.cfi_offset 6, -8
 1531              		.cfi_offset 14, -4
 1532 0002 0500     		movs	r5, r0
 233:Middlewares/ST/STM32_USB_Device_Library/Core/Src/usbd_ctlreq.c ****   uint8_t   ep_addr;
 1533              		.loc 1 233 3 is_stmt 1 view .LVU430
 234:Middlewares/ST/STM32_USB_Device_Library/Core/Src/usbd_ctlreq.c ****   USBD_StatusTypeDef ret = USBD_OK;
 1534              		.loc 1 234 3 view .LVU431
 235:Middlewares/ST/STM32_USB_Device_Library/Core/Src/usbd_ctlreq.c ****   ep_addr  = LOBYTE(req->wIndex);
 1535              		.loc 1 235 3 view .LVU432
 1536              	.LVL180:
 236:Middlewares/ST/STM32_USB_Device_Library/Core/Src/usbd_ctlreq.c **** 
 1537              		.loc 1 236 3 view .LVU433
 236:Middlewares/ST/STM32_USB_Device_Library/Core/Src/usbd_ctlreq.c **** 
 1538              		.loc 1 236 14 is_stmt 0 view .LVU434
 1539 0004 8888     		ldrh	r0, [r1, #4]
 1540              	.LVL181:
 236:Middlewares/ST/STM32_USB_Device_Library/Core/Src/usbd_ctlreq.c **** 
 1541              		.loc 1 236 12 view .LVU435
 1542 0006 0A79     		ldrb	r2, [r1, #4]
 1543              	.LVL182:
 238:Middlewares/ST/STM32_USB_Device_Library/Core/Src/usbd_ctlreq.c ****   {
 1544              		.loc 1 238 3 is_stmt 1 view .LVU436
 238:Middlewares/ST/STM32_USB_Device_Library/Core/Src/usbd_ctlreq.c ****   {
 1545              		.loc 1 238 14 is_stmt 0 view .LVU437
 1546 0008 0B78     		ldrb	r3, [r1]
ARM GAS  C:\Users\Daniel\AppData\Local\Temp\ccTSPUfT.s 			page 51


 1547 000a 6024     		movs	r4, #96
 1548 000c 1C40     		ands	r4, r3
 238:Middlewares/ST/STM32_USB_Device_Library/Core/Src/usbd_ctlreq.c ****   {
 1549              		.loc 1 238 3 view .LVU438
 1550 000e 202C     		cmp	r4, #32
 1551 0010 08D0     		beq	.L115
 1552 0012 402C     		cmp	r4, #64
 1553 0014 06D0     		beq	.L115
 1554 0016 002C     		cmp	r4, #0
 1555 0018 0DD0     		beq	.L154
 390:Middlewares/ST/STM32_USB_Device_Library/Core/Src/usbd_ctlreq.c ****       break;
 1556              		.loc 1 390 7 is_stmt 1 view .LVU439
 1557 001a 2800     		movs	r0, r5
 1558 001c FFF7FEFF 		bl	USBD_CtlError
 1559              	.LVL183:
 391:Middlewares/ST/STM32_USB_Device_Library/Core/Src/usbd_ctlreq.c ****   }
 1560              		.loc 1 391 7 view .LVU440
 394:Middlewares/ST/STM32_USB_Device_Library/Core/Src/usbd_ctlreq.c **** }
 1561              		.loc 1 394 10 is_stmt 0 view .LVU441
 1562 0020 0024     		movs	r4, #0
 391:Middlewares/ST/STM32_USB_Device_Library/Core/Src/usbd_ctlreq.c ****   }
 1563              		.loc 1 391 7 view .LVU442
 1564 0022 06E0     		b	.L118
 1565              	.LVL184:
 1566              	.L115:
 242:Middlewares/ST/STM32_USB_Device_Library/Core/Src/usbd_ctlreq.c ****       break;
 1567              		.loc 1 242 7 is_stmt 1 view .LVU443
 242:Middlewares/ST/STM32_USB_Device_Library/Core/Src/usbd_ctlreq.c ****       break;
 1568              		.loc 1 242 11 is_stmt 0 view .LVU444
 1569 0024 AD23     		movs	r3, #173
 1570 0026 9B00     		lsls	r3, r3, #2
 1571 0028 EB58     		ldr	r3, [r5, r3]
 242:Middlewares/ST/STM32_USB_Device_Library/Core/Src/usbd_ctlreq.c ****       break;
 1572              		.loc 1 242 19 view .LVU445
 1573 002a 9B68     		ldr	r3, [r3, #8]
 242:Middlewares/ST/STM32_USB_Device_Library/Core/Src/usbd_ctlreq.c ****       break;
 1574              		.loc 1 242 7 view .LVU446
 1575 002c 2800     		movs	r0, r5
 1576 002e 9847     		blx	r3
 1577              	.LVL185:
 243:Middlewares/ST/STM32_USB_Device_Library/Core/Src/usbd_ctlreq.c **** 
 1578              		.loc 1 243 7 is_stmt 1 view .LVU447
 394:Middlewares/ST/STM32_USB_Device_Library/Core/Src/usbd_ctlreq.c **** }
 1579              		.loc 1 394 10 is_stmt 0 view .LVU448
 1580 0030 0024     		movs	r4, #0
 1581              	.LVL186:
 1582              	.L118:
 395:Middlewares/ST/STM32_USB_Device_Library/Core/Src/usbd_ctlreq.c **** 
 1583              		.loc 1 395 1 view .LVU449
 1584 0032 2000     		movs	r0, r4
 1585              		@ sp needed
 1586              	.LVL187:
 395:Middlewares/ST/STM32_USB_Device_Library/Core/Src/usbd_ctlreq.c **** 
 1587              		.loc 1 395 1 view .LVU450
 1588 0034 70BD     		pop	{r4, r5, r6, pc}
 1589              	.LVL188:
 1590              	.L154:
ARM GAS  C:\Users\Daniel\AppData\Local\Temp\ccTSPUfT.s 			page 52


 247:Middlewares/ST/STM32_USB_Device_Library/Core/Src/usbd_ctlreq.c ****       {
 1591              		.loc 1 247 7 is_stmt 1 view .LVU451
 247:Middlewares/ST/STM32_USB_Device_Library/Core/Src/usbd_ctlreq.c ****       {
 1592              		.loc 1 247 10 is_stmt 0 view .LVU452
 1593 0036 202C     		cmp	r4, #32
 1594 0038 0AD0     		beq	.L155
 254:Middlewares/ST/STM32_USB_Device_Library/Core/Src/usbd_ctlreq.c ****       {
 1595              		.loc 1 254 7 is_stmt 1 view .LVU453
 254:Middlewares/ST/STM32_USB_Device_Library/Core/Src/usbd_ctlreq.c ****       {
 1596              		.loc 1 254 18 is_stmt 0 view .LVU454
 1597 003a 4E78     		ldrb	r6, [r1, #1]
 1598 003c 012E     		cmp	r6, #1
 1599 003e 3ED0     		beq	.L120
 1600 0040 032E     		cmp	r6, #3
 1601 0042 0DD0     		beq	.L121
 1602 0044 002E     		cmp	r6, #0
 1603 0046 64D0     		beq	.L156
 384:Middlewares/ST/STM32_USB_Device_Library/Core/Src/usbd_ctlreq.c ****           break;
 1604              		.loc 1 384 11 is_stmt 1 view .LVU455
 1605 0048 2800     		movs	r0, r5
 1606 004a FFF7FEFF 		bl	USBD_CtlError
 1607              	.LVL189:
 385:Middlewares/ST/STM32_USB_Device_Library/Core/Src/usbd_ctlreq.c ****       }
 1608              		.loc 1 385 11 view .LVU456
 1609 004e F0E7     		b	.L118
 1610              	.LVL190:
 1611              	.L155:
 249:Middlewares/ST/STM32_USB_Device_Library/Core/Src/usbd_ctlreq.c **** 
 1612              		.loc 1 249 9 view .LVU457
 249:Middlewares/ST/STM32_USB_Device_Library/Core/Src/usbd_ctlreq.c **** 
 1613              		.loc 1 249 39 is_stmt 0 view .LVU458
 1614 0050 AD23     		movs	r3, #173
 1615 0052 9B00     		lsls	r3, r3, #2
 1616 0054 EB58     		ldr	r3, [r5, r3]
 249:Middlewares/ST/STM32_USB_Device_Library/Core/Src/usbd_ctlreq.c **** 
 1617              		.loc 1 249 47 view .LVU459
 1618 0056 9B68     		ldr	r3, [r3, #8]
 249:Middlewares/ST/STM32_USB_Device_Library/Core/Src/usbd_ctlreq.c **** 
 1619              		.loc 1 249 35 view .LVU460
 1620 0058 2800     		movs	r0, r5
 1621 005a 9847     		blx	r3
 1622              	.LVL191:
 249:Middlewares/ST/STM32_USB_Device_Library/Core/Src/usbd_ctlreq.c **** 
 1623              		.loc 1 249 35 view .LVU461
 1624 005c 0400     		movs	r4, r0
 1625              	.LVL192:
 251:Middlewares/ST/STM32_USB_Device_Library/Core/Src/usbd_ctlreq.c ****       }
 1626              		.loc 1 251 9 is_stmt 1 view .LVU462
 251:Middlewares/ST/STM32_USB_Device_Library/Core/Src/usbd_ctlreq.c ****       }
 1627              		.loc 1 251 16 is_stmt 0 view .LVU463
 1628 005e E8E7     		b	.L118
 1629              	.LVL193:
 1630              	.L121:
 257:Middlewares/ST/STM32_USB_Device_Library/Core/Src/usbd_ctlreq.c ****           {
 1631              		.loc 1 257 11 is_stmt 1 discriminator 3 view .LVU464
 257:Middlewares/ST/STM32_USB_Device_Library/Core/Src/usbd_ctlreq.c ****           {
 1632              		.loc 1 257 23 is_stmt 0 discriminator 3 view .LVU465
ARM GAS  C:\Users\Daniel\AppData\Local\Temp\ccTSPUfT.s 			page 53


 1633 0060 A723     		movs	r3, #167
 1634 0062 9B00     		lsls	r3, r3, #2
 1635 0064 EB5C     		ldrb	r3, [r5, r3]
 1636 0066 022B     		cmp	r3, #2
 1637 0068 05D0     		beq	.L124
 1638 006a 032B     		cmp	r3, #3
 1639 006c 14D0     		beq	.L125
 285:Middlewares/ST/STM32_USB_Device_Library/Core/Src/usbd_ctlreq.c ****               break;
 1640              		.loc 1 285 15 is_stmt 1 view .LVU466
 1641 006e 2800     		movs	r0, r5
 1642 0070 FFF7FEFF 		bl	USBD_CtlError
 1643              	.LVL194:
 286:Middlewares/ST/STM32_USB_Device_Library/Core/Src/usbd_ctlreq.c ****           }
 1644              		.loc 1 286 15 view .LVU467
 1645 0074 DDE7     		b	.L118
 1646              	.LVL195:
 1647              	.L124:
 260:Middlewares/ST/STM32_USB_Device_Library/Core/Src/usbd_ctlreq.c ****               {
 1648              		.loc 1 260 15 view .LVU468
 260:Middlewares/ST/STM32_USB_Device_Library/Core/Src/usbd_ctlreq.c ****               {
 1649              		.loc 1 260 18 is_stmt 0 view .LVU469
 1650 0076 002A     		cmp	r2, #0
 1651 0078 01D0     		beq	.L127
 260:Middlewares/ST/STM32_USB_Device_Library/Core/Src/usbd_ctlreq.c ****               {
 1652              		.loc 1 260 38 discriminator 1 view .LVU470
 1653 007a 802A     		cmp	r2, #128
 1654 007c 03D1     		bne	.L157
 1655              	.L127:
 267:Middlewares/ST/STM32_USB_Device_Library/Core/Src/usbd_ctlreq.c ****               }
 1656              		.loc 1 267 17 is_stmt 1 view .LVU471
 1657 007e 2800     		movs	r0, r5
 1658 0080 FFF7FEFF 		bl	USBD_CtlError
 1659              	.LVL196:
 267:Middlewares/ST/STM32_USB_Device_Library/Core/Src/usbd_ctlreq.c ****               }
 1660              		.loc 1 267 17 is_stmt 0 view .LVU472
 1661 0084 D5E7     		b	.L118
 1662              	.LVL197:
 1663              	.L157:
 262:Middlewares/ST/STM32_USB_Device_Library/Core/Src/usbd_ctlreq.c ****                 USBD_LL_StallEP(pdev, 0x80U);
 1664              		.loc 1 262 17 is_stmt 1 view .LVU473
 1665 0086 1100     		movs	r1, r2
 1666              	.LVL198:
 262:Middlewares/ST/STM32_USB_Device_Library/Core/Src/usbd_ctlreq.c ****                 USBD_LL_StallEP(pdev, 0x80U);
 1667              		.loc 1 262 17 is_stmt 0 view .LVU474
 1668 0088 2800     		movs	r0, r5
 1669 008a FFF7FEFF 		bl	USBD_LL_StallEP
 1670              	.LVL199:
 263:Middlewares/ST/STM32_USB_Device_Library/Core/Src/usbd_ctlreq.c ****               }
 1671              		.loc 1 263 17 is_stmt 1 view .LVU475
 1672 008e 8021     		movs	r1, #128
 1673 0090 2800     		movs	r0, r5
 1674 0092 FFF7FEFF 		bl	USBD_LL_StallEP
 1675              	.LVL200:
 1676 0096 CCE7     		b	.L118
 1677              	.LVL201:
 1678              	.L125:
 272:Middlewares/ST/STM32_USB_Device_Library/Core/Src/usbd_ctlreq.c ****               {
ARM GAS  C:\Users\Daniel\AppData\Local\Temp\ccTSPUfT.s 			page 54


 1679              		.loc 1 272 15 view .LVU476
 272:Middlewares/ST/STM32_USB_Device_Library/Core/Src/usbd_ctlreq.c ****               {
 1680              		.loc 1 272 22 is_stmt 0 view .LVU477
 1681 0098 4B88     		ldrh	r3, [r1, #2]
 272:Middlewares/ST/STM32_USB_Device_Library/Core/Src/usbd_ctlreq.c ****               {
 1682              		.loc 1 272 18 view .LVU478
 1683 009a 002B     		cmp	r3, #0
 1684 009c 06D1     		bne	.L128
 274:Middlewares/ST/STM32_USB_Device_Library/Core/Src/usbd_ctlreq.c ****                     (ep_addr != 0x80U) && (req->wLength == 0x00U))
 1685              		.loc 1 274 17 is_stmt 1 view .LVU479
 274:Middlewares/ST/STM32_USB_Device_Library/Core/Src/usbd_ctlreq.c ****                     (ep_addr != 0x80U) && (req->wLength == 0x00U))
 1686              		.loc 1 274 20 is_stmt 0 view .LVU480
 1687 009e 002A     		cmp	r2, #0
 1688 00a0 04D0     		beq	.L128
 274:Middlewares/ST/STM32_USB_Device_Library/Core/Src/usbd_ctlreq.c ****                     (ep_addr != 0x80U) && (req->wLength == 0x00U))
 1689              		.loc 1 274 40 discriminator 1 view .LVU481
 1690 00a2 802A     		cmp	r2, #128
 1691 00a4 02D0     		beq	.L128
 275:Middlewares/ST/STM32_USB_Device_Library/Core/Src/usbd_ctlreq.c ****                 {
 1692              		.loc 1 275 47 view .LVU482
 1693 00a6 CB88     		ldrh	r3, [r1, #6]
 275:Middlewares/ST/STM32_USB_Device_Library/Core/Src/usbd_ctlreq.c ****                 {
 1694              		.loc 1 275 40 view .LVU483
 1695 00a8 002B     		cmp	r3, #0
 1696 00aa 03D0     		beq	.L158
 1697              	.LVL202:
 1698              	.L128:
 280:Middlewares/ST/STM32_USB_Device_Library/Core/Src/usbd_ctlreq.c **** 
 1699              		.loc 1 280 15 is_stmt 1 view .LVU484
 1700 00ac 2800     		movs	r0, r5
 1701 00ae FFF7FEFF 		bl	USBD_CtlSendStatus
 1702              	.LVL203:
 282:Middlewares/ST/STM32_USB_Device_Library/Core/Src/usbd_ctlreq.c **** 
 1703              		.loc 1 282 15 view .LVU485
 1704 00b2 BEE7     		b	.L118
 1705              	.LVL204:
 1706              	.L158:
 277:Middlewares/ST/STM32_USB_Device_Library/Core/Src/usbd_ctlreq.c ****                 }
 1707              		.loc 1 277 19 view .LVU486
 1708 00b4 1100     		movs	r1, r2
 1709              	.LVL205:
 277:Middlewares/ST/STM32_USB_Device_Library/Core/Src/usbd_ctlreq.c ****                 }
 1710              		.loc 1 277 19 is_stmt 0 view .LVU487
 1711 00b6 2800     		movs	r0, r5
 1712 00b8 FFF7FEFF 		bl	USBD_LL_StallEP
 1713              	.LVL206:
 277:Middlewares/ST/STM32_USB_Device_Library/Core/Src/usbd_ctlreq.c ****                 }
 1714              		.loc 1 277 19 view .LVU488
 1715 00bc F6E7     		b	.L128
 1716              	.LVL207:
 1717              	.L120:
 292:Middlewares/ST/STM32_USB_Device_Library/Core/Src/usbd_ctlreq.c ****           {
 1718              		.loc 1 292 11 is_stmt 1 discriminator 2 view .LVU489
 292:Middlewares/ST/STM32_USB_Device_Library/Core/Src/usbd_ctlreq.c ****           {
 1719              		.loc 1 292 23 is_stmt 0 discriminator 2 view .LVU490
 1720 00be A723     		movs	r3, #167
 1721 00c0 9B00     		lsls	r3, r3, #2
ARM GAS  C:\Users\Daniel\AppData\Local\Temp\ccTSPUfT.s 			page 55


 1722 00c2 EB5C     		ldrb	r3, [r5, r3]
 1723 00c4 022B     		cmp	r3, #2
 1724 00c6 05D0     		beq	.L129
 1725 00c8 032B     		cmp	r3, #3
 1726 00ca 14D0     		beq	.L130
 318:Middlewares/ST/STM32_USB_Device_Library/Core/Src/usbd_ctlreq.c ****               break;
 1727              		.loc 1 318 15 is_stmt 1 view .LVU491
 1728 00cc 2800     		movs	r0, r5
 1729 00ce FFF7FEFF 		bl	USBD_CtlError
 1730              	.LVL208:
 319:Middlewares/ST/STM32_USB_Device_Library/Core/Src/usbd_ctlreq.c ****           }
 1731              		.loc 1 319 15 view .LVU492
 1732 00d2 AEE7     		b	.L118
 1733              	.LVL209:
 1734              	.L129:
 295:Middlewares/ST/STM32_USB_Device_Library/Core/Src/usbd_ctlreq.c ****               {
 1735              		.loc 1 295 15 view .LVU493
 295:Middlewares/ST/STM32_USB_Device_Library/Core/Src/usbd_ctlreq.c ****               {
 1736              		.loc 1 295 18 is_stmt 0 view .LVU494
 1737 00d4 002A     		cmp	r2, #0
 1738 00d6 01D0     		beq	.L132
 295:Middlewares/ST/STM32_USB_Device_Library/Core/Src/usbd_ctlreq.c ****               {
 1739              		.loc 1 295 38 discriminator 1 view .LVU495
 1740 00d8 802A     		cmp	r2, #128
 1741 00da 03D1     		bne	.L159
 1742              	.L132:
 302:Middlewares/ST/STM32_USB_Device_Library/Core/Src/usbd_ctlreq.c ****               }
 1743              		.loc 1 302 17 is_stmt 1 view .LVU496
 1744 00dc 2800     		movs	r0, r5
 1745 00de FFF7FEFF 		bl	USBD_CtlError
 1746              	.LVL210:
 302:Middlewares/ST/STM32_USB_Device_Library/Core/Src/usbd_ctlreq.c ****               }
 1747              		.loc 1 302 17 is_stmt 0 view .LVU497
 1748 00e2 A6E7     		b	.L118
 1749              	.LVL211:
 1750              	.L159:
 297:Middlewares/ST/STM32_USB_Device_Library/Core/Src/usbd_ctlreq.c ****                 USBD_LL_StallEP(pdev, 0x80U);
 1751              		.loc 1 297 17 is_stmt 1 view .LVU498
 1752 00e4 1100     		movs	r1, r2
 1753              	.LVL212:
 297:Middlewares/ST/STM32_USB_Device_Library/Core/Src/usbd_ctlreq.c ****                 USBD_LL_StallEP(pdev, 0x80U);
 1754              		.loc 1 297 17 is_stmt 0 view .LVU499
 1755 00e6 2800     		movs	r0, r5
 1756 00e8 FFF7FEFF 		bl	USBD_LL_StallEP
 1757              	.LVL213:
 298:Middlewares/ST/STM32_USB_Device_Library/Core/Src/usbd_ctlreq.c ****               }
 1758              		.loc 1 298 17 is_stmt 1 view .LVU500
 1759 00ec 8021     		movs	r1, #128
 1760 00ee 2800     		movs	r0, r5
 1761 00f0 FFF7FEFF 		bl	USBD_LL_StallEP
 1762              	.LVL214:
 1763 00f4 9DE7     		b	.L118
 1764              	.LVL215:
 1765              	.L130:
 307:Middlewares/ST/STM32_USB_Device_Library/Core/Src/usbd_ctlreq.c ****               {
 1766              		.loc 1 307 15 view .LVU501
 307:Middlewares/ST/STM32_USB_Device_Library/Core/Src/usbd_ctlreq.c ****               {
ARM GAS  C:\Users\Daniel\AppData\Local\Temp\ccTSPUfT.s 			page 56


 1767              		.loc 1 307 22 is_stmt 0 view .LVU502
 1768 00f6 4B88     		ldrh	r3, [r1, #2]
 307:Middlewares/ST/STM32_USB_Device_Library/Core/Src/usbd_ctlreq.c ****               {
 1769              		.loc 1 307 18 view .LVU503
 1770 00f8 002B     		cmp	r3, #0
 1771 00fa 9AD1     		bne	.L118
 309:Middlewares/ST/STM32_USB_Device_Library/Core/Src/usbd_ctlreq.c ****                 {
 1772              		.loc 1 309 17 is_stmt 1 view .LVU504
 309:Middlewares/ST/STM32_USB_Device_Library/Core/Src/usbd_ctlreq.c ****                 {
 1773              		.loc 1 309 20 is_stmt 0 view .LVU505
 1774 00fc 5306     		lsls	r3, r2, #25
 1775 00fe 03D1     		bne	.L160
 1776              	.LVL216:
 1777              	.L133:
 313:Middlewares/ST/STM32_USB_Device_Library/Core/Src/usbd_ctlreq.c ****               }
 1778              		.loc 1 313 17 is_stmt 1 view .LVU506
 1779 0100 2800     		movs	r0, r5
 1780 0102 FFF7FEFF 		bl	USBD_CtlSendStatus
 1781              	.LVL217:
 1782 0106 94E7     		b	.L118
 1783              	.LVL218:
 1784              	.L160:
 311:Middlewares/ST/STM32_USB_Device_Library/Core/Src/usbd_ctlreq.c ****                 }
 1785              		.loc 1 311 19 view .LVU507
 1786 0108 1100     		movs	r1, r2
 1787              	.LVL219:
 311:Middlewares/ST/STM32_USB_Device_Library/Core/Src/usbd_ctlreq.c ****                 }
 1788              		.loc 1 311 19 is_stmt 0 view .LVU508
 1789 010a 2800     		movs	r0, r5
 1790 010c FFF7FEFF 		bl	USBD_LL_ClearStallEP
 1791              	.LVL220:
 311:Middlewares/ST/STM32_USB_Device_Library/Core/Src/usbd_ctlreq.c ****                 }
 1792              		.loc 1 311 19 view .LVU509
 1793 0110 F6E7     		b	.L133
 1794              	.LVL221:
 1795              	.L156:
 324:Middlewares/ST/STM32_USB_Device_Library/Core/Src/usbd_ctlreq.c ****           {
 1796              		.loc 1 324 11 is_stmt 1 discriminator 1 view .LVU510
 324:Middlewares/ST/STM32_USB_Device_Library/Core/Src/usbd_ctlreq.c ****           {
 1797              		.loc 1 324 23 is_stmt 0 discriminator 1 view .LVU511
 1798 0112 A723     		movs	r3, #167
 1799 0114 9B00     		lsls	r3, r3, #2
 1800 0116 EB5C     		ldrb	r3, [r5, r3]
 1801 0118 022B     		cmp	r3, #2
 1802 011a 06D0     		beq	.L134
 1803 011c 032B     		cmp	r3, #3
 1804 011e 29D0     		beq	.L135
 378:Middlewares/ST/STM32_USB_Device_Library/Core/Src/usbd_ctlreq.c ****               break;
 1805              		.loc 1 378 15 is_stmt 1 view .LVU512
 1806 0120 2800     		movs	r0, r5
 1807 0122 FFF7FEFF 		bl	USBD_CtlError
 1808              	.LVL222:
 379:Middlewares/ST/STM32_USB_Device_Library/Core/Src/usbd_ctlreq.c ****           }
 1809              		.loc 1 379 15 view .LVU513
 394:Middlewares/ST/STM32_USB_Device_Library/Core/Src/usbd_ctlreq.c **** }
 1810              		.loc 1 394 10 is_stmt 0 view .LVU514
 1811 0126 3400     		movs	r4, r6
ARM GAS  C:\Users\Daniel\AppData\Local\Temp\ccTSPUfT.s 			page 57


 379:Middlewares/ST/STM32_USB_Device_Library/Core/Src/usbd_ctlreq.c ****           }
 1812              		.loc 1 379 15 view .LVU515
 1813 0128 83E7     		b	.L118
 1814              	.LVL223:
 1815              	.L134:
 327:Middlewares/ST/STM32_USB_Device_Library/Core/Src/usbd_ctlreq.c ****               {
 1816              		.loc 1 327 15 is_stmt 1 view .LVU516
 327:Middlewares/ST/STM32_USB_Device_Library/Core/Src/usbd_ctlreq.c ****               {
 1817              		.loc 1 327 18 is_stmt 0 view .LVU517
 1818 012a 002A     		cmp	r2, #0
 1819 012c 01D0     		beq	.L137
 327:Middlewares/ST/STM32_USB_Device_Library/Core/Src/usbd_ctlreq.c ****               {
 1820              		.loc 1 327 38 discriminator 1 view .LVU518
 1821 012e 802A     		cmp	r2, #128
 1822 0130 12D1     		bne	.L161
 1823              	.L137:
 332:Middlewares/ST/STM32_USB_Device_Library/Core/Src/usbd_ctlreq.c ****                     &pdev->ep_out[ep_addr & 0x7FU];
 1824              		.loc 1 332 15 is_stmt 1 view .LVU519
 332:Middlewares/ST/STM32_USB_Device_Library/Core/Src/usbd_ctlreq.c ****                     &pdev->ep_out[ep_addr & 0x7FU];
 1825              		.loc 1 332 82 is_stmt 0 view .LVU520
 1826 0132 0006     		lsls	r0, r0, #24
 1827 0134 15D4     		bmi	.L162
 333:Middlewares/ST/STM32_USB_Device_Library/Core/Src/usbd_ctlreq.c **** 
 1828              		.loc 1 333 43 discriminator 2 view .LVU521
 1829 0136 7F23     		movs	r3, #127
 1830 0138 1340     		ands	r3, r2
 332:Middlewares/ST/STM32_USB_Device_Library/Core/Src/usbd_ctlreq.c ****                     &pdev->ep_out[ep_addr & 0x7FU];
 1831              		.loc 1 332 82 discriminator 2 view .LVU522
 1832 013a 9900     		lsls	r1, r3, #2
 1833              	.LVL224:
 332:Middlewares/ST/STM32_USB_Device_Library/Core/Src/usbd_ctlreq.c ****                     &pdev->ep_out[ep_addr & 0x7FU];
 1834              		.loc 1 332 82 discriminator 2 view .LVU523
 1835 013c C918     		adds	r1, r1, r3
 1836 013e 8900     		lsls	r1, r1, #2
 1837 0140 5131     		adds	r1, r1, #81
 1838 0142 FF31     		adds	r1, r1, #255
 1839 0144 6918     		adds	r1, r5, r1
 1840 0146 0431     		adds	r1, r1, #4
 1841              	.L139:
 1842              	.LVL225:
 335:Middlewares/ST/STM32_USB_Device_Library/Core/Src/usbd_ctlreq.c **** 
 1843              		.loc 1 335 15 is_stmt 1 discriminator 4 view .LVU524
 335:Middlewares/ST/STM32_USB_Device_Library/Core/Src/usbd_ctlreq.c **** 
 1844              		.loc 1 335 27 is_stmt 0 discriminator 4 view .LVU525
 1845 0148 0023     		movs	r3, #0
 1846 014a 0B60     		str	r3, [r1]
 337:Middlewares/ST/STM32_USB_Device_Library/Core/Src/usbd_ctlreq.c ****               break;
 1847              		.loc 1 337 15 is_stmt 1 discriminator 4 view .LVU526
 1848 014c 0222     		movs	r2, #2
 1849              	.LVL226:
 337:Middlewares/ST/STM32_USB_Device_Library/Core/Src/usbd_ctlreq.c ****               break;
 1850              		.loc 1 337 15 is_stmt 0 discriminator 4 view .LVU527
 1851 014e 2800     		movs	r0, r5
 1852 0150 FFF7FEFF 		bl	USBD_CtlSendData
 1853              	.LVL227:
 338:Middlewares/ST/STM32_USB_Device_Library/Core/Src/usbd_ctlreq.c **** 
 1854              		.loc 1 338 15 is_stmt 1 discriminator 4 view .LVU528
ARM GAS  C:\Users\Daniel\AppData\Local\Temp\ccTSPUfT.s 			page 58


 394:Middlewares/ST/STM32_USB_Device_Library/Core/Src/usbd_ctlreq.c **** }
 1855              		.loc 1 394 10 is_stmt 0 discriminator 4 view .LVU529
 1856 0154 3400     		movs	r4, r6
 338:Middlewares/ST/STM32_USB_Device_Library/Core/Src/usbd_ctlreq.c **** 
 1857              		.loc 1 338 15 discriminator 4 view .LVU530
 1858 0156 6CE7     		b	.L118
 1859              	.LVL228:
 1860              	.L161:
 329:Middlewares/ST/STM32_USB_Device_Library/Core/Src/usbd_ctlreq.c ****                 break;
 1861              		.loc 1 329 17 is_stmt 1 view .LVU531
 1862 0158 2800     		movs	r0, r5
 1863 015a FFF7FEFF 		bl	USBD_CtlError
 1864              	.LVL229:
 330:Middlewares/ST/STM32_USB_Device_Library/Core/Src/usbd_ctlreq.c ****               }
 1865              		.loc 1 330 17 view .LVU532
 394:Middlewares/ST/STM32_USB_Device_Library/Core/Src/usbd_ctlreq.c **** }
 1866              		.loc 1 394 10 is_stmt 0 view .LVU533
 1867 015e 3400     		movs	r4, r6
 330:Middlewares/ST/STM32_USB_Device_Library/Core/Src/usbd_ctlreq.c ****               }
 1868              		.loc 1 330 17 view .LVU534
 1869 0160 67E7     		b	.L118
 1870              	.LVL230:
 1871              	.L162:
 332:Middlewares/ST/STM32_USB_Device_Library/Core/Src/usbd_ctlreq.c ****                     &pdev->ep_out[ep_addr & 0x7FU];
 1872              		.loc 1 332 73 discriminator 1 view .LVU535
 1873 0162 7F23     		movs	r3, #127
 1874 0164 1340     		ands	r3, r2
 332:Middlewares/ST/STM32_USB_Device_Library/Core/Src/usbd_ctlreq.c ****                     &pdev->ep_out[ep_addr & 0x7FU];
 1875              		.loc 1 332 82 discriminator 1 view .LVU536
 1876 0166 9900     		lsls	r1, r3, #2
 1877              	.LVL231:
 332:Middlewares/ST/STM32_USB_Device_Library/Core/Src/usbd_ctlreq.c ****                     &pdev->ep_out[ep_addr & 0x7FU];
 1878              		.loc 1 332 82 discriminator 1 view .LVU537
 1879 0168 C918     		adds	r1, r1, r3
 1880 016a 8900     		lsls	r1, r1, #2
 1881 016c 1031     		adds	r1, r1, #16
 1882 016e 6918     		adds	r1, r5, r1
 1883 0170 0431     		adds	r1, r1, #4
 1884 0172 E9E7     		b	.L139
 1885              	.LVL232:
 1886              	.L135:
 341:Middlewares/ST/STM32_USB_Device_Library/Core/Src/usbd_ctlreq.c ****               {
 1887              		.loc 1 341 15 is_stmt 1 view .LVU538
 341:Middlewares/ST/STM32_USB_Device_Library/Core/Src/usbd_ctlreq.c ****               {
 1888              		.loc 1 341 37 is_stmt 0 view .LVU539
 1889 0174 44B2     		sxtb	r4, r0
 341:Middlewares/ST/STM32_USB_Device_Library/Core/Src/usbd_ctlreq.c ****               {
 1890              		.loc 1 341 18 view .LVU540
 1891 0176 0006     		lsls	r0, r0, #24
 1892 0178 22D4     		bmi	.L163
 351:Middlewares/ST/STM32_USB_Device_Library/Core/Src/usbd_ctlreq.c ****                 {
 1893              		.loc 1 351 17 is_stmt 1 view .LVU541
 351:Middlewares/ST/STM32_USB_Device_Library/Core/Src/usbd_ctlreq.c ****                 {
 1894              		.loc 1 351 42 is_stmt 0 view .LVU542
 1895 017a 0F20     		movs	r0, #15
 1896 017c 1040     		ands	r0, r2
 351:Middlewares/ST/STM32_USB_Device_Library/Core/Src/usbd_ctlreq.c ****                 {
ARM GAS  C:\Users\Daniel\AppData\Local\Temp\ccTSPUfT.s 			page 59


 1897              		.loc 1 351 49 view .LVU543
 1898 017e 8300     		lsls	r3, r0, #2
 1899 0180 1B18     		adds	r3, r3, r0
 1900 0182 9B00     		lsls	r3, r3, #2
 1901 0184 EB18     		adds	r3, r5, r3
 1902 0186 5933     		adds	r3, r3, #89
 1903 0188 FF33     		adds	r3, r3, #255
 1904 018a 1B68     		ldr	r3, [r3]
 351:Middlewares/ST/STM32_USB_Device_Library/Core/Src/usbd_ctlreq.c ****                 {
 1905              		.loc 1 351 20 view .LVU544
 1906 018c 002B     		cmp	r3, #0
 1907 018e 25D0     		beq	.L164
 1908              	.L141:
 358:Middlewares/ST/STM32_USB_Device_Library/Core/Src/usbd_ctlreq.c ****                     &pdev->ep_out[ep_addr & 0x7FU];
 1909              		.loc 1 358 15 is_stmt 1 view .LVU545
 358:Middlewares/ST/STM32_USB_Device_Library/Core/Src/usbd_ctlreq.c ****                     &pdev->ep_out[ep_addr & 0x7FU];
 1910              		.loc 1 358 82 is_stmt 0 view .LVU546
 1911 0190 002C     		cmp	r4, #0
 1912 0192 28DB     		blt	.L165
 359:Middlewares/ST/STM32_USB_Device_Library/Core/Src/usbd_ctlreq.c **** 
 1913              		.loc 1 359 43 discriminator 2 view .LVU547
 1914 0194 7F23     		movs	r3, #127
 1915 0196 1340     		ands	r3, r2
 358:Middlewares/ST/STM32_USB_Device_Library/Core/Src/usbd_ctlreq.c ****                     &pdev->ep_out[ep_addr & 0x7FU];
 1916              		.loc 1 358 82 discriminator 2 view .LVU548
 1917 0198 9C00     		lsls	r4, r3, #2
 1918 019a E418     		adds	r4, r4, r3
 1919 019c A400     		lsls	r4, r4, #2
 1920 019e 5134     		adds	r4, r4, #81
 1921 01a0 FF34     		adds	r4, r4, #255
 1922 01a2 2C19     		adds	r4, r5, r4
 1923 01a4 0434     		adds	r4, r4, #4
 1924              	.L143:
 1925              	.LVL233:
 361:Middlewares/ST/STM32_USB_Device_Library/Core/Src/usbd_ctlreq.c ****               {
 1926              		.loc 1 361 15 is_stmt 1 discriminator 4 view .LVU549
 361:Middlewares/ST/STM32_USB_Device_Library/Core/Src/usbd_ctlreq.c ****               {
 1927              		.loc 1 361 18 is_stmt 0 discriminator 4 view .LVU550
 1928 01a6 002A     		cmp	r2, #0
 1929 01a8 01D0     		beq	.L144
 361:Middlewares/ST/STM32_USB_Device_Library/Core/Src/usbd_ctlreq.c ****               {
 1930              		.loc 1 361 38 discriminator 1 view .LVU551
 1931 01aa 802A     		cmp	r2, #128
 1932 01ac 24D1     		bne	.L145
 1933              	.L144:
 363:Middlewares/ST/STM32_USB_Device_Library/Core/Src/usbd_ctlreq.c ****               }
 1934              		.loc 1 363 17 is_stmt 1 view .LVU552
 363:Middlewares/ST/STM32_USB_Device_Library/Core/Src/usbd_ctlreq.c ****               }
 1935              		.loc 1 363 29 is_stmt 0 view .LVU553
 1936 01ae 0023     		movs	r3, #0
 1937 01b0 2360     		str	r3, [r4]
 1938              	.LVL234:
 1939              	.L146:
 374:Middlewares/ST/STM32_USB_Device_Library/Core/Src/usbd_ctlreq.c ****               break;
 1940              		.loc 1 374 15 is_stmt 1 view .LVU554
 1941 01b2 0222     		movs	r2, #2
 1942 01b4 2100     		movs	r1, r4
ARM GAS  C:\Users\Daniel\AppData\Local\Temp\ccTSPUfT.s 			page 60


 1943 01b6 2800     		movs	r0, r5
 1944 01b8 FFF7FEFF 		bl	USBD_CtlSendData
 1945              	.LVL235:
 375:Middlewares/ST/STM32_USB_Device_Library/Core/Src/usbd_ctlreq.c **** 
 1946              		.loc 1 375 15 view .LVU555
 394:Middlewares/ST/STM32_USB_Device_Library/Core/Src/usbd_ctlreq.c **** }
 1947              		.loc 1 394 10 is_stmt 0 view .LVU556
 1948 01bc 3400     		movs	r4, r6
 1949              	.LVL236:
 375:Middlewares/ST/STM32_USB_Device_Library/Core/Src/usbd_ctlreq.c **** 
 1950              		.loc 1 375 15 view .LVU557
 1951 01be 38E7     		b	.L118
 1952              	.LVL237:
 1953              	.L163:
 343:Middlewares/ST/STM32_USB_Device_Library/Core/Src/usbd_ctlreq.c ****                 {
 1954              		.loc 1 343 17 is_stmt 1 view .LVU558
 343:Middlewares/ST/STM32_USB_Device_Library/Core/Src/usbd_ctlreq.c ****                 {
 1955              		.loc 1 343 41 is_stmt 0 view .LVU559
 1956 01c0 0F20     		movs	r0, #15
 1957 01c2 1040     		ands	r0, r2
 343:Middlewares/ST/STM32_USB_Device_Library/Core/Src/usbd_ctlreq.c ****                 {
 1958              		.loc 1 343 48 view .LVU560
 1959 01c4 8300     		lsls	r3, r0, #2
 1960 01c6 1B18     		adds	r3, r3, r0
 1961 01c8 9B00     		lsls	r3, r3, #2
 1962 01ca EB18     		adds	r3, r5, r3
 1963 01cc 9B69     		ldr	r3, [r3, #24]
 343:Middlewares/ST/STM32_USB_Device_Library/Core/Src/usbd_ctlreq.c ****                 {
 1964              		.loc 1 343 20 view .LVU561
 1965 01ce 002B     		cmp	r3, #0
 1966 01d0 DED1     		bne	.L141
 345:Middlewares/ST/STM32_USB_Device_Library/Core/Src/usbd_ctlreq.c ****                   break;
 1967              		.loc 1 345 19 is_stmt 1 view .LVU562
 1968 01d2 2800     		movs	r0, r5
 1969 01d4 FFF7FEFF 		bl	USBD_CtlError
 1970              	.LVL238:
 346:Middlewares/ST/STM32_USB_Device_Library/Core/Src/usbd_ctlreq.c ****                 }
 1971              		.loc 1 346 19 view .LVU563
 394:Middlewares/ST/STM32_USB_Device_Library/Core/Src/usbd_ctlreq.c **** }
 1972              		.loc 1 394 10 is_stmt 0 view .LVU564
 1973 01d8 3400     		movs	r4, r6
 346:Middlewares/ST/STM32_USB_Device_Library/Core/Src/usbd_ctlreq.c ****                 }
 1974              		.loc 1 346 19 view .LVU565
 1975 01da 2AE7     		b	.L118
 1976              	.LVL239:
 1977              	.L164:
 353:Middlewares/ST/STM32_USB_Device_Library/Core/Src/usbd_ctlreq.c ****                   break;
 1978              		.loc 1 353 19 is_stmt 1 view .LVU566
 1979 01dc 2800     		movs	r0, r5
 1980 01de FFF7FEFF 		bl	USBD_CtlError
 1981              	.LVL240:
 354:Middlewares/ST/STM32_USB_Device_Library/Core/Src/usbd_ctlreq.c ****                 }
 1982              		.loc 1 354 19 view .LVU567
 394:Middlewares/ST/STM32_USB_Device_Library/Core/Src/usbd_ctlreq.c **** }
 1983              		.loc 1 394 10 is_stmt 0 view .LVU568
 1984 01e2 3400     		movs	r4, r6
 354:Middlewares/ST/STM32_USB_Device_Library/Core/Src/usbd_ctlreq.c ****                 }
ARM GAS  C:\Users\Daniel\AppData\Local\Temp\ccTSPUfT.s 			page 61


 1985              		.loc 1 354 19 view .LVU569
 1986 01e4 25E7     		b	.L118
 1987              	.LVL241:
 1988              	.L165:
 358:Middlewares/ST/STM32_USB_Device_Library/Core/Src/usbd_ctlreq.c ****                     &pdev->ep_out[ep_addr & 0x7FU];
 1989              		.loc 1 358 73 discriminator 1 view .LVU570
 1990 01e6 7F23     		movs	r3, #127
 1991 01e8 1340     		ands	r3, r2
 358:Middlewares/ST/STM32_USB_Device_Library/Core/Src/usbd_ctlreq.c ****                     &pdev->ep_out[ep_addr & 0x7FU];
 1992              		.loc 1 358 82 discriminator 1 view .LVU571
 1993 01ea 9C00     		lsls	r4, r3, #2
 1994 01ec E418     		adds	r4, r4, r3
 1995 01ee A400     		lsls	r4, r4, #2
 1996 01f0 1034     		adds	r4, r4, #16
 1997 01f2 2C19     		adds	r4, r5, r4
 1998 01f4 0434     		adds	r4, r4, #4
 1999 01f6 D6E7     		b	.L143
 2000              	.LVL242:
 2001              	.L145:
 365:Middlewares/ST/STM32_USB_Device_Library/Core/Src/usbd_ctlreq.c ****               {
 2002              		.loc 1 365 20 is_stmt 1 view .LVU572
 365:Middlewares/ST/STM32_USB_Device_Library/Core/Src/usbd_ctlreq.c ****               {
 2003              		.loc 1 365 24 is_stmt 0 view .LVU573
 2004 01f8 1100     		movs	r1, r2
 2005              	.LVL243:
 365:Middlewares/ST/STM32_USB_Device_Library/Core/Src/usbd_ctlreq.c ****               {
 2006              		.loc 1 365 24 view .LVU574
 2007 01fa 2800     		movs	r0, r5
 2008 01fc FFF7FEFF 		bl	USBD_LL_IsStallEP
 2009              	.LVL244:
 365:Middlewares/ST/STM32_USB_Device_Library/Core/Src/usbd_ctlreq.c ****               {
 2010              		.loc 1 365 23 view .LVU575
 2011 0200 0028     		cmp	r0, #0
 2012 0202 02D0     		beq	.L147
 367:Middlewares/ST/STM32_USB_Device_Library/Core/Src/usbd_ctlreq.c ****               }
 2013              		.loc 1 367 17 is_stmt 1 view .LVU576
 367:Middlewares/ST/STM32_USB_Device_Library/Core/Src/usbd_ctlreq.c ****               }
 2014              		.loc 1 367 29 is_stmt 0 view .LVU577
 2015 0204 0123     		movs	r3, #1
 2016 0206 2360     		str	r3, [r4]
 2017 0208 D3E7     		b	.L146
 2018              	.L147:
 371:Middlewares/ST/STM32_USB_Device_Library/Core/Src/usbd_ctlreq.c ****               }
 2019              		.loc 1 371 17 is_stmt 1 view .LVU578
 371:Middlewares/ST/STM32_USB_Device_Library/Core/Src/usbd_ctlreq.c ****               }
 2020              		.loc 1 371 29 is_stmt 0 view .LVU579
 2021 020a 0023     		movs	r3, #0
 2022 020c 2360     		str	r3, [r4]
 2023 020e D0E7     		b	.L146
 2024              		.cfi_endproc
 2025              	.LFE45:
 2027              		.section	.text.USBD_GetString,"ax",%progbits
 2028              		.align	1
 2029              		.global	USBD_GetString
 2030              		.syntax unified
 2031              		.code	16
 2032              		.thumb_func
ARM GAS  C:\Users\Daniel\AppData\Local\Temp\ccTSPUfT.s 			page 62


 2034              	USBD_GetString:
 2035              	.LVL245:
 2036              	.LFB55:
 869:Middlewares/ST/STM32_USB_Device_Library/Core/Src/usbd_ctlreq.c ****   uint8_t idx = 0U;
 2037              		.loc 1 869 1 is_stmt 1 view -0
 2038              		.cfi_startproc
 2039              		@ args = 0, pretend = 0, frame = 0
 2040              		@ frame_needed = 0, uses_anonymous_args = 0
 869:Middlewares/ST/STM32_USB_Device_Library/Core/Src/usbd_ctlreq.c ****   uint8_t idx = 0U;
 2041              		.loc 1 869 1 is_stmt 0 view .LVU581
 2042 0000 70B5     		push	{r4, r5, r6, lr}
 2043              		.cfi_def_cfa_offset 16
 2044              		.cfi_offset 4, -16
 2045              		.cfi_offset 5, -12
 2046              		.cfi_offset 6, -8
 2047              		.cfi_offset 14, -4
 2048 0002 0400     		movs	r4, r0
 2049 0004 0D00     		movs	r5, r1
 2050 0006 1600     		movs	r6, r2
 870:Middlewares/ST/STM32_USB_Device_Library/Core/Src/usbd_ctlreq.c **** 
 2051              		.loc 1 870 3 is_stmt 1 view .LVU582
 2052              	.LVL246:
 872:Middlewares/ST/STM32_USB_Device_Library/Core/Src/usbd_ctlreq.c ****   {
 2053              		.loc 1 872 3 view .LVU583
 872:Middlewares/ST/STM32_USB_Device_Library/Core/Src/usbd_ctlreq.c ****   {
 2054              		.loc 1 872 6 is_stmt 0 view .LVU584
 2055 0008 0028     		cmp	r0, #0
 2056 000a 16D0     		beq	.L166
 874:Middlewares/ST/STM32_USB_Device_Library/Core/Src/usbd_ctlreq.c ****     unicode[idx++] = *(uint8_t *)(void *)len;
 2057              		.loc 1 874 5 is_stmt 1 view .LVU585
 874:Middlewares/ST/STM32_USB_Device_Library/Core/Src/usbd_ctlreq.c ****     unicode[idx++] = *(uint8_t *)(void *)len;
 2058              		.loc 1 874 22 is_stmt 0 view .LVU586
 2059 000c FFF7FEFF 		bl	USBD_GetLen
 2060              	.LVL247:
 874:Middlewares/ST/STM32_USB_Device_Library/Core/Src/usbd_ctlreq.c ****     unicode[idx++] = *(uint8_t *)(void *)len;
 2061              		.loc 1 874 45 view .LVU587
 2062 0010 0130     		adds	r0, r0, #1
 874:Middlewares/ST/STM32_USB_Device_Library/Core/Src/usbd_ctlreq.c ****     unicode[idx++] = *(uint8_t *)(void *)len;
 2063              		.loc 1 874 10 view .LVU588
 2064 0012 4300     		lsls	r3, r0, #1
 2065 0014 9BB2     		uxth	r3, r3
 2066 0016 3380     		strh	r3, [r6]
 875:Middlewares/ST/STM32_USB_Device_Library/Core/Src/usbd_ctlreq.c ****     unicode[idx++] = USB_DESC_TYPE_STRING;
 2067              		.loc 1 875 5 is_stmt 1 view .LVU589
 2068              	.LVL248:
 875:Middlewares/ST/STM32_USB_Device_Library/Core/Src/usbd_ctlreq.c ****     unicode[idx++] = USB_DESC_TYPE_STRING;
 2069              		.loc 1 875 20 is_stmt 0 view .LVU590
 2070 0018 2B70     		strb	r3, [r5]
 876:Middlewares/ST/STM32_USB_Device_Library/Core/Src/usbd_ctlreq.c **** 
 2071              		.loc 1 876 5 is_stmt 1 view .LVU591
 2072              	.LVL249:
 876:Middlewares/ST/STM32_USB_Device_Library/Core/Src/usbd_ctlreq.c **** 
 2073              		.loc 1 876 20 is_stmt 0 view .LVU592
 2074 001a 0323     		movs	r3, #3
 2075 001c 6B70     		strb	r3, [r5, #1]
 878:Middlewares/ST/STM32_USB_Device_Library/Core/Src/usbd_ctlreq.c ****     {
 2076              		.loc 1 878 5 is_stmt 1 view .LVU593
ARM GAS  C:\Users\Daniel\AppData\Local\Temp\ccTSPUfT.s 			page 63


 876:Middlewares/ST/STM32_USB_Device_Library/Core/Src/usbd_ctlreq.c **** 
 2077              		.loc 1 876 16 is_stmt 0 view .LVU594
 2078 001e 013B     		subs	r3, r3, #1
 878:Middlewares/ST/STM32_USB_Device_Library/Core/Src/usbd_ctlreq.c ****     {
 2079              		.loc 1 878 11 view .LVU595
 2080 0020 08E0     		b	.L168
 2081              	.LVL250:
 2082              	.L169:
 880:Middlewares/ST/STM32_USB_Device_Library/Core/Src/usbd_ctlreq.c ****       unicode[idx++] =  0U;
 2083              		.loc 1 880 7 is_stmt 1 view .LVU596
 880:Middlewares/ST/STM32_USB_Device_Library/Core/Src/usbd_ctlreq.c ****       unicode[idx++] =  0U;
 2084              		.loc 1 880 29 is_stmt 0 view .LVU597
 2085 0022 0134     		adds	r4, r4, #1
 2086              	.LVL251:
 880:Middlewares/ST/STM32_USB_Device_Library/Core/Src/usbd_ctlreq.c ****       unicode[idx++] =  0U;
 2087              		.loc 1 880 18 view .LVU598
 2088 0024 5A1C     		adds	r2, r3, #1
 2089 0026 D2B2     		uxtb	r2, r2
 2090              	.LVL252:
 880:Middlewares/ST/STM32_USB_Device_Library/Core/Src/usbd_ctlreq.c ****       unicode[idx++] =  0U;
 2091              		.loc 1 880 22 view .LVU599
 2092 0028 E854     		strb	r0, [r5, r3]
 881:Middlewares/ST/STM32_USB_Device_Library/Core/Src/usbd_ctlreq.c ****     }
 2093              		.loc 1 881 7 is_stmt 1 view .LVU600
 881:Middlewares/ST/STM32_USB_Device_Library/Core/Src/usbd_ctlreq.c ****     }
 2094              		.loc 1 881 18 is_stmt 0 view .LVU601
 2095 002a 0233     		adds	r3, r3, #2
 2096 002c DBB2     		uxtb	r3, r3
 2097              	.LVL253:
 881:Middlewares/ST/STM32_USB_Device_Library/Core/Src/usbd_ctlreq.c ****     }
 2098              		.loc 1 881 14 view .LVU602
 2099 002e AA18     		adds	r2, r5, r2
 881:Middlewares/ST/STM32_USB_Device_Library/Core/Src/usbd_ctlreq.c ****     }
 2100              		.loc 1 881 22 view .LVU603
 2101 0030 0021     		movs	r1, #0
 2102 0032 1170     		strb	r1, [r2]
 2103              	.LVL254:
 2104              	.L168:
 878:Middlewares/ST/STM32_USB_Device_Library/Core/Src/usbd_ctlreq.c ****     {
 2105              		.loc 1 878 18 is_stmt 1 view .LVU604
 878:Middlewares/ST/STM32_USB_Device_Library/Core/Src/usbd_ctlreq.c ****     {
 2106              		.loc 1 878 12 is_stmt 0 view .LVU605
 2107 0034 2078     		ldrb	r0, [r4]
 878:Middlewares/ST/STM32_USB_Device_Library/Core/Src/usbd_ctlreq.c ****     {
 2108              		.loc 1 878 18 view .LVU606
 2109 0036 0028     		cmp	r0, #0
 2110 0038 F3D1     		bne	.L169
 2111              	.LVL255:
 2112              	.L166:
 884:Middlewares/ST/STM32_USB_Device_Library/Core/Src/usbd_ctlreq.c **** 
 2113              		.loc 1 884 1 view .LVU607
 2114              		@ sp needed
 2115              	.LVL256:
 2116              	.LVL257:
 2117              	.LVL258:
 884:Middlewares/ST/STM32_USB_Device_Library/Core/Src/usbd_ctlreq.c **** 
 2118              		.loc 1 884 1 view .LVU608
ARM GAS  C:\Users\Daniel\AppData\Local\Temp\ccTSPUfT.s 			page 64


 2119 003a 70BD     		pop	{r4, r5, r6, pc}
 2120              		.cfi_endproc
 2121              	.LFE55:
 2123              		.section	.bss.cfgidx.0,"aw",%nobits
 2126              	cfgidx.0:
 2127 0000 00       		.space	1
 2128              		.text
 2129              	.Letext0:
 2130              		.file 2 "c:\\users\\daniel\\appdata\\roaming\\code\\user\\globalstorage\\bmd.stm32-for-vscode\\@xp
 2131              		.file 3 "c:\\users\\daniel\\appdata\\roaming\\code\\user\\globalstorage\\bmd.stm32-for-vscode\\@xp
 2132              		.file 4 "Middlewares/ST/STM32_USB_Device_Library/Core/Inc/usbd_def.h"
 2133              		.file 5 "Middlewares/ST/STM32_USB_Device_Library/Core/Inc/usbd_core.h"
 2134              		.file 6 "Middlewares/ST/STM32_USB_Device_Library/Core/Inc/usbd_ioreq.h"
ARM GAS  C:\Users\Daniel\AppData\Local\Temp\ccTSPUfT.s 			page 65

